

Microchip MPLAB XC8 Assembler V2.32 build 20210201212658 
                                                                                               Fri Aug 05 20:42:56 2022

Microchip MPLAB XC8 C Compiler v2.32 (Free license) build 20210201212658 Og1 
     1                           	processor	18F57Q43
     2                           	fnconf	rparam,??,?,0
     3                           	pagewidth 120
     4                           	opt	flic
     5                           	psect	nvCOMRAM,global,class=COMRAM,space=1,delta=1,lowdata,noexec
     6                           	psect	nvBANK5,global,class=BANK5,space=1,delta=1,lowdata,noexec
     7                           	psect	smallconst,global,reloc=2,class=SMALLCONST,delta=1,noexec
     8                           	psect	cinit,global,reloc=2,class=CODE,delta=1
     9                           	psect	bssCOMRAM,global,class=COMRAM,space=1,delta=1,lowdata,noexec
    10                           	psect	bssBANK5,global,class=BANK5,space=1,delta=1,lowdata,noexec
    11                           	psect	bssBANK6,global,class=BANK6,space=1,delta=1,lowdata,noexec
    12                           	psect	cstackBANK5,global,class=BANK5,space=1,delta=1,lowdata,noexec
    13                           	psect	cstackCOMRAM,global,class=COMRAM,space=1,delta=1,lowdata,noexec
    14                           	psect	text0,global,reloc=2,class=CODE,delta=1
    15                           	psect	text1,global,reloc=2,class=CODE,delta=1,group=3
    16                           	psect	text2,global,reloc=2,class=CODE,delta=1,group=1
    17                           	psect	text3,global,reloc=2,class=CODE,delta=1,group=1
    18                           	psect	text4,global,reloc=2,class=CODE,delta=1,group=1
    19                           	psect	text5,global,reloc=2,class=CODE,delta=1,group=1
    20                           	psect	text6,global,reloc=2,class=CODE,delta=1,group=3
    21                           	psect	text7,global,reloc=2,class=CODE,delta=1,group=3
    22                           	psect	text8,global,reloc=2,class=CODE,delta=1,group=3
    23                           	psect	text9,global,reloc=2,class=CODE,delta=1
    24                           	psect	text10,global,reloc=2,class=CODE,delta=1
    25                           	psect	text11,global,reloc=2,class=CODE,delta=1,group=2
    26                           	psect	text12,global,reloc=2,class=CODE,delta=1,group=2
    27                           	psect	text13,global,reloc=2,class=CODE,delta=1
    28                           	psect	text14,global,reloc=2,class=CODE,delta=1
    29                           	psect	text15,global,reloc=2,class=CODE,delta=1
    30                           	psect	text16,global,reloc=2,class=CODE,delta=1
    31                           	psect	text17,global,reloc=2,class=CODE,delta=1
    32                           	psect	text18,global,reloc=2,class=CODE,delta=1
    33                           	psect	text19,global,reloc=2,class=CODE,delta=1
    34                           	psect	text20,global,reloc=2,class=CODE,delta=1
    35                           	psect	text21,global,reloc=2,class=CODE,delta=1
    36                           	psect	text22,global,reloc=2,class=CODE,delta=1
    37                           	psect	text23,global,reloc=2,class=CODE,delta=1
    38                           	psect	text24,global,reloc=2,class=CODE,delta=1
    39                           	psect	text25,global,reloc=2,class=CODE,delta=1
    40                           	psect	text26,global,reloc=2,class=CODE,delta=1
    41                           	psect	text27,global,reloc=2,class=CODE,delta=1
    42                           	psect	text28,global,reloc=2,class=CODE,delta=1
    43                           	psect	text29,global,reloc=2,class=CODE,delta=1,group=3
    44                           	psect	text30,global,reloc=2,class=CODE,delta=1,group=3
    45                           	psect	text31,global,reloc=2,class=CODE,delta=1,group=3
    46                           	psect	text32,global,reloc=2,class=CODE,delta=1,group=3
    47                           	psect	text33,global,reloc=2,class=CODE,delta=1,group=3
    48                           	psect	text34,global,reloc=2,class=CODE,delta=1,group=3
    49                           	psect	text35,global,reloc=2,class=CODE,delta=1,group=3
    50                           	psect	text36,global,reloc=2,class=CODE,delta=1,group=3
    51                           	psect	text37,global,reloc=2,class=CODE,delta=1,group=2
    52                           	psect	text38,global,reloc=2,class=CODE,delta=1,group=2
    53                           	psect	text39,global,reloc=2,class=CODE,delta=1,group=2
    54                           	psect	text40,global,reloc=2,class=CODE,delta=1,group=2
    55                           	psect	text41,global,reloc=2,class=CODE,delta=1,group=2
    56                           	psect	text42,global,reloc=2,class=CODE,delta=1,group=2
    57                           	psect	text43,global,reloc=2,class=CODE,delta=1,group=2
    58                           	psect	text44,global,reloc=2,class=CODE,delta=1,group=2
    59                           	psect	text45,global,reloc=2,class=CODE,delta=1,group=2
    60                           	psect	text46,global,reloc=2,class=CODE,delta=1
    61                           	psect	text47,global,reloc=2,class=CODE,delta=1
    62                           	psect	text48,global,reloc=2,class=CODE,delta=1
    63                           	psect	text49,global,reloc=2,class=CODE,delta=1
    64                           	psect	text50,global,reloc=2,class=CODE,delta=1
    65                           	psect	text51,global,reloc=2,class=CODE,delta=1
    66                           	psect	ivt0x8,global,reloc=2,class=CODE,delta=1,noexec,keep,optim=
    67                           	psect	intsave_regs,global,class=BIGRAM,space=1,delta=1,noexec
    68                           	psect	text52,global,reloc=2,class=CODE,delta=1
    69                           	psect	rparam,global,class=COMRAM,space=1,delta=1,noexec
    70                           	psect	idloc,global,abs,ovrld,class=IDLOC,space=5,delta=1,noexec
    71                           	psect	config,global,abs,ovrld,class=CONFIG,space=4,delta=1,noexec
    72  0000                     
    73                           ; Version 2.32
    74                           ; Generated 10/02/2021 GMT
    75                           ; 
    76                           ; Copyright © 2021, Microchip Technology Inc. and its subsidiaries ("Microchip")
    77                           ; All rights reserved.
    78                           ; 
    79                           ; This software is developed by Microchip Technology Inc. and its subsidiaries ("Microch
      +                          ip").
    80                           ; 
    81                           ; Redistribution and use in source and binary forms, with or without modification, are
    82                           ; permitted provided that the following conditions are met:
    83                           ; 
    84                           ;     1. Redistributions of source code must retain the above copyright notice, this lis
      +                          t of
    85                           ;        conditions and the following disclaimer.
    86                           ; 
    87                           ;     2. Redistributions in binary form must reproduce the above copyright notice, this 
      +                          list
    88                           ;        of conditions and the following disclaimer in the documentation and/or other
    89                           ;        materials provided with the distribution. Publication is not required when
    90                           ;        this file is used in an embedded application.
    91                           ; 
    92                           ;     3. Microchip's name may not be used to endorse or promote products derived from th
      +                          is
    93                           ;        software without specific prior written permission.
    94                           ; 
    95                           ; THIS SOFTWARE IS PROVIDED BY MICROCHIP "AS IS" AND ANY EXPRESS OR IMPLIED WARRANTIES,
    96                           ; INCLUDING, BUT NOT LIMITED TO, THE IMPLIED WARRANTIES OF MERCHANTABILITY AND FITNESS F
      +                          OR
    97                           ; PURPOSE ARE DISCLAIMED.  IN NO EVENT SHALL MICROCHIP BE LIABLE FOR ANY DIRECT, INDIREC
      +                          T,
    98                           ; INCIDENTAL, SPECIAL, EXEMPLARY, OR CONSEQUENTIAL DAMAGES (INCLUDING BUT NOT LIMITED TO
    99                           ; PROCUREMENT OF SUBSTITUTE GOODS OR SERVICES; LOSS OF USE, DATA OR PROFITS; OR BUSINESS
   100                           ; INTERRUPTION) HOWSOEVER CAUSED AND ON ANY THEORY OF LIABILITY, WHETHER IN CONTRACT, ST
      +                          RICT
   101                           ; LIABILITY, OR TORT (INCLUDING NEGLIGENCE OR OTHERWISE) ARISING IN ANY WAY OUT OF THE U
      +                          SE OF
   102                           ; THIS SOFTWARE, EVEN IF ADVISED OF THE POSSIBILITY OF SUCH DAMAGE.
   103                           ; 
   104                           ; 
   105                           ; Code-generator required, PIC18F57Q43 Definitions
   106                           ; 
   107                           ; SFR Addresses
   108  0000                     
   109                           	psect	nvCOMRAM
   110  000559                     __pnvCOMRAM:
   111                           	callstack 0
   112  000559                     _UART1_RxInterruptHandler:
   113                           	callstack 0
   114  000559                     	ds	3
   115                           
   116                           	psect	nvBANK5
   117  0005DB                     __pnvBANK5:
   118                           	callstack 0
   119  0005DB                     _UART1_ErrorHandler:
   120                           	callstack 0
   121  0005DB                     	ds	3
   122  0005DE                     _UART1_OverrunErrorHandler:
   123                           	callstack 0
   124  0005DE                     	ds	3
   125  0005E1                     _UART1_FramingErrorHandler:
   126                           	callstack 0
   127  0005E1                     	ds	3
   128  0000                     _PMD8	set	104
   129  0000                     _PMD7	set	103
   130  0000                     _PMD6	set	102
   131  0000                     _PMD5	set	101
   132  0000                     _PMD4	set	100
   133  0000                     _PMD3	set	99
   134  0000                     _PMD1	set	97
   135  0000                     _PMD0	set	96
   136  0000                     _ACTCON	set	172
   137  0000                     _OSCTUNE	set	176
   138  0000                     _OSCFRQ	set	177
   139  0000                     _OSCEN	set	179
   140  0000                     _OSCCON3	set	175
   141  0000                     _OSCCON1	set	173
   142  0000                     _U1RXB	set	673
   143  0000                     _U1TXB	set	675
   144  0000                     _U1ERRIRbits	set	690
   145  0000                     _U1CON0bits	set	683
   146  0000                     _U1ERRIE	set	691
   147  0000                     _U1ERRIR	set	690
   148  0000                     _U1UIR	set	689
   149  0000                     _U1FIFO	set	688
   150  0000                     _U1BRGH	set	687
   151  0000                     _U1BRGL	set	686
   152  0000                     _U1CON2	set	685
   153  0000                     _U1CON1	set	684
   154  0000                     _U1CON0	set	683
   155  0000                     _U1P3H	set	682
   156  0000                     _U1P3L	set	681
   157  0000                     _U1P2H	set	680
   158  0000                     _U1P2L	set	679
   159  0000                     _U1P1H	set	678
   160  0000                     _U1P1L	set	677
   161  0000                     _U1RXPPS	set	626
   162  0000                     _RF0PPS	set	553
   163  0000                     _RF7PPS	set	560
   164  0000                     _RC4I2C	set	646
   165  0000                     _RC3I2C	set	647
   166  0000                     _RB2I2C	set	648
   167  0000                     _RB1I2C	set	649
   168  0000                     _ADCON1bits	set	1012
   169  0000                     _ADERRL	set	989
   170  0000                     _ADERRH	set	990
   171  0000                     _ADPREVL	set	1000
   172  0000                     _ADPREVH	set	1001
   173  0000                     _ADFLTRL	set	993
   174  0000                     _ADFLTRH	set	994
   175  0000                     _ADSTATbits	set	1015
   176  0000                     _ADACCL	set	995
   177  0000                     _ADACCH	set	996
   178  0000                     _ADCON2bits	set	1013
   179  0000                     _ADCNT	set	998
   180  0000                     _ADCON3bits	set	1014
   181  0000                     _ADRESL	set	1002
   182  0000                     _ADRESH	set	1003
   183  0000                     _ADCON0	set	1011
   184  0000                     _ADCLK	set	1018
   185  0000                     _ADACT	set	1017
   186  0000                     _ADREF	set	1016
   187  0000                     _ADSTAT	set	1015
   188  0000                     _ADCON3	set	1014
   189  0000                     _ADCON2	set	1013
   190  0000                     _ADCON1	set	1012
   191  0000                     _ADPREH	set	1010
   192  0000                     _ADPREL	set	1009
   193  0000                     _ADCAP	set	1008
   194  0000                     _ADACQH	set	1007
   195  0000                     _ADACQL	set	1006
   196  0000                     _ADPCH	set	1004
   197  0000                     _ADRPT	set	999
   198  0000                     _ADACCU	set	997
   199  0000                     _ADSTPTH	set	992
   200  0000                     _ADSTPTL	set	991
   201  0000                     _ADUTHH	set	988
   202  0000                     _ADUTHL	set	987
   203  0000                     _ADLTHH	set	986
   204  0000                     _ADLTHL	set	985
   205  0000                     _PR2	set	803
   206  0000                     _TMR2	set	802
   207  0000                     _T2CONbits	set	804
   208  0000                     _T2RSTbits	set	807
   209  0000                     _T2HLTbits	set	805
   210  0000                     _T2CON	set	804
   211  0000                     _T2TMR	set	802
   212  0000                     _T2PR	set	803
   213  0000                     _T2RST	set	807
   214  0000                     _T2HLT	set	805
   215  0000                     _T2CLKCON	set	806
   216  0000                     _CCP1CONbits	set	834
   217  0000                     _CCPTMRS0bits	set	844
   218  0000                     _CCPR1L	set	832
   219  0000                     _CCPR1H	set	833
   220  0000                     _CCP1CON	set	834
   221  0000                     _ADCON0bits	set	1011
   222  0000                     _INLVLF	set	1068
   223  0000                     _INLVLE	set	1060
   224  0000                     _INLVLD	set	1052
   225  0000                     _INLVLC	set	1044
   226  0000                     _INLVLB	set	1036
   227  0000                     _INLVLA	set	1028
   228  0000                     _SLRCONF	set	1067
   229  0000                     _SLRCONE	set	1059
   230  0000                     _SLRCOND	set	1051
   231  0000                     _SLRCONC	set	1043
   232  0000                     _SLRCONB	set	1035
   233  0000                     _SLRCONA	set	1027
   234  0000                     _ODCOND	set	1050
   235  0000                     _ODCONC	set	1042
   236  0000                     _ODCONB	set	1034
   237  0000                     _ODCONA	set	1026
   238  0000                     _ODCONF	set	1066
   239  0000                     _ODCONE	set	1058
   240  0000                     _WPUC	set	1041
   241  0000                     _WPUA	set	1025
   242  0000                     _WPUB	set	1033
   243  0000                     _WPUE	set	1057
   244  0000                     _WPUF	set	1065
   245  0000                     _WPUD	set	1049
   246  0000                     _ANSELA	set	1024
   247  0000                     _ANSELF	set	1064
   248  0000                     _ANSELE	set	1056
   249  0000                     _ANSELB	set	1032
   250  0000                     _ANSELC	set	1040
   251  0000                     _ANSELD	set	1048
   252  0000                     _PIR3bits	set	1201
   253  0000                     _LATFbits	set	1219
   254  0000                     _PIR4bits	set	1202
   255  0000                     _PIE4bits	set	1186
   256  0000                     _INTCON0bits	set	1238
   257  0000                     _TRISD	set	1225
   258  0000                     _TRISC	set	1224
   259  0000                     _TRISB	set	1223
   260  0000                     _TRISA	set	1222
   261  0000                     _TRISF	set	1227
   262  0000                     _TRISE	set	1226
   263  0000                     _LATC	set	1216
   264  0000                     _LATB	set	1215
   265  0000                     _LATF	set	1219
   266  0000                     _LATA	set	1214
   267  0000                     _LATD	set	1217
   268  0000                     _LATE	set	1218
   269                           
   270                           	psect	smallconst
   271  002600                     __psmallconst:
   272                           	callstack 0
   273  002600  00                 	db	0
   274  002601                     STR_3:
   275                           
   276                           ; BSR set to: 3
   277  002601  49                 	db	73	;'I'
   278  002602  4E                 	db	78	;'N'
   279  002603  46                 	db	70	;'F'
   280  002604  49                 	db	73	;'I'
   281  002605  4E                 	db	78	;'N'
   282  002606  49                 	db	73	;'I'
   283  002607  54                 	db	84	;'T'
   284  002608  59                 	db	89	;'Y'
   285  002609  00                 	db	0
   286  00260A                     STR_2:
   287                           
   288                           ; BSR set to: 3
   289  00260A  69                 	db	105	;'i'
   290  00260B  6E                 	db	110	;'n'
   291  00260C  66                 	db	102	;'f'
   292  00260D  69                 	db	105	;'i'
   293  00260E  6E                 	db	110	;'n'
   294  00260F  69                 	db	105	;'i'
   295  002610  74                 	db	116	;'t'
   296  002611  79                 	db	121	;'y'
   297  002612  00                 	db	0
   298  002613                     STR_8:
   299                           
   300                           ; BSR set to: 3
   301  002613  4E                 	db	78	;'N'
   302  002614  41                 	db	65	;'A'
   303  002615  4E                 	db	78	;'N'
   304  002616  00                 	db	0
   305  002617                     STR_4:
   306                           
   307                           ; BSR set to: 3
   308  002617  69                 	db	105	;'i'
   309  002618  6E                 	db	110	;'n'
   310  002619  66                 	db	102	;'f'
   311  00261A  00                 	db	0
   312  00261B                     STR_7:
   313                           
   314                           ; BSR set to: 3
   315  00261B  6E                 	db	110	;'n'
   316  00261C  61                 	db	97	;'a'
   317  00261D  6E                 	db	110	;'n'
   318  00261E  00                 	db	0
   319  00261F                     STR_1:
   320                           
   321                           ; BSR set to: 3
   322  00261F  25                 	db	37
   323  002620  75                 	db	117	;'u'
   324  002621  00                 	db	0
   325  002622  00                 	db	0	; dummy byte at the end
   326  0000                     
   327                           ; #config settings
   328                           
   329                           	psect	cinit
   330  0051D2                     __pcinit:
   331                           	callstack 0
   332  0051D2                     start_initialization:
   333                           	callstack 0
   334  0051D2                     __initialization:
   335                           	callstack 0
   336                           
   337                           ; Clear objects allocated to BANK6 (132 bytes)
   338  0051D2  EE01  F200         	lfsr	0,__pbssBANK6
   339  0051D6  0E84               	movlw	132
   340  0051D8                     clear_0:
   341  0051D8  6AEE               	clrf	postinc0,c
   342  0051DA  06E8               	decf	wreg,f,c
   343  0051DC  E1FD               	bnz	clear_0
   344                           
   345                           ; Clear objects allocated to BANK5 (26 bytes)
   346  0051DE  EE01  F1C1         	lfsr	0,__pbssBANK5
   347  0051E2  0E1A               	movlw	26
   348  0051E4                     clear_1:
   349  0051E4  6AEE               	clrf	postinc0,c
   350  0051E6  06E8               	decf	wreg,f,c
   351  0051E8  E1FD               	bnz	clear_1
   352                           
   353                           ; Clear objects allocated to COMRAM (7 bytes)
   354  0051EA  EE01  F152         	lfsr	0,__pbssCOMRAM
   355  0051EE  0E07               	movlw	7
   356  0051F0                     clear_2:
   357  0051F0  6AEE               	clrf	postinc0,c
   358  0051F2  06E8               	decf	wreg,f,c
   359  0051F4  E1FD               	bnz	clear_2
   360                           
   361                           ;
   362                           ; Setup IVTBASE
   363                           ;
   364  0051F6  0104               	movlb	4
   365  0051F8  0E08               	movlw	(ivt0x8_base shr 0)& (0+255)
   366  0051FA  6F5D               	movwf	93,b
   367  0051FC  0E00               	movlw	(ivt0x8_base shr (0+8))& (0+255)
   368  0051FE  6F5E               	movwf	94,b
   369  005200  0E00               	movlw	(ivt0x8_base shr (0+16))& (0+255)
   370  005202  6F5F               	movwf	95,b
   371  005204                     end_of_initialization:
   372                           	callstack 0
   373  005204                     __end_of__initialization:
   374                           	callstack 0
   375  005204  0100               	movlb	0
   376  005206  EFF0  F027         	goto	_main	;jump to C main() function
   377                           
   378                           	psect	bssCOMRAM
   379  000552                     __pbssCOMRAM:
   380                           	callstack 0
   381  000552                     _duty_cicle:
   382                           	callstack 0
   383  000552                     	ds	2
   384  000554                     _i:
   385                           	callstack 0
   386  000554                     	ds	2
   387  000556                     _dato_Rx:
   388                           	callstack 0
   389  000556                     	ds	1
   390  000557                     _uart1RxCount:
   391                           	callstack 0
   392  000557                     	ds	1
   393  000558                     _uart1RxTail:
   394                           	callstack 0
   395  000558                     	ds	1
   396                           
   397                           	psect	bssBANK5
   398  0005C1                     __pbssBANK5:
   399                           	callstack 0
   400  0005C1                     _uart1RxStatusBuffer:
   401                           	callstack 0
   402  0005C1                     	ds	8
   403  0005C9                     _uart1RxBuffer:
   404                           	callstack 0
   405  0005C9                     	ds	8
   406  0005D1                     _nout:
   407                           	callstack 0
   408  0005D1                     	ds	2
   409  0005D3                     _width:
   410                           	callstack 0
   411  0005D3                     	ds	2
   412  0005D5                     _prec:
   413                           	callstack 0
   414  0005D5                     	ds	2
   415  0005D7                     _flags:
   416                           	callstack 0
   417  0005D7                     	ds	2
   418  0005D9                     _uart1RxLastError:
   419                           	callstack 0
   420  0005D9                     	ds	1
   421  0005DA                     _uart1RxHead:
   422                           	callstack 0
   423  0005DA                     	ds	1
   424                           
   425                           	psect	bssBANK6
   426  000600                     __pbssBANK6:
   427                           	callstack 0
   428  000600                     _buffer_rx:
   429                           	callstack 0
   430  000600                     	ds	100
   431  000664                     _dbuf:
   432                           	callstack 0
   433  000664                     	ds	32
   434                           
   435                           	psect	cstackBANK5
   436  000560                     __pcstackBANK5:
   437                           	callstack 0
   438  000560                     ?_ADCC_GetConversionResult:
   439                           	callstack 0
   440  000560                     ?_strlen:
   441                           	callstack 0
   442  000560                     ?___lodiv:
   443                           	callstack 0
   444  000560                     ?___lomod:
   445                           	callstack 0
   446  000560                     UART1_Write@txData:
   447                           	callstack 0
   448  000560                     ADCC_StartConversion@channel:
   449                           	callstack 0
   450  000560                     strlen@s:
   451                           	callstack 0
   452  000560                     UART1_SetFramingErrorHandler@interruptHandler:
   453                           	callstack 0
   454  000560                     UART1_SetOverrunErrorHandler@interruptHandler:
   455                           	callstack 0
   456  000560                     UART1_SetErrorHandler@interruptHandler:
   457                           	callstack 0
   458  000560                     UART1_SetRxInterruptHandler@InterruptHandler:
   459                           	callstack 0
   460  000560                     ___lodiv@dividend:
   461                           	callstack 0
   462  000560                     ___lomod@dividend:
   463                           	callstack 0
   464                           
   465                           ; 8 bytes @ 0x0
   466  000560                     	ds	1
   467  000561                     putch@txData:
   468                           	callstack 0
   469                           
   470                           ; 1 bytes @ 0x1
   471  000561                     	ds	1
   472  000562                     ??_ADCC_GetConversionResult:
   473  000562                     fputc@c:
   474                           	callstack 0
   475  000562                     strlen@a:
   476                           	callstack 0
   477                           
   478                           ; 2 bytes @ 0x2
   479  000562                     	ds	1
   480  000563                     
   481                           ; 1 bytes @ 0x3
   482  000563                     	ds	1
   483  000564                     fputc@fp:
   484                           	callstack 0
   485                           
   486                           ; 2 bytes @ 0x4
   487  000564                     	ds	2
   488  000566                     ??_fputc:
   489                           
   490                           ; 1 bytes @ 0x6
   491  000566                     	ds	2
   492  000568                     ___lodiv@divisor:
   493                           	callstack 0
   494  000568                     ___lomod@divisor:
   495                           	callstack 0
   496                           
   497                           ; 8 bytes @ 0x8
   498  000568                     	ds	3
   499  00056B                     fputs@s:
   500                           	callstack 0
   501                           
   502                           ; 2 bytes @ 0xB
   503  00056B                     	ds	2
   504  00056D                     fputs@fp:
   505                           	callstack 0
   506                           
   507                           ; 2 bytes @ 0xD
   508  00056D                     	ds	2
   509  00056F                     fputs@c:
   510                           	callstack 0
   511                           
   512                           ; 1 bytes @ 0xF
   513  00056F                     	ds	1
   514  000570                     ___lomod@counter:
   515                           	callstack 0
   516  000570                     fputs@i:
   517                           	callstack 0
   518  000570                     ___lodiv@quotient:
   519                           	callstack 0
   520                           
   521                           ; 8 bytes @ 0x10
   522  000570                     	ds	2
   523  000572                     ?_pad:
   524                           	callstack 0
   525  000572                     pad@fp:
   526                           	callstack 0
   527                           
   528                           ; 2 bytes @ 0x12
   529  000572                     	ds	2
   530  000574                     pad@buf:
   531                           	callstack 0
   532                           
   533                           ; 2 bytes @ 0x14
   534  000574                     	ds	2
   535  000576                     pad@p:
   536                           	callstack 0
   537                           
   538                           ; 2 bytes @ 0x16
   539  000576                     	ds	2
   540  000578                     ??_pad:
   541  000578                     ___lodiv@counter:
   542                           	callstack 0
   543                           
   544                           ; 1 bytes @ 0x18
   545  000578                     	ds	1
   546  000579                     pad@i:
   547                           	callstack 0
   548                           
   549                           ; 2 bytes @ 0x19
   550  000579                     	ds	2
   551  00057B                     pad@w:
   552                           	callstack 0
   553                           
   554                           ; 2 bytes @ 0x1B
   555  00057B                     	ds	2
   556  00057D                     ?_utoa:
   557                           	callstack 0
   558  00057D                     utoa@fp:
   559                           	callstack 0
   560                           
   561                           ; 2 bytes @ 0x1D
   562  00057D                     	ds	2
   563  00057F                     utoa@d:
   564                           	callstack 0
   565                           
   566                           ; 8 bytes @ 0x1F
   567  00057F                     	ds	8
   568  000587                     ??_utoa:
   569                           
   570                           ; 1 bytes @ 0x27
   571  000587                     	ds	8
   572  00058F                     utoa@p:
   573                           	callstack 0
   574                           
   575                           ; 2 bytes @ 0x2F
   576  00058F                     	ds	2
   577  000591                     utoa@w:
   578                           	callstack 0
   579                           
   580                           ; 2 bytes @ 0x31
   581  000591                     	ds	2
   582  000593                     utoa@n:
   583                           	callstack 0
   584                           
   585                           ; 8 bytes @ 0x33
   586  000593                     	ds	8
   587  00059B                     utoa@i:
   588                           	callstack 0
   589                           
   590                           ; 2 bytes @ 0x3B
   591  00059B                     	ds	2
   592  00059D                     ?_vfpfcnvrt:
   593                           	callstack 0
   594  00059D                     vfpfcnvrt@fp:
   595                           	callstack 0
   596                           
   597                           ; 2 bytes @ 0x3D
   598  00059D                     	ds	2
   599  00059F                     vfpfcnvrt@fmt:
   600                           	callstack 0
   601                           
   602                           ; 2 bytes @ 0x3F
   603  00059F                     	ds	2
   604  0005A1                     vfpfcnvrt@ap:
   605                           	callstack 0
   606                           
   607                           ; 2 bytes @ 0x41
   608  0005A1                     	ds	2
   609  0005A3                     ??_vfpfcnvrt:
   610                           
   611                           ; 1 bytes @ 0x43
   612  0005A3                     	ds	4
   613  0005A7                     vfpfcnvrt@llu:
   614                           	callstack 0
   615                           
   616                           ; 8 bytes @ 0x47
   617  0005A7                     	ds	8
   618  0005AF                     ?_vfprintf:
   619                           	callstack 0
   620  0005AF                     vfprintf@fp:
   621                           	callstack 0
   622                           
   623                           ; 2 bytes @ 0x4F
   624  0005AF                     	ds	2
   625  0005B1                     vfprintf@fmt:
   626                           	callstack 0
   627                           
   628                           ; 2 bytes @ 0x51
   629  0005B1                     	ds	2
   630  0005B3                     vfprintf@ap:
   631                           	callstack 0
   632                           
   633                           ; 2 bytes @ 0x53
   634  0005B3                     	ds	2
   635  0005B5                     vfprintf@cfmt:
   636                           	callstack 0
   637                           
   638                           ; 2 bytes @ 0x55
   639  0005B5                     	ds	2
   640  0005B7                     ?_printf:
   641                           	callstack 0
   642  0005B7                     printf@fmt:
   643                           	callstack 0
   644                           
   645                           ; 2 bytes @ 0x57
   646  0005B7                     	ds	4
   647  0005BB                     printf@ap:
   648                           	callstack 0
   649                           
   650                           ; 2 bytes @ 0x5B
   651  0005BB                     	ds	2
   652  0005BD                     ??_main:
   653                           
   654                           ; 1 bytes @ 0x5D
   655  0005BD                     	ds	2
   656  0005BF                     main@dato:
   657                           	callstack 0
   658                           
   659                           ; 2 bytes @ 0x5F
   660  0005BF                     	ds	2
   661                           
   662                           	psect	cstackCOMRAM
   663  000501                     __pcstackCOMRAM:
   664                           	callstack 0
   665  000501                     ?_isspace:
   666                           	callstack 0
   667  000501                     ?_isxdigit:
   668                           	callstack 0
   669  000501                     ?_isdigit:
   670                           	callstack 0
   671  000501                     ?_islower:
   672                           	callstack 0
   673  000501                     ?___wmul:
   674                           	callstack 0
   675  000501                     ?___fldiv:
   676                           	callstack 0
   677  000501                     ?___flmul:
   678                           	callstack 0
   679  000501                     ?_nanf:
   680                           	callstack 0
   681  000501                     ?___lmul:
   682                           	callstack 0
   683  000501                     ?___flneg:
   684                           	callstack 0
   685  000501                     ?___xxtofl:
   686                           	callstack 0
   687  000501                     PWM1_LoadDutyValue@dutyValue:
   688                           	callstack 0
   689  000501                     ___wmul@multiplier:
   690                           	callstack 0
   691  000501                     isdigit@c:
   692                           	callstack 0
   693  000501                     isspace@c:
   694                           	callstack 0
   695  000501                     isxdigit@c:
   696                           	callstack 0
   697  000501                     nanf@s:
   698                           	callstack 0
   699  000501                     islower@c:
   700                           	callstack 0
   701  000501                     ___lmul@multiplier:
   702                           	callstack 0
   703  000501                     ___fleq@ff1:
   704                           	callstack 0
   705  000501                     ___flge@ff1:
   706                           	callstack 0
   707  000501                     ___flneg@f1:
   708                           	callstack 0
   709  000501                     ___fldiv@b:
   710                           	callstack 0
   711  000501                     ___flmul@b:
   712                           	callstack 0
   713  000501                     ___xxtofl@val:
   714                           	callstack 0
   715                           
   716                           ; 4 bytes @ 0x0
   717  000501                     	ds	2
   718  000503                     ??_isspace:
   719  000503                     ??_isxdigit:
   720  000503                     ??_isdigit:
   721  000503                     ??_islower:
   722  000503                     ___wmul@multiplicand:
   723                           	callstack 0
   724                           
   725                           ; 2 bytes @ 0x2
   726  000503                     	ds	2
   727  000505                     ??___xxtofl:
   728  000505                     ___wmul@product:
   729                           	callstack 0
   730  000505                     ___lmul@multiplicand:
   731                           	callstack 0
   732  000505                     ___fleq@ff2:
   733                           	callstack 0
   734  000505                     ___flge@ff2:
   735                           	callstack 0
   736  000505                     ___fldiv@a:
   737                           	callstack 0
   738  000505                     ___flmul@a:
   739                           	callstack 0
   740  000505                     nanf@u:
   741                           	callstack 0
   742                           
   743                           ; 4 bytes @ 0x4
   744  000505                     	ds	2
   745  000507                     ?_toupper:
   746                           	callstack 0
   747  000507                     _isspace$1989:
   748                           	callstack 0
   749  000507                     _isxdigit$2000:
   750                           	callstack 0
   751  000507                     toupper@c:
   752                           	callstack 0
   753                           
   754                           ; 2 bytes @ 0x6
   755  000507                     	ds	2
   756  000509                     ??___fldiv:
   757  000509                     ??___flmul:
   758  000509                     ??_toupper:
   759  000509                     ??___fleq:
   760  000509                     ??___flge:
   761  000509                     ___xxtofl@sign:
   762                           	callstack 0
   763  000509                     ___lmul@product:
   764                           	callstack 0
   765                           
   766                           ; 4 bytes @ 0x8
   767  000509                     	ds	1
   768  00050A                     ___xxtofl@exp:
   769                           	callstack 0
   770                           
   771                           ; 1 bytes @ 0x9
   772  00050A                     	ds	1
   773  00050B                     ___xxtofl@arg:
   774                           	callstack 0
   775                           
   776                           ; 4 bytes @ 0xA
   777  00050B                     	ds	2
   778  00050D                     ___flmul@sign:
   779                           	callstack 0
   780  00050D                     _toupper$2023:
   781                           	callstack 0
   782  00050D                     ___fldiv@rem:
   783                           	callstack 0
   784                           
   785                           ; 4 bytes @ 0xC
   786  00050D                     	ds	1
   787  00050E                     ___flmul@grs:
   788                           	callstack 0
   789                           
   790                           ; 4 bytes @ 0xD
   791  00050E                     	ds	3
   792  000511                     ___fldiv@sign:
   793                           	callstack 0
   794                           
   795                           ; 1 bytes @ 0x10
   796  000511                     	ds	1
   797  000512                     ___flmul@aexp:
   798                           	callstack 0
   799  000512                     ___fldiv@new_exp:
   800                           	callstack 0
   801                           
   802                           ; 2 bytes @ 0x11
   803  000512                     	ds	1
   804  000513                     ___flmul@bexp:
   805                           	callstack 0
   806                           
   807                           ; 1 bytes @ 0x12
   808  000513                     	ds	1
   809  000514                     ___fldiv@grs:
   810                           	callstack 0
   811  000514                     ___flmul@prod:
   812                           	callstack 0
   813                           
   814                           ; 4 bytes @ 0x13
   815  000514                     	ds	4
   816  000518                     ___fldiv@bexp:
   817                           	callstack 0
   818  000518                     ___flmul@temp:
   819                           	callstack 0
   820                           
   821                           ; 2 bytes @ 0x17
   822  000518                     	ds	1
   823  000519                     ___fldiv@aexp:
   824                           	callstack 0
   825                           
   826                           ; 1 bytes @ 0x18
   827  000519                     	ds	1
   828  00051A                     ?_strtof:
   829                           	callstack 0
   830  00051A                     strtof@s:
   831                           	callstack 0
   832                           
   833                           ; 2 bytes @ 0x19
   834  00051A                     	ds	2
   835  00051C                     strtof@res:
   836                           	callstack 0
   837                           
   838                           ; 2 bytes @ 0x1B
   839  00051C                     	ds	2
   840  00051E                     ??_strtof:
   841                           
   842                           ; 1 bytes @ 0x1D
   843  00051E                     	ds	6
   844  000524                     _strtof$1943:
   845                           	callstack 0
   846                           
   847                           ; 2 bytes @ 0x23
   848  000524                     	ds	2
   849  000526                     _strtof$1954:
   850                           	callstack 0
   851                           
   852                           ; 2 bytes @ 0x25
   853  000526                     	ds	2
   854  000528                     _strtof$1955:
   855                           	callstack 0
   856                           
   857                           ; 2 bytes @ 0x27
   858  000528                     	ds	2
   859  00052A                     _strtof$1956:
   860                           	callstack 0
   861                           
   862                           ; 2 bytes @ 0x29
   863  00052A                     	ds	2
   864  00052C                     _strtof$1957:
   865                           	callstack 0
   866                           
   867                           ; 2 bytes @ 0x2B
   868  00052C                     	ds	2
   869  00052E                     _strtof$1958:
   870                           	callstack 0
   871                           
   872                           ; 2 bytes @ 0x2D
   873  00052E                     	ds	2
   874  000530                     _strtof$1959:
   875                           	callstack 0
   876                           
   877                           ; 2 bytes @ 0x2F
   878  000530                     	ds	2
   879  000532                     _strtof$1960:
   880                           	callstack 0
   881                           
   882                           ; 2 bytes @ 0x31
   883  000532                     	ds	2
   884  000534                     _strtof$1944:
   885                           	callstack 0
   886                           
   887                           ; 1 bytes @ 0x33
   888  000534                     	ds	1
   889  000535                     strtof@digit:
   890                           	callstack 0
   891                           
   892                           ; 1 bytes @ 0x34
   893  000535                     	ds	1
   894  000536                     strtof@flags:
   895                           	callstack 0
   896                           
   897                           ; 1 bytes @ 0x35
   898  000536                     	ds	1
   899  000537                     strtof@expon:
   900                           	callstack 0
   901                           
   902                           ; 2 bytes @ 0x36
   903  000537                     	ds	2
   904  000539                     strtof@eexp:
   905                           	callstack 0
   906                           
   907                           ; 2 bytes @ 0x38
   908  000539                     	ds	2
   909  00053B                     strtof@_u:
   910                           	callstack 0
   911                           
   912                           ; 4 bytes @ 0x3A
   913  00053B                     	ds	4
   914  00053F                     strtof@i:
   915                           	callstack 0
   916                           
   917                           ; 1 bytes @ 0x3E
   918  00053F                     	ds	1
   919  000540                     ?_atof:
   920                           	callstack 0
   921  000540                     atof@s:
   922                           	callstack 0
   923                           
   924                           ; 2 bytes @ 0x3F
   925  000540                     	ds	4
   926  000544                     ?___fltol:
   927                           	callstack 0
   928  000544                     ___fltol@f1:
   929                           	callstack 0
   930                           
   931                           ; 4 bytes @ 0x43
   932  000544                     	ds	4
   933  000548                     ??___fltol:
   934                           
   935                           ; 1 bytes @ 0x47
   936  000548                     	ds	4
   937  00054C                     ___fltol@sign1:
   938                           	callstack 0
   939                           
   940                           ; 1 bytes @ 0x4B
   941  00054C                     	ds	1
   942  00054D                     ___fltol@exp1:
   943                           	callstack 0
   944                           
   945                           ; 1 bytes @ 0x4C
   946  00054D                     	ds	1
   947  00054E                     ??_INTERRUPT_InterruptManager:
   948                           
   949                           ; 1 bytes @ 0x4D
   950  00054E                     	ds	4
   951                           
   952 ;;
   953 ;;Main: autosize = 0, tempsize = 2, incstack = 0, save=0
   954 ;;
   955 ;; *************** function _main *****************
   956 ;; Defined at:
   957 ;;		line 49 in file "main.c"
   958 ;; Parameters:    Size  Location     Type
   959 ;;		None
   960 ;; Auto vars:     Size  Location     Type
   961 ;;  dato            2   95[BANK5 ] unsigned short 
   962 ;; Return value:  Size  Location     Type
   963 ;;                  1    wreg      void 
   964 ;; Registers used:
   965 ;;		wreg, fsr1l, fsr1h, fsr2l, fsr2h, status,2, status,0, tblptrl, tblptrh, tblptru, cstack
   966 ;; Tracked objects:
   967 ;;		On entry : 0/0
   968 ;;		On exit  : 0/0
   969 ;;		Unchanged: 0/0
   970 ;; Data sizes:     COMRAM   BANK5   BANK6   BANK7   BANK8   BANK9  BANK10  BANK11  BANK12  BANK13  BANK14  BANK15  BANK1
      +6  BANK17  BANK18  BANK19  BANK20  BANK21  BANK22  BANK23  BANK24  BANK25  BANK26  BANK27  BANK28  BANK29  BANK30  BANK3
      +1  BANK32  BANK33  BANK34  BANK35  BANK36  BANK37
   971 ;;      Params:         0       0       0       0       0       0       0       0       0       0       0       0       
      +0       0       0       0       0       0       0       0       0       0       0       0       0       0       0       
      +0       0       0       0       0       0       0
   972 ;;      Locals:         0       2       0       0       0       0       0       0       0       0       0       0       
      +0       0       0       0       0       0       0       0       0       0       0       0       0       0       0       
      +0       0       0       0       0       0       0
   973 ;;      Temps:          0       2       0       0       0       0       0       0       0       0       0       0       
      +0       0       0       0       0       0       0       0       0       0       0       0       0       0       0       
      +0       0       0       0       0       0       0
   974 ;;      Totals:         0       4       0       0       0       0       0       0       0       0       0       0       
      +0       0       0       0       0       0       0       0       0       0       0       0       0       0       0       
      +0       0       0       0       0       0       0
   975 ;;Total ram usage:        4 bytes
   976 ;; Hardware stack levels required when called: 14
   977 ;; This function calls:
   978 ;;		_ADCC_GetConversionResult
   979 ;;		_ADCC_StartConversion
   980 ;;		_SYSTEM_Initialize
   981 ;;		_printf
   982 ;; This function is called by:
   983 ;;		Startup code after reset
   984 ;; This function uses a non-reentrant model
   985 ;;
   986                           
   987                           	psect	text0
   988  004FE0                     __ptext0:
   989                           	callstack 0
   990  004FE0                     _main:
   991                           	callstack 114
   992  004FE0                     
   993                           ;main.c: 52:     SYSTEM_Initialize();
   994  004FE0  ECD6  F029         	call	_SYSTEM_Initialize	;wreg free
   995  004FE4                     
   996                           ;main.c: 59:     (INTCON0bits.GIE = 1);
   997  004FE4  8ED6               	bsf	214,7,c	;volatile
   998  004FE6                     l4392:
   999                           
  1000                           ;main.c: 65:     {;main.c: 67:         ADCC_StartConversion(Potenciometro);
  1001  004FE6  0E22               	movlw	34
  1002  004FE8  EC3D  F02A         	call	_ADCC_StartConversion
  1003  004FEC                     l126:
  1004  004FEC  0103               	movlb	3	; () banked
  1005  004FEE  B1F3               	btfsc	243,0,b	;volatile
  1006  004FF0  EFFC  F027         	goto	u4671
  1007  004FF4  EFFE  F027         	goto	u4670
  1008  004FF8                     u4671:
  1009  004FF8  EFF6  F027         	goto	l126
  1010  004FFC                     u4670:
  1011  004FFC                     
  1012                           ; BSR set to: 3
  1013                           ;main.c: 69:         dato = ADCC_GetConversionResult();
  1014  004FFC  ECF8  F029         	call	_ADCC_GetConversionResult	;wreg free
  1015  005000  C560  F5BF         	movff	?_ADCC_GetConversionResult,main@dato
  1016  005004  C561  F5C0         	movff	?_ADCC_GetConversionResult+1,main@dato+1
  1017  005008                     
  1018                           ;main.c: 70:       printf("%u",dato);
  1019  005008  0E1F               	movlw	low STR_1
  1020  00500A  0105               	movlb	5	; () banked
  1021  00500C  6FB7               	movwf	printf@fmt& (0+255),b
  1022  00500E  0E26               	movlw	high STR_1
  1023  005010  6FB8               	movwf	(printf@fmt+1)& (0+255),b
  1024  005012  C5BF  F5B9         	movff	main@dato,?_printf+2
  1025  005016  C5C0  F5BA         	movff	main@dato+1,?_printf+3
  1026  00501A  EC9D  F029         	call	_printf	;wreg free
  1027  00501E                     
  1028                           ;main.c: 71:       _delay((unsigned long)((400)*(64000000/4000.0)));
  1029  00501E  0E21               	movlw	33
  1030  005020  0105               	movlb	5	; () banked
  1031  005022  6FBE               	movwf	(??_main+1)& (0+255),b
  1032  005024  0E78               	movlw	120
  1033  005026  6FBD               	movwf	??_main& (0+255),b
  1034  005028  0E98               	movlw	152
  1035  00502A                     u4767:
  1036  00502A  2EE8               	decfsz	wreg,f,c
  1037  00502C  D7FE               	bra	u4767
  1038  00502E  2FBD               	decfsz	??_main& (0+255),f,b
  1039  005030  D7FC               	bra	u4767
  1040  005032  2FBE               	decfsz	(??_main+1)& (0+255),f,b
  1041  005034  D7FA               	bra	u4767
  1042  005036  F000               	nop	
  1043  005038  EFF3  F027         	goto	l4392
  1044  00503C  EF0D  F000         	goto	start
  1045  005040                     __end_of_main:
  1046                           	callstack 0
  1047                           
  1048 ;; *************** function _printf *****************
  1049 ;; Defined at:
  1050 ;;		line 5 in file "C:\Program Files\Microchip\xc8\v2.32\pic\sources\c99\common\printf.c"
  1051 ;; Parameters:    Size  Location     Type
  1052 ;;  fmt             2   87[BANK5 ] PTR const unsigned char 
  1053 ;;		 -> STR_1(3), 
  1054 ;; Auto vars:     Size  Location     Type
  1055 ;;  ap              2   91[BANK5 ] PTR void [1]
  1056 ;;		 -> ?_printf(2), 
  1057 ;;  ret             2    0        int 
  1058 ;; Return value:  Size  Location     Type
  1059 ;;                  2   87[BANK5 ] int 
  1060 ;; Registers used:
  1061 ;;		wreg, fsr1l, fsr1h, fsr2l, fsr2h, status,2, status,0, tblptrl, tblptrh, tblptru, cstack
  1062 ;; Tracked objects:
  1063 ;;		On entry : 0/0
  1064 ;;		On exit  : 0/0
  1065 ;;		Unchanged: 0/0
  1066 ;; Data sizes:     COMRAM   BANK5   BANK6   BANK7   BANK8   BANK9  BANK10  BANK11  BANK12  BANK13  BANK14  BANK15  BANK1
      +6  BANK17  BANK18  BANK19  BANK20  BANK21  BANK22  BANK23  BANK24  BANK25  BANK26  BANK27  BANK28  BANK29  BANK30  BANK3
      +1  BANK32  BANK33  BANK34  BANK35  BANK36  BANK37
  1067 ;;      Params:         0       4       0       0       0       0       0       0       0       0       0       0       
      +0       0       0       0       0       0       0       0       0       0       0       0       0       0       0       
      +0       0       0       0       0       0       0
  1068 ;;      Locals:         0       2       0       0       0       0       0       0       0       0       0       0       
      +0       0       0       0       0       0       0       0       0       0       0       0       0       0       0       
      +0       0       0       0       0       0       0
  1069 ;;      Temps:          0       0       0       0       0       0       0       0       0       0       0       0       
      +0       0       0       0       0       0       0       0       0       0       0       0       0       0       0       
      +0       0       0       0       0       0       0
  1070 ;;      Totals:         0       6       0       0       0       0       0       0       0       0       0       0       
      +0       0       0       0       0       0       0       0       0       0       0       0       0       0       0       
      +0       0       0       0       0       0       0
  1071 ;;Total ram usage:        6 bytes
  1072 ;; Hardware stack levels used: 1
  1073 ;; Hardware stack levels required when called: 13
  1074 ;; This function calls:
  1075 ;;		_vfprintf
  1076 ;; This function is called by:
  1077 ;;		_main
  1078 ;; This function uses a non-reentrant model
  1079 ;;
  1080                           
  1081                           	psect	text1
  1082  00533A                     __ptext1:
  1083                           	callstack 0
  1084  00533A                     _printf:
  1085                           	callstack 114
  1086  00533A  0EB9               	movlw	low (?_printf+2)
  1087  00533C  0105               	movlb	5	; () banked
  1088  00533E  6FBB               	movwf	printf@ap& (0+255),b
  1089  005340  0E05               	movlw	high (?_printf+2)
  1090  005342  6FBC               	movwf	(printf@ap+1)& (0+255),b
  1091  005344                     
  1092                           ; BSR set to: 5
  1093  005344  0E00               	movlw	0
  1094  005346  6FAF               	movwf	vfprintf@fp& (0+255),b
  1095  005348  0E00               	movlw	0
  1096  00534A  6FB0               	movwf	(vfprintf@fp+1)& (0+255),b
  1097  00534C  C5B7  F5B1         	movff	printf@fmt,vfprintf@fmt
  1098  005350  C5B8  F5B2         	movff	printf@fmt+1,vfprintf@fmt+1
  1099  005354  0EBB               	movlw	low printf@ap
  1100  005356  6FB3               	movwf	vfprintf@ap& (0+255),b
  1101  005358  0E05               	movlw	high printf@ap
  1102  00535A  6FB4               	movwf	(vfprintf@ap+1)& (0+255),b
  1103  00535C  EC86  F027         	call	_vfprintf	;wreg free
  1104  005360  0012               	return		;funcret
  1105  005362                     __end_of_printf:
  1106                           	callstack 0
  1107                           
  1108 ;; *************** function _vfprintf *****************
  1109 ;; Defined at:
  1110 ;;		line 1390 in file "C:\Program Files\Microchip\xc8\v2.32\pic\sources\c99\common\doprnt.c"
  1111 ;; Parameters:    Size  Location     Type
  1112 ;;  fp              2   79[BANK5 ] PTR struct _IO_FILE
  1113 ;;		 -> NULL(0), 
  1114 ;;  fmt             2   81[BANK5 ] PTR const unsigned char 
  1115 ;;		 -> STR_1(3), 
  1116 ;;  ap              2   83[BANK5 ] PTR PTR void 
  1117 ;;		 -> printf@ap(2), 
  1118 ;; Auto vars:     Size  Location     Type
  1119 ;;  cfmt            2   85[BANK5 ] PTR unsigned char 
  1120 ;;		 -> STR_1(3), 
  1121 ;; Return value:  Size  Location     Type
  1122 ;;                  2   79[BANK5 ] int 
  1123 ;; Registers used:
  1124 ;;		wreg, fsr1l, fsr1h, fsr2l, fsr2h, status,2, status,0, tblptrl, tblptrh, tblptru, cstack
  1125 ;; Tracked objects:
  1126 ;;		On entry : 0/0
  1127 ;;		On exit  : 0/0
  1128 ;;		Unchanged: 0/0
  1129 ;; Data sizes:     COMRAM   BANK5   BANK6   BANK7   BANK8   BANK9  BANK10  BANK11  BANK12  BANK13  BANK14  BANK15  BANK1
      +6  BANK17  BANK18  BANK19  BANK20  BANK21  BANK22  BANK23  BANK24  BANK25  BANK26  BANK27  BANK28  BANK29  BANK30  BANK3
      +1  BANK32  BANK33  BANK34  BANK35  BANK36  BANK37
  1130 ;;      Params:         0       6       0       0       0       0       0       0       0       0       0       0       
      +0       0       0       0       0       0       0       0       0       0       0       0       0       0       0       
      +0       0       0       0       0       0       0
  1131 ;;      Locals:         0       2       0       0       0       0       0       0       0       0       0       0       
      +0       0       0       0       0       0       0       0       0       0       0       0       0       0       0       
      +0       0       0       0       0       0       0
  1132 ;;      Temps:          0       0       0       0       0       0       0       0       0       0       0       0       
      +0       0       0       0       0       0       0       0       0       0       0       0       0       0       0       
      +0       0       0       0       0       0       0
  1133 ;;      Totals:         0       8       0       0       0       0       0       0       0       0       0       0       
      +0       0       0       0       0       0       0       0       0       0       0       0       0       0       0       
      +0       0       0       0       0       0       0
  1134 ;;Total ram usage:        8 bytes
  1135 ;; Hardware stack levels used: 1
  1136 ;; Hardware stack levels required when called: 12
  1137 ;; This function calls:
  1138 ;;		_vfpfcnvrt
  1139 ;; This function is called by:
  1140 ;;		_printf
  1141 ;; This function uses a non-reentrant model
  1142 ;;
  1143                           
  1144                           	psect	text2
  1145  004F0C                     __ptext2:
  1146                           	callstack 0
  1147  004F0C                     _vfprintf:
  1148                           	callstack 114
  1149  004F0C                     
  1150                           ;C:\Program Files\Microchip\xc8\v2.32\pic\sources\c99\common\doprnt.c: 1390: int vfprint
      +                          f(FILE *fp, const char *fmt, va_list ap);C:\Program Files\Microchip\xc8\v2.32\pic\source
      +                          s\c99\common\doprnt.c: 1391: {;C:\Program Files\Microchip\xc8\v2.32\pic\sources\c99\comm
      +                          on\doprnt.c: 1393:     char *cfmt;;C:\Program Files\Microchip\xc8\v2.32\pic\sources\c99\
      +                          common\doprnt.c: 1395:     cfmt = (char *)fmt;
  1151  004F0C  C5B1  F5B5         	movff	vfprintf@fmt,vfprintf@cfmt
  1152  004F10  C5B2  F5B6         	movff	vfprintf@fmt+1,vfprintf@cfmt+1
  1153  004F14                     
  1154                           ;C:\Program Files\Microchip\xc8\v2.32\pic\sources\c99\common\doprnt.c: 1396:     nout = 
      +                          0;
  1155  004F14  0E00               	movlw	0
  1156  004F16  0105               	movlb	5	; () banked
  1157  004F18  6FD2               	movwf	(_nout+1)& (0+255),b
  1158  004F1A  0E00               	movlw	0
  1159  004F1C  6FD1               	movwf	_nout& (0+255),b
  1160                           
  1161                           ;C:\Program Files\Microchip\xc8\v2.32\pic\sources\c99\common\doprnt.c: 1397:     while (
      +                          *cfmt) {
  1162  004F1E  EFA4  F027         	goto	l3822
  1163  004F22                     l3820:
  1164                           
  1165                           ; BSR set to: 5
  1166                           ;C:\Program Files\Microchip\xc8\v2.32\pic\sources\c99\common\doprnt.c: 1398:         nou
      +                          t += vfpfcnvrt(fp, &cfmt, ap);
  1167  004F22  C5AF  F59D         	movff	vfprintf@fp,vfpfcnvrt@fp
  1168  004F26  C5B0  F59E         	movff	vfprintf@fp+1,vfpfcnvrt@fp+1
  1169  004F2A  0EB5               	movlw	low vfprintf@cfmt
  1170  004F2C  6F9F               	movwf	vfpfcnvrt@fmt& (0+255),b
  1171  004F2E  0E05               	movlw	high vfprintf@cfmt
  1172  004F30  6FA0               	movwf	(vfpfcnvrt@fmt+1)& (0+255),b
  1173  004F32  C5B3  F5A1         	movff	vfprintf@ap,vfpfcnvrt@ap
  1174  004F36  C5B4  F5A2         	movff	vfprintf@ap+1,vfpfcnvrt@ap+1
  1175  004F3A  ECF6  F020         	call	_vfpfcnvrt	;wreg free
  1176  004F3E  0105               	movlb	5	; () banked
  1177  004F40  519D               	movf	?_vfpfcnvrt& (0+255),w,b
  1178  004F42  27D1               	addwf	_nout& (0+255),f,b
  1179  004F44  519E               	movf	(?_vfpfcnvrt+1)& (0+255),w,b
  1180  004F46  23D2               	addwfc	(_nout+1)& (0+255),f,b
  1181  004F48                     l3822:
  1182                           
  1183                           ; BSR set to: 5
  1184                           ;C:\Program Files\Microchip\xc8\v2.32\pic\sources\c99\common\doprnt.c: 1397:     while (
      +                          *cfmt) {
  1185  004F48  0061  F6D4  F4F6   	movff	vfprintf@cfmt,tblptrl
  1186  004F4E  0061  F6D8  F4F7   	movff	vfprintf@cfmt+1,tblptrh
  1187  004F54                     	if	0	;tblptru may be non-zero
  1188  004F54                     	endif
  1189  004F54                     	if	1	;Program memory is > 0xFFFF, there are 3 active tblptr bytes
  1190  004F54  0E00               	movlw	low (__mediumconst shr (0+16))
  1191  004F56  6EF8               	movwf	tblptru,c
  1192  004F58                     	endif
  1193  004F58  0008               	tblrd		*
  1194  004F5A  50F5               	movf	tablat,w,c
  1195  004F5C  0900               	iorlw	0
  1196  004F5E  A4D8               	btfss	status,2,c
  1197  004F60  EFB4  F027         	goto	u3441
  1198  004F64  EFB6  F027         	goto	u3440
  1199  004F68                     u3441:
  1200  004F68  EF91  F027         	goto	l3820
  1201  004F6C                     u3440:
  1202  004F6C                     
  1203                           ; BSR set to: 5
  1204                           ;C:\Program Files\Microchip\xc8\v2.32\pic\sources\c99\common\doprnt.c: 1400:     return 
      +                          nout;
  1205  004F6C  C5D1  F5AF         	movff	_nout,?_vfprintf
  1206  004F70  C5D2  F5B0         	movff	_nout+1,?_vfprintf+1
  1207  004F74                     
  1208                           ; BSR set to: 5
  1209  004F74  0012               	return		;funcret
  1210  004F76                     __end_of_vfprintf:
  1211                           	callstack 0
  1212                           
  1213 ;; *************** function _vfpfcnvrt *****************
  1214 ;; Defined at:
  1215 ;;		line 692 in file "C:\Program Files\Microchip\xc8\v2.32\pic\sources\c99\common\doprnt.c"
  1216 ;; Parameters:    Size  Location     Type
  1217 ;;  fp              2   61[BANK5 ] PTR struct _IO_FILE
  1218 ;;		 -> NULL(0), 
  1219 ;;  fmt             2   63[BANK5 ] PTR PTR unsigned char 
  1220 ;;		 -> vfprintf@cfmt(2), 
  1221 ;;  ap              2   65[BANK5 ] PTR PTR void 
  1222 ;;		 -> printf@ap(2), 
  1223 ;; Auto vars:     Size  Location     Type
  1224 ;;  llu             8   71[BANK5 ] unsigned long long 
  1225 ;;  ll              8    0        long long 
  1226 ;;  f               4    0        long long 
  1227 ;;  vp              3    0        PTR void 
  1228 ;;  ct              3    0        unsigned char [3]
  1229 ;;  cp              3    0        PTR unsigned char 
  1230 ;;  i               2    0        int 
  1231 ;;  done            2    0        int 
  1232 ;;  c               1    0        unsigned char 
  1233 ;; Return value:  Size  Location     Type
  1234 ;;                  2   61[BANK5 ] int 
  1235 ;; Registers used:
  1236 ;;		wreg, fsr1l, fsr1h, fsr2l, fsr2h, status,2, status,0, tblptrl, tblptrh, tblptru, cstack
  1237 ;; Tracked objects:
  1238 ;;		On entry : 0/0
  1239 ;;		On exit  : 0/0
  1240 ;;		Unchanged: 0/0
  1241 ;; Data sizes:     COMRAM   BANK5   BANK6   BANK7   BANK8   BANK9  BANK10  BANK11  BANK12  BANK13  BANK14  BANK15  BANK1
      +6  BANK17  BANK18  BANK19  BANK20  BANK21  BANK22  BANK23  BANK24  BANK25  BANK26  BANK27  BANK28  BANK29  BANK30  BANK3
      +1  BANK32  BANK33  BANK34  BANK35  BANK36  BANK37
  1242 ;;      Params:         0       6       0       0       0       0       0       0       0       0       0       0       
      +0       0       0       0       0       0       0       0       0       0       0       0       0       0       0       
      +0       0       0       0       0       0       0
  1243 ;;      Locals:         0       8       0       0       0       0       0       0       0       0       0       0       
      +0       0       0       0       0       0       0       0       0       0       0       0       0       0       0       
      +0       0       0       0       0       0       0
  1244 ;;      Temps:          0       4       0       0       0       0       0       0       0       0       0       0       
      +0       0       0       0       0       0       0       0       0       0       0       0       0       0       0       
      +0       0       0       0       0       0       0
  1245 ;;      Totals:         0      18       0       0       0       0       0       0       0       0       0       0       
      +0       0       0       0       0       0       0       0       0       0       0       0       0       0       0       
      +0       0       0       0       0       0       0
  1246 ;;Total ram usage:       18 bytes
  1247 ;; Hardware stack levels used: 1
  1248 ;; Hardware stack levels required when called: 11
  1249 ;; This function calls:
  1250 ;;		_fputc
  1251 ;;		_utoa
  1252 ;; This function is called by:
  1253 ;;		_vfprintf
  1254 ;; This function uses a non-reentrant model
  1255 ;;
  1256                           
  1257                           	psect	text3
  1258  0041EC                     __ptext3:
  1259                           	callstack 0
  1260  0041EC                     _vfpfcnvrt:
  1261                           	callstack 114
  1262  0041EC                     
  1263                           ;C:\Program Files\Microchip\xc8\v2.32\pic\sources\c99\common\doprnt.c: 692: static int v
      +                          fpfcnvrt(FILE *fp, char *fmt[], va_list ap);C:\Program Files\Microchip\xc8\v2.32\pic\sou
      +                          rces\c99\common\doprnt.c: 693: {;C:\Program Files\Microchip\xc8\v2.32\pic\sources\c99\co
      +                          mmon\doprnt.c: 694:     char c, *cp, ct[3];;C:\Program Files\Microchip\xc8\v2.32\pic\sou
      +                          rces\c99\common\doprnt.c: 695:     int done, i;;C:\Program Files\Microchip\xc8\v2.32\pic
      +                          \sources\c99\common\doprnt.c: 696:     long long ll;;C:\Program Files\Microchip\xc8\v2.3
      +                          2\pic\sources\c99\common\doprnt.c: 697:     unsigned long long llu;
  1264  0041EC  0061  F67C  F4D9   	movff	vfpfcnvrt@fmt,fsr2l
  1265  0041F2  0061  F680  F4DA   	movff	vfpfcnvrt@fmt+1,fsr2h
  1266  0041F8  C4DE F4F6          	movff	postinc2,tblptrl
  1267  0041FC  C4DD F4F7          	movff	postdec2,tblptrh
  1268  004200                     	if	0	;tblptru may be non-zero
  1269  004200                     	endif
  1270  004200                     	if	1	;Program memory is > 0xFFFF, there are 3 active tblptr bytes
  1271  004200  0E00               	movlw	low (__mediumconst shr (0+16))
  1272  004202  6EF8               	movwf	tblptru,c
  1273  004204                     	endif
  1274  004204  0008               	tblrd		*
  1275  004206  50F5               	movf	tablat,w,c
  1276  004208  0A25               	xorlw	37
  1277  00420A  A4D8               	btfss	status,2,c
  1278  00420C  EF0A  F021         	goto	u3321
  1279  004210  EF0C  F021         	goto	u3320
  1280  004214                     u3321:
  1281  004214  EFC0  F021         	goto	l3668
  1282  004218                     u3320:
  1283  004218                     
  1284                           ;C:\Program Files\Microchip\xc8\v2.32\pic\sources\c99\common\doprnt.c: 703:         ++*f
      +                          mt;
  1285  004218  0061  F67C  F4D9   	movff	vfpfcnvrt@fmt,fsr2l
  1286  00421E  0061  F680  F4DA   	movff	vfpfcnvrt@fmt+1,fsr2h
  1287  004224  2ADE               	incf	postinc2,f,c
  1288  004226  0E00               	movlw	0
  1289  004228  22DD               	addwfc	postdec2,f,c
  1290  00422A                     
  1291                           ;C:\Program Files\Microchip\xc8\v2.32\pic\sources\c99\common\doprnt.c: 705:         flag
      +                          s = width = 0;
  1292  00422A  0E00               	movlw	0
  1293  00422C  0105               	movlb	5	; () banked
  1294  00422E  6FD4               	movwf	(_width+1)& (0+255),b
  1295  004230  0E00               	movlw	0
  1296  004232  6FD3               	movwf	_width& (0+255),b
  1297  004234  C5D3  F5D7         	movff	_width,_flags
  1298  004238  C5D4  F5D8         	movff	_width+1,_flags+1
  1299  00423C                     
  1300                           ; BSR set to: 5
  1301                           ;C:\Program Files\Microchip\xc8\v2.32\pic\sources\c99\common\doprnt.c: 706:         prec
      +                           = -1;
  1302  00423C  69D5               	setf	_prec& (0+255),b
  1303  00423E  69D6               	setf	(_prec+1)& (0+255),b
  1304  004240                     
  1305                           ; BSR set to: 5
  1306                           ;C:\Program Files\Microchip\xc8\v2.32\pic\sources\c99\common\doprnt.c: 1204:         if 
      +                          (*fmt[0] == 'u') {
  1307  004240  0061  F67C  F4D9   	movff	vfpfcnvrt@fmt,fsr2l
  1308  004246  0061  F680  F4DA   	movff	vfpfcnvrt@fmt+1,fsr2h
  1309  00424C  C4DE F4F6          	movff	postinc2,tblptrl
  1310  004250  C4DD F4F7          	movff	postdec2,tblptrh
  1311  004254                     	if	0	;tblptru may be non-zero
  1312  004254                     	endif
  1313  004254                     	if	1	;Program memory is > 0xFFFF, there are 3 active tblptr bytes
  1314  004254  0E00               	movlw	low (__mediumconst shr (0+16))
  1315  004256  6EF8               	movwf	tblptru,c
  1316  004258                     	endif
  1317  004258  0008               	tblrd		*
  1318  00425A  50F5               	movf	tablat,w,c
  1319  00425C  0A75               	xorlw	117
  1320  00425E  A4D8               	btfss	status,2,c
  1321  004260  EF34  F021         	goto	u3331
  1322  004264  EF36  F021         	goto	u3330
  1323  004268                     u3331:
  1324  004268  EF81  F021         	goto	l3652
  1325  00426C                     u3330:
  1326  00426C                     
  1327                           ; BSR set to: 5
  1328                           ;C:\Program Files\Microchip\xc8\v2.32\pic\sources\c99\common\doprnt.c: 1206:            
      +                           ++*fmt;
  1329  00426C  0061  F67C  F4D9   	movff	vfpfcnvrt@fmt,fsr2l
  1330  004272  0061  F680  F4DA   	movff	vfpfcnvrt@fmt+1,fsr2h
  1331  004278  2ADE               	incf	postinc2,f,c
  1332  00427A  0E00               	movlw	0
  1333  00427C  22DD               	addwfc	postdec2,f,c
  1334                           
  1335                           ;C:\Program Files\Microchip\xc8\v2.32\pic\sources\c99\common\doprnt.c: 1207:            
      +                           llu = (unsigned long long)(*(unsigned int *)__va_arg(*(unsigned int **)ap, (unsigned in
      +                          t)0));
  1336  00427E  0061  F684  F4D9   	movff	vfpfcnvrt@ap,fsr2l
  1337  004284  0061  F688  F4DA   	movff	vfpfcnvrt@ap+1,fsr2h
  1338  00428A  0061 F37C  F5A3    	movff	indf2,??_vfpfcnvrt
  1339  004290  0E02               	movlw	2
  1340  004292  26DE               	addwf	postinc2,f,c
  1341  004294  0061 F37C  F5A4    	movff	indf2,??_vfpfcnvrt+1
  1342  00429A  0E00               	movlw	0
  1343  00429C  22DD               	addwfc	postdec2,f,c
  1344  00429E  0061  F68C  F4D9   	movff	??_vfpfcnvrt,fsr2l
  1345  0042A4  0061  F690  F4DA   	movff	??_vfpfcnvrt+1,fsr2h
  1346  0042AA  0061 F378  F5A5    	movff	postinc2,??_vfpfcnvrt+2
  1347  0042B0  0061 F374  F5A6    	movff	postdec2,??_vfpfcnvrt+3
  1348  0042B6  C5A5  F5A7         	movff	??_vfpfcnvrt+2,vfpfcnvrt@llu
  1349  0042BA  C5A6  F5A8         	movff	??_vfpfcnvrt+3,vfpfcnvrt@llu+1
  1350  0042BE  6BA9               	clrf	(vfpfcnvrt@llu+2)& (0+255),b
  1351  0042C0  6BAA               	clrf	(vfpfcnvrt@llu+3)& (0+255),b
  1352  0042C2  6BAB               	clrf	(vfpfcnvrt@llu+4)& (0+255),b
  1353  0042C4  6BAC               	clrf	(vfpfcnvrt@llu+5)& (0+255),b
  1354  0042C6  6BAD               	clrf	(vfpfcnvrt@llu+6)& (0+255),b
  1355  0042C8  6BAE               	clrf	(vfpfcnvrt@llu+7)& (0+255),b
  1356  0042CA                     
  1357                           ; BSR set to: 5
  1358                           ;C:\Program Files\Microchip\xc8\v2.32\pic\sources\c99\common\doprnt.c: 1209:            
      +                           return utoa(fp, llu);
  1359  0042CA  C59D  F57D         	movff	vfpfcnvrt@fp,utoa@fp
  1360  0042CE  C59E  F57E         	movff	vfpfcnvrt@fp+1,utoa@fp+1
  1361  0042D2  C5A7  F57F         	movff	vfpfcnvrt@llu,utoa@d
  1362  0042D6  C5A8  F580         	movff	vfpfcnvrt@llu+1,utoa@d+1
  1363  0042DA  C5A9  F581         	movff	vfpfcnvrt@llu+2,utoa@d+2
  1364  0042DE  C5AA  F582         	movff	vfpfcnvrt@llu+3,utoa@d+3
  1365  0042E2  C5AB  F583         	movff	vfpfcnvrt@llu+4,utoa@d+4
  1366  0042E6  C5AC  F584         	movff	vfpfcnvrt@llu+5,utoa@d+5
  1367  0042EA  C5AD  F585         	movff	vfpfcnvrt@llu+6,utoa@d+6
  1368  0042EE  C5AE  F586         	movff	vfpfcnvrt@llu+7,utoa@d+7
  1369  0042F2  ECF3  F01F         	call	_utoa	;wreg free
  1370  0042F6  C57D  F59D         	movff	?_utoa,?_vfpfcnvrt
  1371  0042FA  C57E  F59E         	movff	?_utoa+1,?_vfpfcnvrt+1
  1372  0042FE  EFE2  F021         	goto	l1365
  1373  004302                     l3652:
  1374                           
  1375                           ; BSR set to: 5
  1376                           ;C:\Program Files\Microchip\xc8\v2.32\pic\sources\c99\common\doprnt.c: 1372:         if 
      +                          ((*fmt)[0] == '%') {
  1377  004302  0061  F67C  F4D9   	movff	vfpfcnvrt@fmt,fsr2l
  1378  004308  0061  F680  F4DA   	movff	vfpfcnvrt@fmt+1,fsr2h
  1379  00430E  C4DE F4F6          	movff	postinc2,tblptrl
  1380  004312  C4DD F4F7          	movff	postdec2,tblptrh
  1381  004316                     	if	0	;tblptru may be non-zero
  1382  004316                     	endif
  1383  004316                     	if	1	;Program memory is > 0xFFFF, there are 3 active tblptr bytes
  1384  004316  0E00               	movlw	low (__mediumconst shr (0+16))
  1385  004318  6EF8               	movwf	tblptru,c
  1386  00431A                     	endif
  1387  00431A  0008               	tblrd		*
  1388  00431C  50F5               	movf	tablat,w,c
  1389  00431E  0A25               	xorlw	37
  1390  004320  A4D8               	btfss	status,2,c
  1391  004322  EF95  F021         	goto	u3341
  1392  004326  EF97  F021         	goto	u3340
  1393  00432A                     u3341:
  1394  00432A  EFB1  F021         	goto	l3662
  1395  00432E                     u3340:
  1396  00432E                     
  1397                           ; BSR set to: 5
  1398                           ;C:\Program Files\Microchip\xc8\v2.32\pic\sources\c99\common\doprnt.c: 1373:            
      +                           ++*fmt;
  1399  00432E  0061  F67C  F4D9   	movff	vfpfcnvrt@fmt,fsr2l
  1400  004334  0061  F680  F4DA   	movff	vfpfcnvrt@fmt+1,fsr2h
  1401  00433A  2ADE               	incf	postinc2,f,c
  1402  00433C  0E00               	movlw	0
  1403  00433E  22DD               	addwfc	postdec2,f,c
  1404  004340                     
  1405                           ; BSR set to: 5
  1406                           ;C:\Program Files\Microchip\xc8\v2.32\pic\sources\c99\common\doprnt.c: 1374:            
      +                           fputc((int)'%', fp);
  1407  004340  0E00               	movlw	0
  1408  004342  6F63               	movwf	(fputc@c+1)& (0+255),b
  1409  004344  0E25               	movlw	37
  1410  004346  6F62               	movwf	fputc@c& (0+255),b
  1411  004348  C59D  F564         	movff	vfpfcnvrt@fp,fputc@fp
  1412  00434C  C59E  F565         	movff	vfpfcnvrt@fp+1,fputc@fp+1
  1413  004350  EC02  F027         	call	_fputc	;wreg free
  1414  004354                     l3658:
  1415                           
  1416                           ;C:\Program Files\Microchip\xc8\v2.32\pic\sources\c99\common\doprnt.c: 1375:            
      +                           return 1;
  1417  004354  0E00               	movlw	0
  1418  004356  0105               	movlb	5	; () banked
  1419  004358  6F9E               	movwf	(?_vfpfcnvrt+1)& (0+255),b
  1420  00435A  0E01               	movlw	1
  1421  00435C  6F9D               	movwf	?_vfpfcnvrt& (0+255),b
  1422  00435E  EFE2  F021         	goto	l1365
  1423  004362                     l3662:
  1424                           
  1425                           ; BSR set to: 5
  1426                           ;C:\Program Files\Microchip\xc8\v2.32\pic\sources\c99\common\doprnt.c: 1379:         ++*
      +                          fmt;
  1427  004362  0061  F67C  F4D9   	movff	vfpfcnvrt@fmt,fsr2l
  1428  004368  0061  F680  F4DA   	movff	vfpfcnvrt@fmt+1,fsr2h
  1429  00436E  2ADE               	incf	postinc2,f,c
  1430  004370  0E00               	movlw	0
  1431  004372  22DD               	addwfc	postdec2,f,c
  1432  004374                     
  1433                           ; BSR set to: 5
  1434                           ;C:\Program Files\Microchip\xc8\v2.32\pic\sources\c99\common\doprnt.c: 1380:         ret
      +                          urn 0;
  1435  004374  0E00               	movlw	0
  1436  004376  6F9E               	movwf	(?_vfpfcnvrt+1)& (0+255),b
  1437  004378  0E00               	movlw	0
  1438  00437A  6F9D               	movwf	?_vfpfcnvrt& (0+255),b
  1439  00437C  EFE2  F021         	goto	l1365
  1440  004380                     l3668:
  1441                           
  1442                           ;C:\Program Files\Microchip\xc8\v2.32\pic\sources\c99\common\doprnt.c: 1384:     fputc((
      +                          int)(*fmt)[0], fp);
  1443  004380  0061  F67C  F4D9   	movff	vfpfcnvrt@fmt,fsr2l
  1444  004386  0061  F680  F4DA   	movff	vfpfcnvrt@fmt+1,fsr2h
  1445  00438C  C4DE F4F6          	movff	postinc2,tblptrl
  1446  004390  C4DD F4F7          	movff	postdec2,tblptrh
  1447  004394                     	if	0	;tblptru may be non-zero
  1448  004394                     	endif
  1449  004394                     	if	1	;Program memory is > 0xFFFF, there are 3 active tblptr bytes
  1450  004394  0E00               	movlw	low (__mediumconst shr (0+16))
  1451  004396  6EF8               	movwf	tblptru,c
  1452  004398                     	endif
  1453  004398  0008               	tblrd		*
  1454  00439A  50F5               	movf	tablat,w,c
  1455  00439C  0105               	movlb	5	; () banked
  1456  00439E  6F62               	movwf	fputc@c& (0+255),b
  1457  0043A0  6B63               	clrf	(fputc@c+1)& (0+255),b
  1458  0043A2  C59D  F564         	movff	vfpfcnvrt@fp,fputc@fp
  1459  0043A6  C59E  F565         	movff	vfpfcnvrt@fp+1,fputc@fp+1
  1460  0043AA  EC02  F027         	call	_fputc	;wreg free
  1461  0043AE                     
  1462                           ;C:\Program Files\Microchip\xc8\v2.32\pic\sources\c99\common\doprnt.c: 1385:     ++*fmt;
  1463  0043AE  0061  F67C  F4D9   	movff	vfpfcnvrt@fmt,fsr2l
  1464  0043B4  0061  F680  F4DA   	movff	vfpfcnvrt@fmt+1,fsr2h
  1465  0043BA  2ADE               	incf	postinc2,f,c
  1466  0043BC  0E00               	movlw	0
  1467  0043BE  22DD               	addwfc	postdec2,f,c
  1468  0043C0  EFAA  F021         	goto	l3658
  1469  0043C4                     l1365:
  1470  0043C4  0012               	return		;funcret
  1471  0043C6                     __end_of_vfpfcnvrt:
  1472                           	callstack 0
  1473                           
  1474 ;; *************** function _utoa *****************
  1475 ;; Defined at:
  1476 ;;		line 615 in file "C:\Program Files\Microchip\xc8\v2.32\pic\sources\c99\common\doprnt.c"
  1477 ;; Parameters:    Size  Location     Type
  1478 ;;  fp              2   29[BANK5 ] PTR struct _IO_FILE
  1479 ;;		 -> NULL(0), 
  1480 ;;  d               8   31[BANK5 ] unsigned long long 
  1481 ;; Auto vars:     Size  Location     Type
  1482 ;;  n               8   51[BANK5 ] unsigned long long 
  1483 ;;  i               2   59[BANK5 ] int 
  1484 ;;  w               2   49[BANK5 ] int 
  1485 ;;  p               2   47[BANK5 ] int 
  1486 ;; Return value:  Size  Location     Type
  1487 ;;                  2   29[BANK5 ] int 
  1488 ;; Registers used:
  1489 ;;		wreg, fsr1l, fsr1h, fsr2l, fsr2h, status,2, status,0, cstack
  1490 ;; Tracked objects:
  1491 ;;		On entry : 0/0
  1492 ;;		On exit  : 0/0
  1493 ;;		Unchanged: 0/0
  1494 ;; Data sizes:     COMRAM   BANK5   BANK6   BANK7   BANK8   BANK9  BANK10  BANK11  BANK12  BANK13  BANK14  BANK15  BANK1
      +6  BANK17  BANK18  BANK19  BANK20  BANK21  BANK22  BANK23  BANK24  BANK25  BANK26  BANK27  BANK28  BANK29  BANK30  BANK3
      +1  BANK32  BANK33  BANK34  BANK35  BANK36  BANK37
  1495 ;;      Params:         0      10       0       0       0       0       0       0       0       0       0       0       
      +0       0       0       0       0       0       0       0       0       0       0       0       0       0       0       
      +0       0       0       0       0       0       0
  1496 ;;      Locals:         0      14       0       0       0       0       0       0       0       0       0       0       
      +0       0       0       0       0       0       0       0       0       0       0       0       0       0       0       
      +0       0       0       0       0       0       0
  1497 ;;      Temps:          0       8       0       0       0       0       0       0       0       0       0       0       
      +0       0       0       0       0       0       0       0       0       0       0       0       0       0       0       
      +0       0       0       0       0       0       0
  1498 ;;      Totals:         0      32       0       0       0       0       0       0       0       0       0       0       
      +0       0       0       0       0       0       0       0       0       0       0       0       0       0       0       
      +0       0       0       0       0       0       0
  1499 ;;Total ram usage:       32 bytes
  1500 ;; Hardware stack levels used: 1
  1501 ;; Hardware stack levels required when called: 10
  1502 ;; This function calls:
  1503 ;;		___lodiv
  1504 ;;		___lomod
  1505 ;;		_pad
  1506 ;; This function is called by:
  1507 ;;		_vfpfcnvrt
  1508 ;; This function uses a non-reentrant model
  1509 ;;
  1510                           
  1511                           	psect	text4
  1512  003FE6                     __ptext4:
  1513                           	callstack 0
  1514  003FE6                     _utoa:
  1515                           	callstack 114
  1516  003FE6                     
  1517                           ;C:\Program Files\Microchip\xc8\v2.32\pic\sources\c99\common\doprnt.c: 615: static int u
      +                          toa(FILE *fp, unsigned long long d);C:\Program Files\Microchip\xc8\v2.32\pic\sources\c99
      +                          \common\doprnt.c: 616: {;C:\Program Files\Microchip\xc8\v2.32\pic\sources\c99\common\dop
      +                          rnt.c: 617:     int i, p, w;;C:\Program Files\Microchip\xc8\v2.32\pic\sources\c99\common
      +                          \doprnt.c: 618:     unsigned long long n;;C:\Program Files\Microchip\xc8\v2.32\pic\sourc
      +                          es\c99\common\doprnt.c: 621:     if (!(prec < 0)) {
  1518  003FE6  0105               	movlb	5	; () banked
  1519  003FE8  BFD6               	btfsc	(_prec+1)& (0+255),7,b
  1520  003FEA  EFF9  F01F         	goto	u2591
  1521  003FEE  EFFB  F01F         	goto	u2590
  1522  003FF2                     u2591:
  1523  003FF2  EFFC  F01F         	goto	l3206
  1524  003FF6                     u2590:
  1525  003FF6                     
  1526                           ; BSR set to: 5
  1527                           ;C:\Program Files\Microchip\xc8\v2.32\pic\sources\c99\common\doprnt.c: 622:         flag
      +                          s &= ~(1 << 1);
  1528  003FF6  93D7               	bcf	_flags& (0+255),1,b
  1529  003FF8                     l3206:
  1530                           
  1531                           ; BSR set to: 5
  1532                           ;C:\Program Files\Microchip\xc8\v2.32\pic\sources\c99\common\doprnt.c: 624:     p = (0 <
      +                           prec) ? prec : 1;
  1533  003FF8  BFD6               	btfsc	(_prec+1)& (0+255),7,b
  1534  003FFA  EF09  F020         	goto	u2600
  1535  003FFE  51D6               	movf	(_prec+1)& (0+255),w,b
  1536  004000  E106               	bnz	u2601
  1537  004002  05D5               	decf	_prec& (0+255),w,b
  1538  004004  B0D8               	btfsc	status,0,c
  1539  004006  EF07  F020         	goto	u2601
  1540  00400A  EF09  F020         	goto	u2600
  1541  00400E                     u2601:
  1542  00400E  EF0F  F020         	goto	l1350
  1543  004012                     u2600:
  1544  004012                     
  1545                           ; BSR set to: 5
  1546  004012  0E00               	movlw	0
  1547  004014  6F90               	movwf	(utoa@p+1)& (0+255),b
  1548  004016  0E01               	movlw	1
  1549  004018  6F8F               	movwf	utoa@p& (0+255),b
  1550  00401A  EF13  F020         	goto	l1352
  1551  00401E                     l1350:
  1552                           
  1553                           ; BSR set to: 5
  1554  00401E  C5D5  F58F         	movff	_prec,utoa@p
  1555  004022  C5D6  F590         	movff	_prec+1,utoa@p+1
  1556  004026                     l1352:
  1557                           
  1558                           ; BSR set to: 5
  1559                           ;C:\Program Files\Microchip\xc8\v2.32\pic\sources\c99\common\doprnt.c: 625:     w = widt
      +                          h;
  1560  004026  C5D3  F591         	movff	_width,utoa@w
  1561  00402A  C5D4  F592         	movff	_width+1,utoa@w+1
  1562                           
  1563                           ;C:\Program Files\Microchip\xc8\v2.32\pic\sources\c99\common\doprnt.c: 628:     n = d;
  1564  00402E  C57F  F593         	movff	utoa@d,utoa@n
  1565  004032  C580  F594         	movff	utoa@d+1,utoa@n+1
  1566  004036  C581  F595         	movff	utoa@d+2,utoa@n+2
  1567  00403A  C582  F596         	movff	utoa@d+3,utoa@n+3
  1568  00403E  C583  F597         	movff	utoa@d+4,utoa@n+4
  1569  004042  C584  F598         	movff	utoa@d+5,utoa@n+5
  1570  004046  C585  F599         	movff	utoa@d+6,utoa@n+6
  1571  00404A  C586  F59A         	movff	utoa@d+7,utoa@n+7
  1572  00404E                     
  1573                           ; BSR set to: 5
  1574                           ;C:\Program Files\Microchip\xc8\v2.32\pic\sources\c99\common\doprnt.c: 629:     i = size
      +                          of(dbuf) - 1;
  1575  00404E  0E00               	movlw	0
  1576  004050  6F9C               	movwf	(utoa@i+1)& (0+255),b
  1577  004052  0E1F               	movlw	31
  1578  004054  6F9B               	movwf	utoa@i& (0+255),b
  1579  004056                     
  1580                           ; BSR set to: 5
  1581                           ;C:\Program Files\Microchip\xc8\v2.32\pic\sources\c99\common\doprnt.c: 630:     dbuf[i] 
      +                          = '\0';
  1582  004056  0E00               	movlw	0
  1583  004058  0106               	movlb	6	; () banked
  1584  00405A  6F83               	movwf	(_dbuf+31)& (0+255),b
  1585                           
  1586                           ;C:\Program Files\Microchip\xc8\v2.32\pic\sources\c99\common\doprnt.c: 631:     while (i
      +                           && (n || (0 < p) || ((0 < w) && (flags & (1 << 1))))) {
  1587  00405C  EFA7  F020         	goto	l3224
  1588  004060                     l3214:
  1589                           
  1590                           ; BSR set to: 5
  1591                           ;C:\Program Files\Microchip\xc8\v2.32\pic\sources\c99\common\doprnt.c: 632:         --i;
  1592  004060  079B               	decf	utoa@i& (0+255),f,b
  1593  004062  A0D8               	btfss	status,0,c
  1594  004064  079C               	decf	(utoa@i+1)& (0+255),f,b
  1595  004066                     
  1596                           ; BSR set to: 5
  1597                           ;C:\Program Files\Microchip\xc8\v2.32\pic\sources\c99\common\doprnt.c: 633:         dbuf
      +                          [i] = '0' + (n % 10);
  1598  004066  0E64               	movlw	low _dbuf
  1599  004068  259B               	addwf	utoa@i& (0+255),w,b
  1600  00406A  6ED9               	movwf	fsr2l,c
  1601  00406C  0E06               	movlw	high _dbuf
  1602  00406E  219C               	addwfc	(utoa@i+1)& (0+255),w,b
  1603  004070  6EDA               	movwf	fsr2h,c
  1604  004072  C593  F560         	movff	utoa@n,___lomod@dividend
  1605  004076  C594  F561         	movff	utoa@n+1,___lomod@dividend+1
  1606  00407A  C595  F562         	movff	utoa@n+2,___lomod@dividend+2
  1607  00407E  C596  F563         	movff	utoa@n+3,___lomod@dividend+3
  1608  004082  C597  F564         	movff	utoa@n+4,___lomod@dividend+4
  1609  004086  C598  F565         	movff	utoa@n+5,___lomod@dividend+5
  1610  00408A  C599  F566         	movff	utoa@n+6,___lomod@dividend+6
  1611  00408E  C59A  F567         	movff	utoa@n+7,___lomod@dividend+7
  1612  004092  0E0A               	movlw	10
  1613  004094  6F68               	movwf	___lomod@divisor& (0+255),b
  1614  004096  0E00               	movlw	0
  1615  004098  6F69               	movwf	(___lomod@divisor+1)& (0+255),b
  1616  00409A  0E00               	movlw	0
  1617  00409C  6F6A               	movwf	(___lomod@divisor+2)& (0+255),b
  1618  00409E  0E00               	movlw	0
  1619  0040A0  6F6B               	movwf	(___lomod@divisor+3)& (0+255),b
  1620  0040A2  0E00               	movlw	0
  1621  0040A4  6F6C               	movwf	(___lomod@divisor+4)& (0+255),b
  1622  0040A6  0E00               	movlw	0
  1623  0040A8  6F6D               	movwf	(___lomod@divisor+5)& (0+255),b
  1624  0040AA  0E00               	movlw	0
  1625  0040AC  6F6E               	movwf	(___lomod@divisor+6)& (0+255),b
  1626  0040AE  0E00               	movlw	0
  1627  0040B0  6F6F               	movwf	(___lomod@divisor+7)& (0+255),b
  1628  0040B2  ECD6  F024         	call	___lomod	;wreg free
  1629  0040B6  C560  F587         	movff	?___lomod,??_utoa
  1630  0040BA  C561  F588         	movff	?___lomod+1,??_utoa+1
  1631  0040BE  C562  F589         	movff	?___lomod+2,??_utoa+2
  1632  0040C2  C563  F58A         	movff	?___lomod+3,??_utoa+3
  1633  0040C6  C564  F58B         	movff	?___lomod+4,??_utoa+4
  1634  0040CA  C565  F58C         	movff	?___lomod+5,??_utoa+5
  1635  0040CE  C566  F58D         	movff	?___lomod+6,??_utoa+6
  1636  0040D2  C567  F58E         	movff	?___lomod+7,??_utoa+7
  1637  0040D6  0105               	movlb	5	; () banked
  1638  0040D8  5187               	movf	??_utoa& (0+255),w,b
  1639  0040DA  0F30               	addlw	48
  1640  0040DC  6EDF               	movwf	indf2,c
  1641  0040DE                     
  1642                           ; BSR set to: 5
  1643                           ;C:\Program Files\Microchip\xc8\v2.32\pic\sources\c99\common\doprnt.c: 634:         --p;
  1644  0040DE  078F               	decf	utoa@p& (0+255),f,b
  1645  0040E0  A0D8               	btfss	status,0,c
  1646  0040E2  0790               	decf	(utoa@p+1)& (0+255),f,b
  1647  0040E4                     
  1648                           ; BSR set to: 5
  1649                           ;C:\Program Files\Microchip\xc8\v2.32\pic\sources\c99\common\doprnt.c: 635:         --w;
  1650  0040E4  0791               	decf	utoa@w& (0+255),f,b
  1651  0040E6  A0D8               	btfss	status,0,c
  1652  0040E8  0792               	decf	(utoa@w+1)& (0+255),f,b
  1653  0040EA                     
  1654                           ; BSR set to: 5
  1655                           ;C:\Program Files\Microchip\xc8\v2.32\pic\sources\c99\common\doprnt.c: 636:         n = 
      +                          n / 10;
  1656  0040EA  C593  F560         	movff	utoa@n,___lodiv@dividend
  1657  0040EE  C594  F561         	movff	utoa@n+1,___lodiv@dividend+1
  1658  0040F2  C595  F562         	movff	utoa@n+2,___lodiv@dividend+2
  1659  0040F6  C596  F563         	movff	utoa@n+3,___lodiv@dividend+3
  1660  0040FA  C597  F564         	movff	utoa@n+4,___lodiv@dividend+4
  1661  0040FE  C598  F565         	movff	utoa@n+5,___lodiv@dividend+5
  1662  004102  C599  F566         	movff	utoa@n+6,___lodiv@dividend+6
  1663  004106  C59A  F567         	movff	utoa@n+7,___lodiv@dividend+7
  1664  00410A  0E0A               	movlw	10
  1665  00410C  6F68               	movwf	___lodiv@divisor& (0+255),b
  1666  00410E  0E00               	movlw	0
  1667  004110  6F69               	movwf	(___lodiv@divisor+1)& (0+255),b
  1668  004112  0E00               	movlw	0
  1669  004114  6F6A               	movwf	(___lodiv@divisor+2)& (0+255),b
  1670  004116  0E00               	movlw	0
  1671  004118  6F6B               	movwf	(___lodiv@divisor+3)& (0+255),b
  1672  00411A  0E00               	movlw	0
  1673  00411C  6F6C               	movwf	(___lodiv@divisor+4)& (0+255),b
  1674  00411E  0E00               	movlw	0
  1675  004120  6F6D               	movwf	(___lodiv@divisor+5)& (0+255),b
  1676  004122  0E00               	movlw	0
  1677  004124  6F6E               	movwf	(___lodiv@divisor+6)& (0+255),b
  1678  004126  0E00               	movlw	0
  1679  004128  6F6F               	movwf	(___lodiv@divisor+7)& (0+255),b
  1680  00412A  EC5D  F024         	call	___lodiv	;wreg free
  1681  00412E  C560  F593         	movff	?___lodiv,utoa@n
  1682  004132  C561  F594         	movff	?___lodiv+1,utoa@n+1
  1683  004136  C562  F595         	movff	?___lodiv+2,utoa@n+2
  1684  00413A  C563  F596         	movff	?___lodiv+3,utoa@n+3
  1685  00413E  C564  F597         	movff	?___lodiv+4,utoa@n+4
  1686  004142  C565  F598         	movff	?___lodiv+5,utoa@n+5
  1687  004146  C566  F599         	movff	?___lodiv+6,utoa@n+6
  1688  00414A  C567  F59A         	movff	?___lodiv+7,utoa@n+7
  1689  00414E                     l3224:
  1690                           
  1691                           ;C:\Program Files\Microchip\xc8\v2.32\pic\sources\c99\common\doprnt.c: 631:     while (i
      +                           && (n || (0 < p) || ((0 < w) && (flags & (1 << 1))))) {
  1692  00414E  0105               	movlb	5	; () banked
  1693  004150  519B               	movf	utoa@i& (0+255),w,b
  1694  004152  119C               	iorwf	(utoa@i+1)& (0+255),w,b
  1695  004154  B4D8               	btfsc	status,2,c
  1696  004156  EFAF  F020         	goto	u2611
  1697  00415A  EFB1  F020         	goto	u2610
  1698  00415E                     u2611:
  1699  00415E  EFE1  F020         	goto	l3234
  1700  004162                     u2610:
  1701  004162                     
  1702                           ; BSR set to: 5
  1703  004162  5193               	movf	utoa@n& (0+255),w,b
  1704  004164  1194               	iorwf	(utoa@n+1)& (0+255),w,b
  1705  004166  1195               	iorwf	(utoa@n+2)& (0+255),w,b
  1706  004168  1196               	iorwf	(utoa@n+3)& (0+255),w,b
  1707  00416A  1197               	iorwf	(utoa@n+4)& (0+255),w,b
  1708  00416C  1198               	iorwf	(utoa@n+5)& (0+255),w,b
  1709  00416E  1199               	iorwf	(utoa@n+6)& (0+255),w,b
  1710  004170  119A               	iorwf	(utoa@n+7)& (0+255),w,b
  1711  004172  A4D8               	btfss	status,2,c
  1712  004174  EFBE  F020         	goto	u2621
  1713  004178  EFC0  F020         	goto	u2620
  1714  00417C                     u2621:
  1715  00417C  EF30  F020         	goto	l3214
  1716  004180                     u2620:
  1717  004180                     
  1718                           ; BSR set to: 5
  1719  004180  BF90               	btfsc	(utoa@p+1)& (0+255),7,b
  1720  004182  EFCD  F020         	goto	u2630
  1721  004186  5190               	movf	(utoa@p+1)& (0+255),w,b
  1722  004188  E106               	bnz	u2631
  1723  00418A  058F               	decf	utoa@p& (0+255),w,b
  1724  00418C  B0D8               	btfsc	status,0,c
  1725  00418E  EFCB  F020         	goto	u2631
  1726  004192  EFCD  F020         	goto	u2630
  1727  004196                     u2631:
  1728  004196  EF30  F020         	goto	l3214
  1729  00419A                     u2630:
  1730  00419A                     
  1731                           ; BSR set to: 5
  1732  00419A  BF92               	btfsc	(utoa@w+1)& (0+255),7,b
  1733  00419C  EFD8  F020         	goto	u2641
  1734  0041A0  5192               	movf	(utoa@w+1)& (0+255),w,b
  1735  0041A2  E108               	bnz	u2640
  1736  0041A4  0591               	decf	utoa@w& (0+255),w,b
  1737  0041A6  A0D8               	btfss	status,0,c
  1738  0041A8  EFD8  F020         	goto	u2641
  1739  0041AC  EFDA  F020         	goto	u2640
  1740  0041B0                     u2641:
  1741  0041B0  EFE1  F020         	goto	l3234
  1742  0041B4                     u2640:
  1743  0041B4                     
  1744                           ; BSR set to: 5
  1745  0041B4  B3D7               	btfsc	_flags& (0+255),1,b
  1746  0041B6  EFDF  F020         	goto	u2651
  1747  0041BA  EFE1  F020         	goto	u2650
  1748  0041BE                     u2651:
  1749  0041BE  EF30  F020         	goto	l3214
  1750  0041C2                     u2650:
  1751  0041C2                     l3234:
  1752                           
  1753                           ; BSR set to: 5
  1754                           ;C:\Program Files\Microchip\xc8\v2.32\pic\sources\c99\common\doprnt.c: 640:     return p
      +                          ad(fp, &dbuf[i], w);
  1755  0041C2  C57D  F572         	movff	utoa@fp,pad@fp
  1756  0041C6  C57E  F573         	movff	utoa@fp+1,pad@fp+1
  1757  0041CA  0E64               	movlw	low _dbuf
  1758  0041CC  259B               	addwf	utoa@i& (0+255),w,b
  1759  0041CE  6F74               	movwf	pad@buf& (0+255),b
  1760  0041D0  0E06               	movlw	high _dbuf
  1761  0041D2  219C               	addwfc	(utoa@i+1)& (0+255),w,b
  1762  0041D4  6F75               	movwf	(pad@buf+1)& (0+255),b
  1763  0041D6  C591  F576         	movff	utoa@w,pad@p
  1764  0041DA  C592  F577         	movff	utoa@w+1,pad@p+1
  1765  0041DE  EC3F  F025         	call	_pad	;wreg free
  1766  0041E2  C572  F57D         	movff	?_pad,?_utoa
  1767  0041E6  C573  F57E         	movff	?_pad+1,?_utoa+1
  1768  0041EA  0012               	return		;funcret
  1769  0041EC                     __end_of_utoa:
  1770                           	callstack 0
  1771                           
  1772 ;; *************** function _pad *****************
  1773 ;; Defined at:
  1774 ;;		line 72 in file "C:\Program Files\Microchip\xc8\v2.32\pic\sources\c99\common\doprnt.c"
  1775 ;; Parameters:    Size  Location     Type
  1776 ;;  fp              2   18[BANK5 ] PTR struct _IO_FILE
  1777 ;;		 -> NULL(0), 
  1778 ;;  buf             2   20[BANK5 ] PTR unsigned char 
  1779 ;;		 -> dbuf(32), 
  1780 ;;  p               2   22[BANK5 ] int 
  1781 ;; Auto vars:     Size  Location     Type
  1782 ;;  w               2   27[BANK5 ] int 
  1783 ;;  i               2   25[BANK5 ] int 
  1784 ;; Return value:  Size  Location     Type
  1785 ;;                  2   18[BANK5 ] int 
  1786 ;; Registers used:
  1787 ;;		wreg, fsr1l, fsr1h, fsr2l, fsr2h, status,2, status,0, cstack
  1788 ;; Tracked objects:
  1789 ;;		On entry : 0/0
  1790 ;;		On exit  : 0/0
  1791 ;;		Unchanged: 0/0
  1792 ;; Data sizes:     COMRAM   BANK5   BANK6   BANK7   BANK8   BANK9  BANK10  BANK11  BANK12  BANK13  BANK14  BANK15  BANK1
      +6  BANK17  BANK18  BANK19  BANK20  BANK21  BANK22  BANK23  BANK24  BANK25  BANK26  BANK27  BANK28  BANK29  BANK30  BANK3
      +1  BANK32  BANK33  BANK34  BANK35  BANK36  BANK37
  1793 ;;      Params:         0       6       0       0       0       0       0       0       0       0       0       0       
      +0       0       0       0       0       0       0       0       0       0       0       0       0       0       0       
      +0       0       0       0       0       0       0
  1794 ;;      Locals:         0       4       0       0       0       0       0       0       0       0       0       0       
      +0       0       0       0       0       0       0       0       0       0       0       0       0       0       0       
      +0       0       0       0       0       0       0
  1795 ;;      Temps:          0       1       0       0       0       0       0       0       0       0       0       0       
      +0       0       0       0       0       0       0       0       0       0       0       0       0       0       0       
      +0       0       0       0       0       0       0
  1796 ;;      Totals:         0      11       0       0       0       0       0       0       0       0       0       0       
      +0       0       0       0       0       0       0       0       0       0       0       0       0       0       0       
      +0       0       0       0       0       0       0
  1797 ;;Total ram usage:       11 bytes
  1798 ;; Hardware stack levels used: 1
  1799 ;; Hardware stack levels required when called: 9
  1800 ;; This function calls:
  1801 ;;		_fputc
  1802 ;;		_fputs
  1803 ;;		_strlen
  1804 ;; This function is called by:
  1805 ;;		_utoa
  1806 ;; This function uses a non-reentrant model
  1807 ;;
  1808                           
  1809                           	psect	text5
  1810  004A7E                     __ptext5:
  1811                           	callstack 0
  1812  004A7E                     _pad:
  1813                           	callstack 114
  1814  004A7E                     
  1815                           ;C:\Program Files\Microchip\xc8\v2.32\pic\sources\c99\common\doprnt.c: 72: static int pa
      +                          d(FILE *fp, char *buf, int p);C:\Program Files\Microchip\xc8\v2.32\pic\sources\c99\commo
      +                          n\doprnt.c: 73: {;C:\Program Files\Microchip\xc8\v2.32\pic\sources\c99\common\doprnt.c: 
      +                          74:     int i, w;;C:\Program Files\Microchip\xc8\v2.32\pic\sources\c99\common\doprnt.c: 
      +                          77:     if (flags & (1 << 0)) {
  1816  004A7E  0105               	movlb	5	; () banked
  1817  004A80  A1D7               	btfss	_flags& (0+255),0,b
  1818  004A82  EF45  F025         	goto	u2551
  1819  004A86  EF47  F025         	goto	u2550
  1820  004A8A                     u2551:
  1821  004A8A  EF51  F025         	goto	l3184
  1822  004A8E                     u2550:
  1823  004A8E                     
  1824                           ; BSR set to: 5
  1825                           ;C:\Program Files\Microchip\xc8\v2.32\pic\sources\c99\common\doprnt.c: 78:         fputs
      +                          ((const char *)buf, fp);
  1826  004A8E  C574  F56B         	movff	pad@buf,fputs@s
  1827  004A92  C575  F56C         	movff	pad@buf+1,fputs@s+1
  1828  004A96  C572  F56D         	movff	pad@fp,fputs@fp
  1829  004A9A  C573  F56E         	movff	pad@fp+1,fputs@fp+1
  1830  004A9E  ECA6  F028         	call	_fputs	;wreg free
  1831  004AA2                     l3184:
  1832                           
  1833                           ;C:\Program Files\Microchip\xc8\v2.32\pic\sources\c99\common\doprnt.c: 82:     w = (p < 
      +                          0) ? 0 : p;
  1834  004AA2  0105               	movlb	5	; () banked
  1835  004AA4  BF77               	btfsc	(pad@p+1)& (0+255),7,b
  1836  004AA6  EF57  F025         	goto	u2561
  1837  004AAA  EF59  F025         	goto	u2560
  1838  004AAE                     u2561:
  1839  004AAE  EF5F  F025         	goto	l3188
  1840  004AB2                     u2560:
  1841  004AB2                     
  1842                           ; BSR set to: 5
  1843  004AB2  C576  F57B         	movff	pad@p,pad@w
  1844  004AB6  C577  F57C         	movff	pad@p+1,pad@w+1
  1845  004ABA  EF63  F025         	goto	l1340
  1846  004ABE                     l3188:
  1847                           
  1848                           ; BSR set to: 5
  1849  004ABE  0E00               	movlw	0
  1850  004AC0  6F7C               	movwf	(pad@w+1)& (0+255),b
  1851  004AC2  0E00               	movlw	0
  1852  004AC4  6F7B               	movwf	pad@w& (0+255),b
  1853  004AC6                     l1340:
  1854                           
  1855                           ; BSR set to: 5
  1856                           ;C:\Program Files\Microchip\xc8\v2.32\pic\sources\c99\common\doprnt.c: 83:     i = 0;
  1857  004AC6  0E00               	movlw	0
  1858  004AC8  6F7A               	movwf	(pad@i+1)& (0+255),b
  1859  004ACA  0E00               	movlw	0
  1860  004ACC  6F79               	movwf	pad@i& (0+255),b
  1861                           
  1862                           ;C:\Program Files\Microchip\xc8\v2.32\pic\sources\c99\common\doprnt.c: 84:     while (i 
      +                          < w) {
  1863  004ACE  EF76  F025         	goto	l3194
  1864  004AD2                     l3190:
  1865                           
  1866                           ; BSR set to: 5
  1867                           ;C:\Program Files\Microchip\xc8\v2.32\pic\sources\c99\common\doprnt.c: 85:         fputc
      +                          (' ', fp);
  1868  004AD2  0E00               	movlw	0
  1869  004AD4  6F63               	movwf	(fputc@c+1)& (0+255),b
  1870  004AD6  0E20               	movlw	32
  1871  004AD8  6F62               	movwf	fputc@c& (0+255),b
  1872  004ADA  C572  F564         	movff	pad@fp,fputc@fp
  1873  004ADE  C573  F565         	movff	pad@fp+1,fputc@fp+1
  1874  004AE2  EC02  F027         	call	_fputc	;wreg free
  1875  004AE6                     
  1876                           ;C:\Program Files\Microchip\xc8\v2.32\pic\sources\c99\common\doprnt.c: 86:         ++i;
  1877  004AE6  0105               	movlb	5	; () banked
  1878  004AE8  4B79               	infsnz	pad@i& (0+255),f,b
  1879  004AEA  2B7A               	incf	(pad@i+1)& (0+255),f,b
  1880  004AEC                     l3194:
  1881                           
  1882                           ; BSR set to: 5
  1883                           ;C:\Program Files\Microchip\xc8\v2.32\pic\sources\c99\common\doprnt.c: 84:     while (i 
      +                          < w) {
  1884  004AEC  517B               	movf	pad@w& (0+255),w,b
  1885  004AEE  5D79               	subwf	pad@i& (0+255),w,b
  1886  004AF0  517A               	movf	(pad@i+1)& (0+255),w,b
  1887  004AF2  0A80               	xorlw	128
  1888  004AF4  6F78               	movwf	??_pad& (0+255),b
  1889  004AF6  517C               	movf	(pad@w+1)& (0+255),w,b
  1890  004AF8  0A80               	xorlw	128
  1891  004AFA  5978               	subwfb	??_pad& (0+255),w,b
  1892  004AFC  A0D8               	btfss	status,0,c
  1893  004AFE  EF83  F025         	goto	u2571
  1894  004B02  EF85  F025         	goto	u2570
  1895  004B06                     u2571:
  1896  004B06  EF69  F025         	goto	l3190
  1897  004B0A                     u2570:
  1898  004B0A                     
  1899                           ; BSR set to: 5
  1900                           ;C:\Program Files\Microchip\xc8\v2.32\pic\sources\c99\common\doprnt.c: 90:     if (!(fla
      +                          gs & (1 << 0))) {
  1901  004B0A  B1D7               	btfsc	_flags& (0+255),0,b
  1902  004B0C  EF8A  F025         	goto	u2581
  1903  004B10  EF8C  F025         	goto	u2580
  1904  004B14                     u2581:
  1905  004B14  EF96  F025         	goto	l3198
  1906  004B18                     u2580:
  1907  004B18                     
  1908                           ; BSR set to: 5
  1909                           ;C:\Program Files\Microchip\xc8\v2.32\pic\sources\c99\common\doprnt.c: 91:         fputs
      +                          ((const char *)buf, fp);
  1910  004B18  C574  F56B         	movff	pad@buf,fputs@s
  1911  004B1C  C575  F56C         	movff	pad@buf+1,fputs@s+1
  1912  004B20  C572  F56D         	movff	pad@fp,fputs@fp
  1913  004B24  C573  F56E         	movff	pad@fp+1,fputs@fp+1
  1914  004B28  ECA6  F028         	call	_fputs	;wreg free
  1915  004B2C                     l3198:
  1916                           
  1917                           ;C:\Program Files\Microchip\xc8\v2.32\pic\sources\c99\common\doprnt.c: 94:     return (i
      +                          nt)(strlen(buf) + (size_t)w);
  1918  004B2C  C574  F560         	movff	pad@buf,strlen@s
  1919  004B30  C575  F561         	movff	pad@buf+1,strlen@s+1
  1920  004B34  ECCA  F028         	call	_strlen	;wreg free
  1921  004B38  0105               	movlb	5	; () banked
  1922  004B3A  517B               	movf	pad@w& (0+255),w,b
  1923  004B3C  2560               	addwf	?_strlen& (0+255),w,b
  1924  004B3E  6F72               	movwf	?_pad& (0+255),b
  1925  004B40  517C               	movf	(pad@w+1)& (0+255),w,b
  1926  004B42  2161               	addwfc	(?_strlen+1)& (0+255),w,b
  1927  004B44  6F73               	movwf	(?_pad+1)& (0+255),b
  1928  004B46                     
  1929                           ; BSR set to: 5
  1930  004B46  0012               	return		;funcret
  1931  004B48                     __end_of_pad:
  1932                           	callstack 0
  1933                           
  1934 ;; *************** function _strlen *****************
  1935 ;; Defined at:
  1936 ;;		line 5 in file "C:\Program Files\Microchip\xc8\v2.32\pic\sources\c99\common\strlen.c"
  1937 ;; Parameters:    Size  Location     Type
  1938 ;;  s               2    0[BANK5 ] PTR const unsigned char 
  1939 ;;		 -> dbuf(32), 
  1940 ;; Auto vars:     Size  Location     Type
  1941 ;;  a               2    2[BANK5 ] PTR const unsigned char 
  1942 ;;		 -> dbuf(32), 
  1943 ;; Return value:  Size  Location     Type
  1944 ;;                  2    0[BANK5 ] unsigned int 
  1945 ;; Registers used:
  1946 ;;		wreg, fsr2l, fsr2h, status,2, status,0
  1947 ;; Tracked objects:
  1948 ;;		On entry : 0/0
  1949 ;;		On exit  : 0/0
  1950 ;;		Unchanged: 0/0
  1951 ;; Data sizes:     COMRAM   BANK5   BANK6   BANK7   BANK8   BANK9  BANK10  BANK11  BANK12  BANK13  BANK14  BANK15  BANK1
      +6  BANK17  BANK18  BANK19  BANK20  BANK21  BANK22  BANK23  BANK24  BANK25  BANK26  BANK27  BANK28  BANK29  BANK30  BANK3
      +1  BANK32  BANK33  BANK34  BANK35  BANK36  BANK37
  1952 ;;      Params:         0       2       0       0       0       0       0       0       0       0       0       0       
      +0       0       0       0       0       0       0       0       0       0       0       0       0       0       0       
      +0       0       0       0       0       0       0
  1953 ;;      Locals:         0       2       0       0       0       0       0       0       0       0       0       0       
      +0       0       0       0       0       0       0       0       0       0       0       0       0       0       0       
      +0       0       0       0       0       0       0
  1954 ;;      Temps:          0       0       0       0       0       0       0       0       0       0       0       0       
      +0       0       0       0       0       0       0       0       0       0       0       0       0       0       0       
      +0       0       0       0       0       0       0
  1955 ;;      Totals:         0       4       0       0       0       0       0       0       0       0       0       0       
      +0       0       0       0       0       0       0       0       0       0       0       0       0       0       0       
      +0       0       0       0       0       0       0
  1956 ;;Total ram usage:        4 bytes
  1957 ;; Hardware stack levels used: 1
  1958 ;; Hardware stack levels required when called: 5
  1959 ;; This function calls:
  1960 ;;		Nothing
  1961 ;; This function is called by:
  1962 ;;		_pad
  1963 ;; This function uses a non-reentrant model
  1964 ;;
  1965                           
  1966                           	psect	text6
  1967  005194                     __ptext6:
  1968                           	callstack 0
  1969  005194                     _strlen:
  1970                           	callstack 117
  1971  005194  C560  F562         	movff	strlen@s,strlen@a
  1972  005198  C561  F563         	movff	strlen@s+1,strlen@a+1
  1973  00519C  EFD3  F028         	goto	l3136
  1974  0051A0                     l3134:
  1975  0051A0  0105               	movlb	5	; () banked
  1976  0051A2  4B60               	infsnz	strlen@s& (0+255),f,b
  1977  0051A4  2B61               	incf	(strlen@s+1)& (0+255),f,b
  1978  0051A6                     l3136:
  1979  0051A6  0061  F580  F4D9   	movff	strlen@s,fsr2l
  1980  0051AC  0061  F584  F4DA   	movff	strlen@s+1,fsr2h
  1981  0051B2  50DF               	movf	indf2,w,c
  1982  0051B4  A4D8               	btfss	status,2,c
  1983  0051B6  EFDF  F028         	goto	u2471
  1984  0051BA  EFE1  F028         	goto	u2470
  1985  0051BE                     u2471:
  1986  0051BE  EFD0  F028         	goto	l3134
  1987  0051C2                     u2470:
  1988  0051C2  0105               	movlb	5	; () banked
  1989  0051C4  5162               	movf	strlen@a& (0+255),w,b
  1990  0051C6  5D60               	subwf	strlen@s& (0+255),w,b
  1991  0051C8  6F60               	movwf	?_strlen& (0+255),b
  1992  0051CA  5163               	movf	(strlen@a+1)& (0+255),w,b
  1993  0051CC  5961               	subwfb	(strlen@s+1)& (0+255),w,b
  1994  0051CE  6F61               	movwf	(?_strlen+1)& (0+255),b
  1995  0051D0                     
  1996                           ; BSR set to: 5
  1997  0051D0  0012               	return		;funcret
  1998  0051D2                     __end_of_strlen:
  1999                           	callstack 0
  2000                           
  2001 ;; *************** function _fputs *****************
  2002 ;; Defined at:
  2003 ;;		line 8 in file "C:\Program Files\Microchip\xc8\v2.32\pic\sources\c99\common\nf_fputs.c"
  2004 ;; Parameters:    Size  Location     Type
  2005 ;;  s               2   11[BANK5 ] PTR const unsigned char 
  2006 ;;		 -> dbuf(32), 
  2007 ;;  fp              2   13[BANK5 ] PTR struct _IO_FILE
  2008 ;;		 -> NULL(0), 
  2009 ;; Auto vars:     Size  Location     Type
  2010 ;;  i               2   16[BANK5 ] int 
  2011 ;;  c               1   15[BANK5 ] unsigned char 
  2012 ;; Return value:  Size  Location     Type
  2013 ;;                  2   11[BANK5 ] int 
  2014 ;; Registers used:
  2015 ;;		wreg, fsr1l, fsr1h, fsr2l, fsr2h, status,2, status,0, cstack
  2016 ;; Tracked objects:
  2017 ;;		On entry : 0/0
  2018 ;;		On exit  : 0/0
  2019 ;;		Unchanged: 0/0
  2020 ;; Data sizes:     COMRAM   BANK5   BANK6   BANK7   BANK8   BANK9  BANK10  BANK11  BANK12  BANK13  BANK14  BANK15  BANK1
      +6  BANK17  BANK18  BANK19  BANK20  BANK21  BANK22  BANK23  BANK24  BANK25  BANK26  BANK27  BANK28  BANK29  BANK30  BANK3
      +1  BANK32  BANK33  BANK34  BANK35  BANK36  BANK37
  2021 ;;      Params:         0       4       0       0       0       0       0       0       0       0       0       0       
      +0       0       0       0       0       0       0       0       0       0       0       0       0       0       0       
      +0       0       0       0       0       0       0
  2022 ;;      Locals:         0       3       0       0       0       0       0       0       0       0       0       0       
      +0       0       0       0       0       0       0       0       0       0       0       0       0       0       0       
      +0       0       0       0       0       0       0
  2023 ;;      Temps:          0       0       0       0       0       0       0       0       0       0       0       0       
      +0       0       0       0       0       0       0       0       0       0       0       0       0       0       0       
      +0       0       0       0       0       0       0
  2024 ;;      Totals:         0       7       0       0       0       0       0       0       0       0       0       0       
      +0       0       0       0       0       0       0       0       0       0       0       0       0       0       0       
      +0       0       0       0       0       0       0
  2025 ;;Total ram usage:        7 bytes
  2026 ;; Hardware stack levels used: 1
  2027 ;; Hardware stack levels required when called: 8
  2028 ;; This function calls:
  2029 ;;		_fputc
  2030 ;; This function is called by:
  2031 ;;		_pad
  2032 ;; This function uses a non-reentrant model
  2033 ;;
  2034                           
  2035                           	psect	text7
  2036  00514C                     __ptext7:
  2037                           	callstack 0
  2038  00514C                     _fputs:
  2039                           	callstack 114
  2040  00514C  0E00               	movlw	0
  2041  00514E  0105               	movlb	5	; () banked
  2042  005150  6F71               	movwf	(fputs@i+1)& (0+255),b
  2043  005152  0E00               	movlw	0
  2044  005154  6F70               	movwf	fputs@i& (0+255),b
  2045  005156  EFB9  F028         	goto	l3130
  2046  00515A                     l3126:
  2047                           
  2048                           ; BSR set to: 5
  2049  00515A  C56F  F562         	movff	fputs@c,fputc@c
  2050  00515E  6B63               	clrf	(fputc@c+1)& (0+255),b
  2051  005160  C56D  F564         	movff	fputs@fp,fputc@fp
  2052  005164  C56E  F565         	movff	fputs@fp+1,fputc@fp+1
  2053  005168  EC02  F027         	call	_fputc	;wreg free
  2054  00516C  0105               	movlb	5	; () banked
  2055  00516E  4B70               	infsnz	fputs@i& (0+255),f,b
  2056  005170  2B71               	incf	(fputs@i+1)& (0+255),f,b
  2057  005172                     l3130:
  2058                           
  2059                           ; BSR set to: 5
  2060  005172  5170               	movf	fputs@i& (0+255),w,b
  2061  005174  256B               	addwf	fputs@s& (0+255),w,b
  2062  005176  6ED9               	movwf	fsr2l,c
  2063  005178  5171               	movf	(fputs@i+1)& (0+255),w,b
  2064  00517A  216C               	addwfc	(fputs@s+1)& (0+255),w,b
  2065  00517C  6EDA               	movwf	fsr2h,c
  2066  00517E  50DF               	movf	indf2,w,c
  2067  005180  6F6F               	movwf	fputs@c& (0+255),b
  2068  005182  516F               	movf	fputs@c& (0+255),w,b
  2069  005184  A4D8               	btfss	status,2,c
  2070  005186  EFC7  F028         	goto	u2461
  2071  00518A  EFC9  F028         	goto	u2460
  2072  00518E                     u2461:
  2073  00518E  EFAD  F028         	goto	l3126
  2074  005192                     u2460:
  2075  005192                     
  2076                           ; BSR set to: 5
  2077  005192  0012               	return		;funcret
  2078  005194                     __end_of_fputs:
  2079                           	callstack 0
  2080                           
  2081 ;; *************** function _fputc *****************
  2082 ;; Defined at:
  2083 ;;		line 8 in file "C:\Program Files\Microchip\xc8\v2.32\pic\sources\c99\common\nf_fputc.c"
  2084 ;; Parameters:    Size  Location     Type
  2085 ;;  c               2    2[BANK5 ] int 
  2086 ;;  fp              2    4[BANK5 ] PTR struct _IO_FILE
  2087 ;;		 -> NULL(0), 
  2088 ;; Auto vars:     Size  Location     Type
  2089 ;;		None
  2090 ;; Return value:  Size  Location     Type
  2091 ;;                  2    2[BANK5 ] int 
  2092 ;; Registers used:
  2093 ;;		wreg, fsr1l, fsr1h, fsr2l, fsr2h, status,2, status,0, cstack
  2094 ;; Tracked objects:
  2095 ;;		On entry : 0/0
  2096 ;;		On exit  : 0/0
  2097 ;;		Unchanged: 0/0
  2098 ;; Data sizes:     COMRAM   BANK5   BANK6   BANK7   BANK8   BANK9  BANK10  BANK11  BANK12  BANK13  BANK14  BANK15  BANK1
      +6  BANK17  BANK18  BANK19  BANK20  BANK21  BANK22  BANK23  BANK24  BANK25  BANK26  BANK27  BANK28  BANK29  BANK30  BANK3
      +1  BANK32  BANK33  BANK34  BANK35  BANK36  BANK37
  2099 ;;      Params:         0       4       0       0       0       0       0       0       0       0       0       0       
      +0       0       0       0       0       0       0       0       0       0       0       0       0       0       0       
      +0       0       0       0       0       0       0
  2100 ;;      Locals:         0       0       0       0       0       0       0       0       0       0       0       0       
      +0       0       0       0       0       0       0       0       0       0       0       0       0       0       0       
      +0       0       0       0       0       0       0
  2101 ;;      Temps:          0       5       0       0       0       0       0       0       0       0       0       0       
      +0       0       0       0       0       0       0       0       0       0       0       0       0       0       0       
      +0       0       0       0       0       0       0
  2102 ;;      Totals:         0       9       0       0       0       0       0       0       0       0       0       0       
      +0       0       0       0       0       0       0       0       0       0       0       0       0       0       0       
      +0       0       0       0       0       0       0
  2103 ;;Total ram usage:        9 bytes
  2104 ;; Hardware stack levels used: 1
  2105 ;; Hardware stack levels required when called: 7
  2106 ;; This function calls:
  2107 ;;		_putch
  2108 ;; This function is called by:
  2109 ;;		_pad
  2110 ;;		_vfpfcnvrt
  2111 ;;		_fputs
  2112 ;; This function uses a non-reentrant model
  2113 ;;
  2114                           
  2115                           	psect	text8
  2116  004E04                     __ptext8:
  2117                           	callstack 0
  2118  004E04                     _fputc:
  2119                           	callstack 114
  2120  004E04  0105               	movlb	5	; () banked
  2121  004E06  5164               	movf	fputc@fp& (0+255),w,b
  2122  004E08  1165               	iorwf	(fputc@fp+1)& (0+255),w,b
  2123  004E0A  B4D8               	btfsc	status,2,c
  2124  004E0C  EF0A  F027         	goto	u2421
  2125  004E10  EF0C  F027         	goto	u2420
  2126  004E14                     u2421:
  2127  004E14  EF15  F027         	goto	l3114
  2128  004E18                     u2420:
  2129  004E18                     
  2130                           ; BSR set to: 5
  2131  004E18  5164               	movf	fputc@fp& (0+255),w,b
  2132  004E1A  1165               	iorwf	(fputc@fp+1)& (0+255),w,b
  2133  004E1C  A4D8               	btfss	status,2,c
  2134  004E1E  EF13  F027         	goto	u2431
  2135  004E22  EF15  F027         	goto	u2430
  2136  004E26                     u2431:
  2137  004E26  EF1A  F027         	goto	l3116
  2138  004E2A                     u2430:
  2139  004E2A                     l3114:
  2140                           
  2141                           ; BSR set to: 5
  2142  004E2A  5162               	movf	fputc@c& (0+255),w,b
  2143  004E2C  EC46  F02A         	call	_putch
  2144  004E30  EF4D  F027         	goto	l1384
  2145  004E34                     l3116:
  2146                           
  2147                           ; BSR set to: 5
  2148  004E34  EE20 F004          	lfsr	2,4
  2149  004E38  5164               	movf	fputc@fp& (0+255),w,b
  2150  004E3A  26D9               	addwf	fsr2l,f,c
  2151  004E3C  5165               	movf	(fputc@fp+1)& (0+255),w,b
  2152  004E3E  22DA               	addwfc	fsr2h,f,c
  2153  004E40  50DE               	movf	postinc2,w,c
  2154  004E42  10DE               	iorwf	postinc2,w,c
  2155  004E44  B4D8               	btfsc	status,2,c
  2156  004E46  EF27  F027         	goto	u2441
  2157  004E4A  EF29  F027         	goto	u2440
  2158  004E4E                     u2441:
  2159  004E4E  EF44  F027         	goto	l3120
  2160  004E52                     u2440:
  2161  004E52                     
  2162                           ; BSR set to: 5
  2163  004E52  EE20 F004          	lfsr	2,4
  2164  004E56  5164               	movf	fputc@fp& (0+255),w,b
  2165  004E58  26D9               	addwf	fsr2l,f,c
  2166  004E5A  5165               	movf	(fputc@fp+1)& (0+255),w,b
  2167  004E5C  22DA               	addwfc	fsr2h,f,c
  2168  004E5E  EE10 F002          	lfsr	1,2
  2169  004E62  5164               	movf	fputc@fp& (0+255),w,b
  2170  004E64  26E1               	addwf	fsr1l,f,c
  2171  004E66  5165               	movf	(fputc@fp+1)& (0+255),w,b
  2172  004E68  22E2               	addwfc	fsr1h,f,c
  2173  004E6A  50DE               	movf	postinc2,w,c
  2174  004E6C  5CE6               	subwf	postinc1,w,c
  2175  004E6E  50E6               	movf	postinc1,w,c
  2176  004E70  0A80               	xorlw	128
  2177  004E72  6F6A               	movwf	(??_fputc+4)& (0+255),b
  2178  004E74  50DE               	movf	postinc2,w,c
  2179  004E76  0A80               	xorlw	128
  2180  004E78  596A               	subwfb	(??_fputc+4)& (0+255),w,b
  2181  004E7A  B0D8               	btfsc	status,0,c
  2182  004E7C  EF42  F027         	goto	u2451
  2183  004E80  EF44  F027         	goto	u2450
  2184  004E84                     u2451:
  2185  004E84  EF4D  F027         	goto	l1384
  2186  004E88                     u2450:
  2187  004E88                     l3120:
  2188                           
  2189                           ; BSR set to: 5
  2190  004E88  EE20 F002          	lfsr	2,2
  2191  004E8C  5164               	movf	fputc@fp& (0+255),w,b
  2192  004E8E  26D9               	addwf	fsr2l,f,c
  2193  004E90  5165               	movf	(fputc@fp+1)& (0+255),w,b
  2194  004E92  22DA               	addwfc	fsr2h,f,c
  2195  004E94  2ADE               	incf	postinc2,f,c
  2196  004E96  0E00               	movlw	0
  2197  004E98  22DD               	addwfc	postdec2,f,c
  2198  004E9A                     l1384:
  2199  004E9A  0012               	return		;funcret
  2200  004E9C                     __end_of_fputc:
  2201                           	callstack 0
  2202                           
  2203 ;; *************** function _putch *****************
  2204 ;; Defined at:
  2205 ;;		line 205 in file "mcc_generated_files/uart1.c"
  2206 ;; Parameters:    Size  Location     Type
  2207 ;;  txData          1    wreg     unsigned char 
  2208 ;; Auto vars:     Size  Location     Type
  2209 ;;  txData          1    1[BANK5 ] unsigned char 
  2210 ;; Return value:  Size  Location     Type
  2211 ;;                  1    wreg      void 
  2212 ;; Registers used:
  2213 ;;		wreg, status,2, cstack
  2214 ;; Tracked objects:
  2215 ;;		On entry : 0/0
  2216 ;;		On exit  : 0/0
  2217 ;;		Unchanged: 0/0
  2218 ;; Data sizes:     COMRAM   BANK5   BANK6   BANK7   BANK8   BANK9  BANK10  BANK11  BANK12  BANK13  BANK14  BANK15  BANK1
      +6  BANK17  BANK18  BANK19  BANK20  BANK21  BANK22  BANK23  BANK24  BANK25  BANK26  BANK27  BANK28  BANK29  BANK30  BANK3
      +1  BANK32  BANK33  BANK34  BANK35  BANK36  BANK37
  2219 ;;      Params:         0       0       0       0       0       0       0       0       0       0       0       0       
      +0       0       0       0       0       0       0       0       0       0       0       0       0       0       0       
      +0       0       0       0       0       0       0
  2220 ;;      Locals:         0       1       0       0       0       0       0       0       0       0       0       0       
      +0       0       0       0       0       0       0       0       0       0       0       0       0       0       0       
      +0       0       0       0       0       0       0
  2221 ;;      Temps:          0       0       0       0       0       0       0       0       0       0       0       0       
      +0       0       0       0       0       0       0       0       0       0       0       0       0       0       0       
      +0       0       0       0       0       0       0
  2222 ;;      Totals:         0       1       0       0       0       0       0       0       0       0       0       0       
      +0       0       0       0       0       0       0       0       0       0       0       0       0       0       0       
      +0       0       0       0       0       0       0
  2223 ;;Total ram usage:        1 bytes
  2224 ;; Hardware stack levels used: 1
  2225 ;; Hardware stack levels required when called: 6
  2226 ;; This function calls:
  2227 ;;		_UART1_Write
  2228 ;; This function is called by:
  2229 ;;		_fputc
  2230 ;; This function uses a non-reentrant model
  2231 ;;
  2232                           
  2233                           	psect	text9
  2234  00548C                     __ptext9:
  2235                           	callstack 0
  2236  00548C                     _putch:
  2237                           	callstack 114
  2238                           
  2239                           ;incstack = 0
  2240                           ;putch@txData stored from wreg
  2241  00548C  0105               	movlb	5	; () banked
  2242  00548E  6F61               	movwf	putch@txData& (0+255),b
  2243  005490                     
  2244                           ;mcc_generated_files/uart1.c: 205: void putch(char txData);mcc_generated_files/uart1.c: 
      +                          206: {;mcc_generated_files/uart1.c: 207:     UART1_Write(txData);
  2245  005490  0105               	movlb	5	; () banked
  2246  005492  5161               	movf	putch@txData& (0+255),w,b
  2247  005494  EC24  F02A         	call	_UART1_Write
  2248  005498  0012               	return		;funcret
  2249  00549A                     __end_of_putch:
  2250                           	callstack 0
  2251                           
  2252 ;; *************** function _UART1_Write *****************
  2253 ;; Defined at:
  2254 ;;		line 191 in file "mcc_generated_files/uart1.c"
  2255 ;; Parameters:    Size  Location     Type
  2256 ;;  txData          1    wreg     unsigned char 
  2257 ;; Auto vars:     Size  Location     Type
  2258 ;;  txData          1    0[BANK5 ] unsigned char 
  2259 ;; Return value:  Size  Location     Type
  2260 ;;                  1    wreg      void 
  2261 ;; Registers used:
  2262 ;;		wreg
  2263 ;; Tracked objects:
  2264 ;;		On entry : 0/0
  2265 ;;		On exit  : 0/0
  2266 ;;		Unchanged: 0/0
  2267 ;; Data sizes:     COMRAM   BANK5   BANK6   BANK7   BANK8   BANK9  BANK10  BANK11  BANK12  BANK13  BANK14  BANK15  BANK1
      +6  BANK17  BANK18  BANK19  BANK20  BANK21  BANK22  BANK23  BANK24  BANK25  BANK26  BANK27  BANK28  BANK29  BANK30  BANK3
      +1  BANK32  BANK33  BANK34  BANK35  BANK36  BANK37
  2268 ;;      Params:         0       0       0       0       0       0       0       0       0       0       0       0       
      +0       0       0       0       0       0       0       0       0       0       0       0       0       0       0       
      +0       0       0       0       0       0       0
  2269 ;;      Locals:         0       1       0       0       0       0       0       0       0       0       0       0       
      +0       0       0       0       0       0       0       0       0       0       0       0       0       0       0       
      +0       0       0       0       0       0       0
  2270 ;;      Temps:          0       0       0       0       0       0       0       0       0       0       0       0       
      +0       0       0       0       0       0       0       0       0       0       0       0       0       0       0       
      +0       0       0       0       0       0       0
  2271 ;;      Totals:         0       1       0       0       0       0       0       0       0       0       0       0       
      +0       0       0       0       0       0       0       0       0       0       0       0       0       0       0       
      +0       0       0       0       0       0       0
  2272 ;;Total ram usage:        1 bytes
  2273 ;; Hardware stack levels used: 1
  2274 ;; Hardware stack levels required when called: 5
  2275 ;; This function calls:
  2276 ;;		Nothing
  2277 ;; This function is called by:
  2278 ;;		_putch
  2279 ;; This function uses a non-reentrant model
  2280 ;;
  2281                           
  2282                           	psect	text10
  2283  005448                     __ptext10:
  2284                           	callstack 0
  2285  005448                     _UART1_Write:
  2286                           	callstack 114
  2287                           
  2288                           ;incstack = 0
  2289                           ;UART1_Write@txData stored from wreg
  2290  005448  0105               	movlb	5	; () banked
  2291  00544A  6F60               	movwf	UART1_Write@txData& (0+255),b
  2292  00544C                     l293:
  2293                           
  2294                           ;mcc_generated_files/uart1.c: 193:     while(0 == PIR4bits.U1TXIF)
  2295  00544C  A2B2               	btfss	178,1,c	;volatile
  2296  00544E  EF2B  F02A         	goto	u2411
  2297  005452  EF2D  F02A         	goto	u2410
  2298  005456                     u2411:
  2299  005456  EF26  F02A         	goto	l293
  2300  00545A                     u2410:
  2301  00545A                     
  2302                           ;mcc_generated_files/uart1.c: 197:     U1TXB = txData;
  2303  00545A  0061  F580  F2A3   	movff	UART1_Write@txData,675	;volatile
  2304  005460  0012               	return		;funcret
  2305  005462                     __end_of_UART1_Write:
  2306                           	callstack 0
  2307                           
  2308 ;; *************** function ___lomod *****************
  2309 ;; Defined at:
  2310 ;;		line 9 in file "C:\Program Files\Microchip\xc8\v2.32\pic\sources\c99\common\lomod.c"
  2311 ;; Parameters:    Size  Location     Type
  2312 ;;  dividend        8    0[BANK5 ] unsigned long long 
  2313 ;;  divisor         8    8[BANK5 ] unsigned long long 
  2314 ;; Auto vars:     Size  Location     Type
  2315 ;;  counter         1   16[BANK5 ] unsigned char 
  2316 ;; Return value:  Size  Location     Type
  2317 ;;                  8    0[BANK5 ] unsigned long long 
  2318 ;; Registers used:
  2319 ;;		wreg, status,2, status,0
  2320 ;; Tracked objects:
  2321 ;;		On entry : 0/0
  2322 ;;		On exit  : 0/0
  2323 ;;		Unchanged: 0/0
  2324 ;; Data sizes:     COMRAM   BANK5   BANK6   BANK7   BANK8   BANK9  BANK10  BANK11  BANK12  BANK13  BANK14  BANK15  BANK1
      +6  BANK17  BANK18  BANK19  BANK20  BANK21  BANK22  BANK23  BANK24  BANK25  BANK26  BANK27  BANK28  BANK29  BANK30  BANK3
      +1  BANK32  BANK33  BANK34  BANK35  BANK36  BANK37
  2325 ;;      Params:         0      16       0       0       0       0       0       0       0       0       0       0       
      +0       0       0       0       0       0       0       0       0       0       0       0       0       0       0       
      +0       0       0       0       0       0       0
  2326 ;;      Locals:         0       1       0       0       0       0       0       0       0       0       0       0       
      +0       0       0       0       0       0       0       0       0       0       0       0       0       0       0       
      +0       0       0       0       0       0       0
  2327 ;;      Temps:          0       0       0       0       0       0       0       0       0       0       0       0       
      +0       0       0       0       0       0       0       0       0       0       0       0       0       0       0       
      +0       0       0       0       0       0       0
  2328 ;;      Totals:         0      17       0       0       0       0       0       0       0       0       0       0       
      +0       0       0       0       0       0       0       0       0       0       0       0       0       0       0       
      +0       0       0       0       0       0       0
  2329 ;;Total ram usage:       17 bytes
  2330 ;; Hardware stack levels used: 1
  2331 ;; Hardware stack levels required when called: 5
  2332 ;; This function calls:
  2333 ;;		Nothing
  2334 ;; This function is called by:
  2335 ;;		_utoa
  2336 ;; This function uses a non-reentrant model
  2337 ;;
  2338                           
  2339                           	psect	text11
  2340  0049AC                     __ptext11:
  2341                           	callstack 0
  2342  0049AC                     ___lomod:
  2343                           	callstack 118
  2344  0049AC  0105               	movlb	5	; () banked
  2345  0049AE  5168               	movf	___lomod@divisor& (0+255),w,b
  2346  0049B0  1169               	iorwf	(___lomod@divisor+1)& (0+255),w,b
  2347  0049B2  116A               	iorwf	(___lomod@divisor+2)& (0+255),w,b
  2348  0049B4  116B               	iorwf	(___lomod@divisor+3)& (0+255),w,b
  2349  0049B6  116C               	iorwf	(___lomod@divisor+4)& (0+255),w,b
  2350  0049B8  116D               	iorwf	(___lomod@divisor+5)& (0+255),w,b
  2351  0049BA  116E               	iorwf	(___lomod@divisor+6)& (0+255),w,b
  2352  0049BC  116F               	iorwf	(___lomod@divisor+7)& (0+255),w,b
  2353  0049BE  B4D8               	btfsc	status,2,c
  2354  0049C0  EFE4  F024         	goto	u2521
  2355  0049C4  EFE6  F024         	goto	u2520
  2356  0049C8                     u2521:
  2357  0049C8  EF2E  F025         	goto	l1085
  2358  0049CC                     u2520:
  2359  0049CC                     
  2360                           ; BSR set to: 5
  2361  0049CC  0E01               	movlw	1
  2362  0049CE  6F70               	movwf	___lomod@counter& (0+255),b
  2363  0049D0  EFF4  F024         	goto	l3170
  2364  0049D4                     l3168:
  2365                           
  2366                           ; BSR set to: 5
  2367  0049D4  90D8               	bcf	status,0,c
  2368  0049D6  3768               	rlcf	___lomod@divisor& (0+255),f,b
  2369  0049D8  3769               	rlcf	(___lomod@divisor+1)& (0+255),f,b
  2370  0049DA  376A               	rlcf	(___lomod@divisor+2)& (0+255),f,b
  2371  0049DC  376B               	rlcf	(___lomod@divisor+3)& (0+255),f,b
  2372  0049DE  376C               	rlcf	(___lomod@divisor+4)& (0+255),f,b
  2373  0049E0  376D               	rlcf	(___lomod@divisor+5)& (0+255),f,b
  2374  0049E2  376E               	rlcf	(___lomod@divisor+6)& (0+255),f,b
  2375  0049E4  376F               	rlcf	(___lomod@divisor+7)& (0+255),f,b
  2376  0049E6  2B70               	incf	___lomod@counter& (0+255),f,b
  2377  0049E8                     l3170:
  2378                           
  2379                           ; BSR set to: 5
  2380  0049E8  AF6F               	btfss	(___lomod@divisor+7)& (0+255),7,b
  2381  0049EA  EFF9  F024         	goto	u2531
  2382  0049EE  EFFB  F024         	goto	u2530
  2383  0049F2                     u2531:
  2384  0049F2  EFEA  F024         	goto	l3168
  2385  0049F6                     u2530:
  2386  0049F6                     l3172:
  2387                           
  2388                           ; BSR set to: 5
  2389  0049F6  5168               	movf	___lomod@divisor& (0+255),w,b
  2390  0049F8  5D60               	subwf	___lomod@dividend& (0+255),w,b
  2391  0049FA  5169               	movf	(___lomod@divisor+1)& (0+255),w,b
  2392  0049FC  5961               	subwfb	(___lomod@dividend+1)& (0+255),w,b
  2393  0049FE  516A               	movf	(___lomod@divisor+2)& (0+255),w,b
  2394  004A00  5962               	subwfb	(___lomod@dividend+2)& (0+255),w,b
  2395  004A02  516B               	movf	(___lomod@divisor+3)& (0+255),w,b
  2396  004A04  5963               	subwfb	(___lomod@dividend+3)& (0+255),w,b
  2397  004A06  516C               	movf	(___lomod@divisor+4)& (0+255),w,b
  2398  004A08  5964               	subwfb	(___lomod@dividend+4)& (0+255),w,b
  2399  004A0A  516D               	movf	(___lomod@divisor+5)& (0+255),w,b
  2400  004A0C  5965               	subwfb	(___lomod@dividend+5)& (0+255),w,b
  2401  004A0E  516E               	movf	(___lomod@divisor+6)& (0+255),w,b
  2402  004A10  5966               	subwfb	(___lomod@dividend+6)& (0+255),w,b
  2403  004A12  516F               	movf	(___lomod@divisor+7)& (0+255),w,b
  2404  004A14  5967               	subwfb	(___lomod@dividend+7)& (0+255),w,b
  2405  004A16  A0D8               	btfss	status,0,c
  2406  004A18  EF10  F025         	goto	u2541
  2407  004A1C  EF12  F025         	goto	u2540
  2408  004A20                     u2541:
  2409  004A20  EF22  F025         	goto	l3176
  2410  004A24                     u2540:
  2411  004A24                     
  2412                           ; BSR set to: 5
  2413  004A24  5168               	movf	___lomod@divisor& (0+255),w,b
  2414  004A26  5F60               	subwf	___lomod@dividend& (0+255),f,b
  2415  004A28  5169               	movf	(___lomod@divisor+1)& (0+255),w,b
  2416  004A2A  5B61               	subwfb	(___lomod@dividend+1)& (0+255),f,b
  2417  004A2C  516A               	movf	(___lomod@divisor+2)& (0+255),w,b
  2418  004A2E  5B62               	subwfb	(___lomod@dividend+2)& (0+255),f,b
  2419  004A30  516B               	movf	(___lomod@divisor+3)& (0+255),w,b
  2420  004A32  5B63               	subwfb	(___lomod@dividend+3)& (0+255),f,b
  2421  004A34  516C               	movf	(___lomod@divisor+4)& (0+255),w,b
  2422  004A36  5B64               	subwfb	(___lomod@dividend+4)& (0+255),f,b
  2423  004A38  516D               	movf	(___lomod@divisor+5)& (0+255),w,b
  2424  004A3A  5B65               	subwfb	(___lomod@dividend+5)& (0+255),f,b
  2425  004A3C  516E               	movf	(___lomod@divisor+6)& (0+255),w,b
  2426  004A3E  5B66               	subwfb	(___lomod@dividend+6)& (0+255),f,b
  2427  004A40  516F               	movf	(___lomod@divisor+7)& (0+255),w,b
  2428  004A42  5B67               	subwfb	(___lomod@dividend+7)& (0+255),f,b
  2429  004A44                     l3176:
  2430                           
  2431                           ; BSR set to: 5
  2432  004A44  90D8               	bcf	status,0,c
  2433  004A46  336F               	rrcf	(___lomod@divisor+7)& (0+255),f,b
  2434  004A48  336E               	rrcf	(___lomod@divisor+6)& (0+255),f,b
  2435  004A4A  336D               	rrcf	(___lomod@divisor+5)& (0+255),f,b
  2436  004A4C  336C               	rrcf	(___lomod@divisor+4)& (0+255),f,b
  2437  004A4E  336B               	rrcf	(___lomod@divisor+3)& (0+255),f,b
  2438  004A50  336A               	rrcf	(___lomod@divisor+2)& (0+255),f,b
  2439  004A52  3369               	rrcf	(___lomod@divisor+1)& (0+255),f,b
  2440  004A54  3368               	rrcf	___lomod@divisor& (0+255),f,b
  2441  004A56                     
  2442                           ; BSR set to: 5
  2443  004A56  2F70               	decfsz	___lomod@counter& (0+255),f,b
  2444  004A58  EFFB  F024         	goto	l3172
  2445  004A5C                     l1085:
  2446                           
  2447                           ; BSR set to: 5
  2448  004A5C  C560  F560         	movff	___lomod@dividend,?___lomod
  2449  004A60  C561  F561         	movff	___lomod@dividend+1,?___lomod+1
  2450  004A64  C562  F562         	movff	___lomod@dividend+2,?___lomod+2
  2451  004A68  C563  F563         	movff	___lomod@dividend+3,?___lomod+3
  2452  004A6C  C564  F564         	movff	___lomod@dividend+4,?___lomod+4
  2453  004A70  C565  F565         	movff	___lomod@dividend+5,?___lomod+5
  2454  004A74  C566  F566         	movff	___lomod@dividend+6,?___lomod+6
  2455  004A78  C567  F567         	movff	___lomod@dividend+7,?___lomod+7
  2456  004A7C                     
  2457                           ; BSR set to: 5
  2458  004A7C  0012               	return		;funcret
  2459  004A7E                     __end_of___lomod:
  2460                           	callstack 0
  2461                           
  2462 ;; *************** function ___lodiv *****************
  2463 ;; Defined at:
  2464 ;;		line 9 in file "C:\Program Files\Microchip\xc8\v2.32\pic\sources\c99\common\lodiv.c"
  2465 ;; Parameters:    Size  Location     Type
  2466 ;;  dividend        8    0[BANK5 ] unsigned long long 
  2467 ;;  divisor         8    8[BANK5 ] unsigned long long 
  2468 ;; Auto vars:     Size  Location     Type
  2469 ;;  quotient        8   16[BANK5 ] unsigned long long 
  2470 ;;  counter         1   24[BANK5 ] unsigned char 
  2471 ;; Return value:  Size  Location     Type
  2472 ;;                  8    0[BANK5 ] unsigned long long 
  2473 ;; Registers used:
  2474 ;;		wreg, fsr2l, fsr2h, status,2, status,0
  2475 ;; Tracked objects:
  2476 ;;		On entry : 0/0
  2477 ;;		On exit  : 0/0
  2478 ;;		Unchanged: 0/0
  2479 ;; Data sizes:     COMRAM   BANK5   BANK6   BANK7   BANK8   BANK9  BANK10  BANK11  BANK12  BANK13  BANK14  BANK15  BANK1
      +6  BANK17  BANK18  BANK19  BANK20  BANK21  BANK22  BANK23  BANK24  BANK25  BANK26  BANK27  BANK28  BANK29  BANK30  BANK3
      +1  BANK32  BANK33  BANK34  BANK35  BANK36  BANK37
  2480 ;;      Params:         0      16       0       0       0       0       0       0       0       0       0       0       
      +0       0       0       0       0       0       0       0       0       0       0       0       0       0       0       
      +0       0       0       0       0       0       0
  2481 ;;      Locals:         0       9       0       0       0       0       0       0       0       0       0       0       
      +0       0       0       0       0       0       0       0       0       0       0       0       0       0       0       
      +0       0       0       0       0       0       0
  2482 ;;      Temps:          0       0       0       0       0       0       0       0       0       0       0       0       
      +0       0       0       0       0       0       0       0       0       0       0       0       0       0       0       
      +0       0       0       0       0       0       0
  2483 ;;      Totals:         0      25       0       0       0       0       0       0       0       0       0       0       
      +0       0       0       0       0       0       0       0       0       0       0       0       0       0       0       
      +0       0       0       0       0       0       0
  2484 ;;Total ram usage:       25 bytes
  2485 ;; Hardware stack levels used: 1
  2486 ;; Hardware stack levels required when called: 5
  2487 ;; This function calls:
  2488 ;;		Nothing
  2489 ;; This function is called by:
  2490 ;;		_utoa
  2491 ;; This function uses a non-reentrant model
  2492 ;;
  2493                           
  2494                           	psect	text12
  2495  0048BA                     __ptext12:
  2496                           	callstack 0
  2497  0048BA                     ___lodiv:
  2498                           	callstack 118
  2499  0048BA  EE21  F170         	lfsr	2,___lodiv@quotient
  2500  0048BE  0E07               	movlw	7
  2501  0048C0                     u2481:
  2502  0048C0  6ADE               	clrf	postinc2,c
  2503  0048C2  06E8               	decf	wreg,f,c
  2504  0048C4  E2FD               	bc	u2481
  2505  0048C6  0105               	movlb	5	; () banked
  2506  0048C8  5168               	movf	___lodiv@divisor& (0+255),w,b
  2507  0048CA  1169               	iorwf	(___lodiv@divisor+1)& (0+255),w,b
  2508  0048CC  116A               	iorwf	(___lodiv@divisor+2)& (0+255),w,b
  2509  0048CE  116B               	iorwf	(___lodiv@divisor+3)& (0+255),w,b
  2510  0048D0  116C               	iorwf	(___lodiv@divisor+4)& (0+255),w,b
  2511  0048D2  116D               	iorwf	(___lodiv@divisor+5)& (0+255),w,b
  2512  0048D4  116E               	iorwf	(___lodiv@divisor+6)& (0+255),w,b
  2513  0048D6  116F               	iorwf	(___lodiv@divisor+7)& (0+255),w,b
  2514  0048D8  B4D8               	btfsc	status,2,c
  2515  0048DA  EF71  F024         	goto	u2491
  2516  0048DE  EF73  F024         	goto	u2490
  2517  0048E2                     u2491:
  2518  0048E2  EFC5  F024         	goto	l1075
  2519  0048E6                     u2490:
  2520  0048E6                     
  2521                           ; BSR set to: 5
  2522  0048E6  0E01               	movlw	1
  2523  0048E8  6F78               	movwf	___lodiv@counter& (0+255),b
  2524  0048EA  EF81  F024         	goto	l3150
  2525  0048EE                     l3148:
  2526                           
  2527                           ; BSR set to: 5
  2528  0048EE  90D8               	bcf	status,0,c
  2529  0048F0  3768               	rlcf	___lodiv@divisor& (0+255),f,b
  2530  0048F2  3769               	rlcf	(___lodiv@divisor+1)& (0+255),f,b
  2531  0048F4  376A               	rlcf	(___lodiv@divisor+2)& (0+255),f,b
  2532  0048F6  376B               	rlcf	(___lodiv@divisor+3)& (0+255),f,b
  2533  0048F8  376C               	rlcf	(___lodiv@divisor+4)& (0+255),f,b
  2534  0048FA  376D               	rlcf	(___lodiv@divisor+5)& (0+255),f,b
  2535  0048FC  376E               	rlcf	(___lodiv@divisor+6)& (0+255),f,b
  2536  0048FE  376F               	rlcf	(___lodiv@divisor+7)& (0+255),f,b
  2537  004900  2B78               	incf	___lodiv@counter& (0+255),f,b
  2538  004902                     l3150:
  2539                           
  2540                           ; BSR set to: 5
  2541  004902  AF6F               	btfss	(___lodiv@divisor+7)& (0+255),7,b
  2542  004904  EF86  F024         	goto	u2501
  2543  004908  EF88  F024         	goto	u2500
  2544  00490C                     u2501:
  2545  00490C  EF77  F024         	goto	l3148
  2546  004910                     u2500:
  2547  004910                     l3152:
  2548                           
  2549                           ; BSR set to: 5
  2550  004910  90D8               	bcf	status,0,c
  2551  004912  3770               	rlcf	___lodiv@quotient& (0+255),f,b
  2552  004914  3771               	rlcf	(___lodiv@quotient+1)& (0+255),f,b
  2553  004916  3772               	rlcf	(___lodiv@quotient+2)& (0+255),f,b
  2554  004918  3773               	rlcf	(___lodiv@quotient+3)& (0+255),f,b
  2555  00491A  3774               	rlcf	(___lodiv@quotient+4)& (0+255),f,b
  2556  00491C  3775               	rlcf	(___lodiv@quotient+5)& (0+255),f,b
  2557  00491E  3776               	rlcf	(___lodiv@quotient+6)& (0+255),f,b
  2558  004920  3777               	rlcf	(___lodiv@quotient+7)& (0+255),f,b
  2559  004922                     
  2560                           ; BSR set to: 5
  2561  004922  5168               	movf	___lodiv@divisor& (0+255),w,b
  2562  004924  5D60               	subwf	___lodiv@dividend& (0+255),w,b
  2563  004926  5169               	movf	(___lodiv@divisor+1)& (0+255),w,b
  2564  004928  5961               	subwfb	(___lodiv@dividend+1)& (0+255),w,b
  2565  00492A  516A               	movf	(___lodiv@divisor+2)& (0+255),w,b
  2566  00492C  5962               	subwfb	(___lodiv@dividend+2)& (0+255),w,b
  2567  00492E  516B               	movf	(___lodiv@divisor+3)& (0+255),w,b
  2568  004930  5963               	subwfb	(___lodiv@dividend+3)& (0+255),w,b
  2569  004932  516C               	movf	(___lodiv@divisor+4)& (0+255),w,b
  2570  004934  5964               	subwfb	(___lodiv@dividend+4)& (0+255),w,b
  2571  004936  516D               	movf	(___lodiv@divisor+5)& (0+255),w,b
  2572  004938  5965               	subwfb	(___lodiv@dividend+5)& (0+255),w,b
  2573  00493A  516E               	movf	(___lodiv@divisor+6)& (0+255),w,b
  2574  00493C  5966               	subwfb	(___lodiv@dividend+6)& (0+255),w,b
  2575  00493E  516F               	movf	(___lodiv@divisor+7)& (0+255),w,b
  2576  004940  5967               	subwfb	(___lodiv@dividend+7)& (0+255),w,b
  2577  004942  A0D8               	btfss	status,0,c
  2578  004944  EFA6  F024         	goto	u2511
  2579  004948  EFA8  F024         	goto	u2510
  2580  00494C                     u2511:
  2581  00494C  EFB9  F024         	goto	l3160
  2582  004950                     u2510:
  2583  004950                     
  2584                           ; BSR set to: 5
  2585  004950  5168               	movf	___lodiv@divisor& (0+255),w,b
  2586  004952  5F60               	subwf	___lodiv@dividend& (0+255),f,b
  2587  004954  5169               	movf	(___lodiv@divisor+1)& (0+255),w,b
  2588  004956  5B61               	subwfb	(___lodiv@dividend+1)& (0+255),f,b
  2589  004958  516A               	movf	(___lodiv@divisor+2)& (0+255),w,b
  2590  00495A  5B62               	subwfb	(___lodiv@dividend+2)& (0+255),f,b
  2591  00495C  516B               	movf	(___lodiv@divisor+3)& (0+255),w,b
  2592  00495E  5B63               	subwfb	(___lodiv@dividend+3)& (0+255),f,b
  2593  004960  516C               	movf	(___lodiv@divisor+4)& (0+255),w,b
  2594  004962  5B64               	subwfb	(___lodiv@dividend+4)& (0+255),f,b
  2595  004964  516D               	movf	(___lodiv@divisor+5)& (0+255),w,b
  2596  004966  5B65               	subwfb	(___lodiv@dividend+5)& (0+255),f,b
  2597  004968  516E               	movf	(___lodiv@divisor+6)& (0+255),w,b
  2598  00496A  5B66               	subwfb	(___lodiv@dividend+6)& (0+255),f,b
  2599  00496C  516F               	movf	(___lodiv@divisor+7)& (0+255),w,b
  2600  00496E  5B67               	subwfb	(___lodiv@dividend+7)& (0+255),f,b
  2601  004970                     
  2602                           ; BSR set to: 5
  2603  004970  8170               	bsf	___lodiv@quotient& (0+255),0,b
  2604  004972                     l3160:
  2605                           
  2606                           ; BSR set to: 5
  2607  004972  90D8               	bcf	status,0,c
  2608  004974  336F               	rrcf	(___lodiv@divisor+7)& (0+255),f,b
  2609  004976  336E               	rrcf	(___lodiv@divisor+6)& (0+255),f,b
  2610  004978  336D               	rrcf	(___lodiv@divisor+5)& (0+255),f,b
  2611  00497A  336C               	rrcf	(___lodiv@divisor+4)& (0+255),f,b
  2612  00497C  336B               	rrcf	(___lodiv@divisor+3)& (0+255),f,b
  2613  00497E  336A               	rrcf	(___lodiv@divisor+2)& (0+255),f,b
  2614  004980  3369               	rrcf	(___lodiv@divisor+1)& (0+255),f,b
  2615  004982  3368               	rrcf	___lodiv@divisor& (0+255),f,b
  2616  004984                     
  2617                           ; BSR set to: 5
  2618  004984  2F78               	decfsz	___lodiv@counter& (0+255),f,b
  2619  004986  EF88  F024         	goto	l3152
  2620  00498A                     l1075:
  2621                           
  2622                           ; BSR set to: 5
  2623  00498A  C570  F560         	movff	___lodiv@quotient,?___lodiv
  2624  00498E  C571  F561         	movff	___lodiv@quotient+1,?___lodiv+1
  2625  004992  C572  F562         	movff	___lodiv@quotient+2,?___lodiv+2
  2626  004996  C573  F563         	movff	___lodiv@quotient+3,?___lodiv+3
  2627  00499A  C574  F564         	movff	___lodiv@quotient+4,?___lodiv+4
  2628  00499E  C575  F565         	movff	___lodiv@quotient+5,?___lodiv+5
  2629  0049A2  C576  F566         	movff	___lodiv@quotient+6,?___lodiv+6
  2630  0049A6  C577  F567         	movff	___lodiv@quotient+7,?___lodiv+7
  2631  0049AA                     
  2632                           ; BSR set to: 5
  2633  0049AA  0012               	return		;funcret
  2634  0049AC                     __end_of___lodiv:
  2635                           	callstack 0
  2636                           
  2637 ;; *************** function _SYSTEM_Initialize *****************
  2638 ;; Defined at:
  2639 ;;		line 50 in file "mcc_generated_files/mcc.c"
  2640 ;; Parameters:    Size  Location     Type
  2641 ;;		None
  2642 ;; Auto vars:     Size  Location     Type
  2643 ;;		None
  2644 ;; Return value:  Size  Location     Type
  2645 ;;                  1    wreg      void 
  2646 ;; Registers used:
  2647 ;;		wreg, status,2, status,0, cstack
  2648 ;; Tracked objects:
  2649 ;;		On entry : 0/0
  2650 ;;		On exit  : 0/0
  2651 ;;		Unchanged: 0/0
  2652 ;; Data sizes:     COMRAM   BANK5   BANK6   BANK7   BANK8   BANK9  BANK10  BANK11  BANK12  BANK13  BANK14  BANK15  BANK1
      +6  BANK17  BANK18  BANK19  BANK20  BANK21  BANK22  BANK23  BANK24  BANK25  BANK26  BANK27  BANK28  BANK29  BANK30  BANK3
      +1  BANK32  BANK33  BANK34  BANK35  BANK36  BANK37
  2653 ;;      Params:         0       0       0       0       0       0       0       0       0       0       0       0       
      +0       0       0       0       0       0       0       0       0       0       0       0       0       0       0       
      +0       0       0       0       0       0       0
  2654 ;;      Locals:         0       0       0       0       0       0       0       0       0       0       0       0       
      +0       0       0       0       0       0       0       0       0       0       0       0       0       0       0       
      +0       0       0       0       0       0       0
  2655 ;;      Temps:          0       0       0       0       0       0       0       0       0       0       0       0       
      +0       0       0       0       0       0       0       0       0       0       0       0       0       0       0       
      +0       0       0       0       0       0       0
  2656 ;;      Totals:         0       0       0       0       0       0       0       0       0       0       0       0       
      +0       0       0       0       0       0       0       0       0       0       0       0       0       0       0       
      +0       0       0       0       0       0       0
  2657 ;;Total ram usage:        0 bytes
  2658 ;; Hardware stack levels used: 1
  2659 ;; Hardware stack levels required when called: 7
  2660 ;; This function calls:
  2661 ;;		_ADCC_Initialize
  2662 ;;		_INTERRUPT_Initialize
  2663 ;;		_OSCILLATOR_Initialize
  2664 ;;		_PIN_MANAGER_Initialize
  2665 ;;		_PMD_Initialize
  2666 ;;		_PWM1_Initialize
  2667 ;;		_TMR2_Initialize
  2668 ;;		_UART1_Initialize
  2669 ;; This function is called by:
  2670 ;;		_main
  2671 ;; This function uses a non-reentrant model
  2672 ;;
  2673                           
  2674                           	psect	text13
  2675  0053AC                     __ptext13:
  2676                           	callstack 0
  2677  0053AC                     _SYSTEM_Initialize:
  2678                           	callstack 120
  2679  0053AC                     
  2680                           ;mcc_generated_files/mcc.c: 52:     INTERRUPT_Initialize();
  2681  0053AC  EC6C  F02A         	call	_INTERRUPT_Initialize	;wreg free
  2682  0053B0                     
  2683                           ;mcc_generated_files/mcc.c: 53:     PMD_Initialize();
  2684  0053B0  ECC4  F029         	call	_PMD_Initialize	;wreg free
  2685  0053B4                     
  2686                           ;mcc_generated_files/mcc.c: 54:     PIN_MANAGER_Initialize();
  2687  0053B4  EC08  F026         	call	_PIN_MANAGER_Initialize	;wreg free
  2688  0053B8                     
  2689                           ;mcc_generated_files/mcc.c: 55:     OSCILLATOR_Initialize();
  2690  0053B8  EC16  F02A         	call	_OSCILLATOR_Initialize	;wreg free
  2691  0053BC                     
  2692                           ;mcc_generated_files/mcc.c: 56:     PWM1_Initialize();
  2693  0053BC  EC31  F02A         	call	_PWM1_Initialize	;wreg free
  2694  0053C0                     
  2695                           ;mcc_generated_files/mcc.c: 57:     ADCC_Initialize();
  2696  0053C0  EC4F  F028         	call	_ADCC_Initialize	;wreg free
  2697  0053C4                     
  2698                           ;mcc_generated_files/mcc.c: 58:     TMR2_Initialize();
  2699  0053C4  EC08  F02A         	call	_TMR2_Initialize	;wreg free
  2700  0053C8                     
  2701                           ;mcc_generated_files/mcc.c: 59:     UART1_Initialize();
  2702  0053C8  ECB3  F026         	call	_UART1_Initialize	;wreg free
  2703  0053CC  0012               	return		;funcret
  2704  0053CE                     __end_of_SYSTEM_Initialize:
  2705                           	callstack 0
  2706                           
  2707 ;; *************** function _UART1_Initialize *****************
  2708 ;; Defined at:
  2709 ;;		line 82 in file "mcc_generated_files/uart1.c"
  2710 ;; Parameters:    Size  Location     Type
  2711 ;;		None
  2712 ;; Auto vars:     Size  Location     Type
  2713 ;;		None
  2714 ;; Return value:  Size  Location     Type
  2715 ;;                  1    wreg      void 
  2716 ;; Registers used:
  2717 ;;		wreg, status,2, status,0, cstack
  2718 ;; Tracked objects:
  2719 ;;		On entry : 0/0
  2720 ;;		On exit  : 0/0
  2721 ;;		Unchanged: 0/0
  2722 ;; Data sizes:     COMRAM   BANK5   BANK6   BANK7   BANK8   BANK9  BANK10  BANK11  BANK12  BANK13  BANK14  BANK15  BANK1
      +6  BANK17  BANK18  BANK19  BANK20  BANK21  BANK22  BANK23  BANK24  BANK25  BANK26  BANK27  BANK28  BANK29  BANK30  BANK3
      +1  BANK32  BANK33  BANK34  BANK35  BANK36  BANK37
  2723 ;;      Params:         0       0       0       0       0       0       0       0       0       0       0       0       
      +0       0       0       0       0       0       0       0       0       0       0       0       0       0       0       
      +0       0       0       0       0       0       0
  2724 ;;      Locals:         0       0       0       0       0       0       0       0       0       0       0       0       
      +0       0       0       0       0       0       0       0       0       0       0       0       0       0       0       
      +0       0       0       0       0       0       0
  2725 ;;      Temps:          0       0       0       0       0       0       0       0       0       0       0       0       
      +0       0       0       0       0       0       0       0       0       0       0       0       0       0       0       
      +0       0       0       0       0       0       0
  2726 ;;      Totals:         0       0       0       0       0       0       0       0       0       0       0       0       
      +0       0       0       0       0       0       0       0       0       0       0       0       0       0       0       
      +0       0       0       0       0       0       0
  2727 ;;Total ram usage:        0 bytes
  2728 ;; Hardware stack levels used: 1
  2729 ;; Hardware stack levels required when called: 6
  2730 ;; This function calls:
  2731 ;;		_UART1_SetErrorHandler
  2732 ;;		_UART1_SetFramingErrorHandler
  2733 ;;		_UART1_SetOverrunErrorHandler
  2734 ;;		_UART1_SetRxInterruptHandler
  2735 ;; This function is called by:
  2736 ;;		_SYSTEM_Initialize
  2737 ;; This function uses a non-reentrant model
  2738 ;;
  2739                           
  2740                           	psect	text14
  2741  004D66                     __ptext14:
  2742                           	callstack 0
  2743  004D66                     _UART1_Initialize:
  2744                           	callstack 120
  2745  004D66                     
  2746                           ;mcc_generated_files/uart1.c: 85:     PIE4bits.U1RXIE = 0;
  2747  004D66  90A2               	bcf	162,0,c	;volatile
  2748  004D68                     
  2749                           ;mcc_generated_files/uart1.c: 86:     UART1_SetRxInterruptHandler(UART1_Receive_ISR);
  2750  004D68  0E48               	movlw	low _UART1_Receive_ISR
  2751  004D6A  0105               	movlb	5	; () banked
  2752  004D6C  6F60               	movwf	UART1_SetRxInterruptHandler@InterruptHandler& (0+255),b
  2753  004D6E  0E4B               	movlw	high _UART1_Receive_ISR
  2754  004D70  6F61               	movwf	(UART1_SetRxInterruptHandler@InterruptHandler+1)& (0+255),b
  2755  004D72  0E00               	movlw	low (_UART1_Receive_ISR shr (0+16))
  2756  004D74  6F62               	movwf	(UART1_SetRxInterruptHandler@InterruptHandler+2)& (0+255),b
  2757  004D76  EC4D  F02A         	call	_UART1_SetRxInterruptHandler	;wreg free
  2758  004D7A                     
  2759                           ;mcc_generated_files/uart1.c: 91:     U1P1L = 0x00;
  2760  004D7A  0E00               	movlw	0
  2761  004D7C  0102               	movlb	2	; () banked
  2762  004D7E  6FA5               	movwf	165,b	;volatile
  2763  004D80                     
  2764                           ; BSR set to: 2
  2765                           ;mcc_generated_files/uart1.c: 94:     U1P1H = 0x00;
  2766  004D80  0E00               	movlw	0
  2767  004D82  6FA6               	movwf	166,b	;volatile
  2768  004D84                     
  2769                           ; BSR set to: 2
  2770                           ;mcc_generated_files/uart1.c: 97:     U1P2L = 0x00;
  2771  004D84  0E00               	movlw	0
  2772  004D86  6FA7               	movwf	167,b	;volatile
  2773  004D88                     
  2774                           ; BSR set to: 2
  2775                           ;mcc_generated_files/uart1.c: 100:     U1P2H = 0x00;
  2776  004D88  0E00               	movlw	0
  2777  004D8A  6FA8               	movwf	168,b	;volatile
  2778  004D8C                     
  2779                           ; BSR set to: 2
  2780                           ;mcc_generated_files/uart1.c: 103:     U1P3L = 0x00;
  2781  004D8C  0E00               	movlw	0
  2782  004D8E  6FA9               	movwf	169,b	;volatile
  2783  004D90                     
  2784                           ; BSR set to: 2
  2785                           ;mcc_generated_files/uart1.c: 106:     U1P3H = 0x00;
  2786  004D90  0E00               	movlw	0
  2787  004D92  6FAA               	movwf	170,b	;volatile
  2788  004D94                     
  2789                           ; BSR set to: 2
  2790                           ;mcc_generated_files/uart1.c: 109:     U1CON0 = 0xB0;
  2791  004D94  0EB0               	movlw	176
  2792  004D96  6FAB               	movwf	171,b	;volatile
  2793  004D98                     
  2794                           ; BSR set to: 2
  2795                           ;mcc_generated_files/uart1.c: 112:     U1CON1 = 0x80;
  2796  004D98  0E80               	movlw	128
  2797  004D9A  6FAC               	movwf	172,b	;volatile
  2798  004D9C                     
  2799                           ; BSR set to: 2
  2800                           ;mcc_generated_files/uart1.c: 115:     U1CON2 = 0x00;
  2801  004D9C  0E00               	movlw	0
  2802  004D9E  6FAD               	movwf	173,b	;volatile
  2803  004DA0                     
  2804                           ; BSR set to: 2
  2805                           ;mcc_generated_files/uart1.c: 118:     U1BRGL = 0x8A;
  2806  004DA0  0E8A               	movlw	138
  2807  004DA2  6FAE               	movwf	174,b	;volatile
  2808  004DA4                     
  2809                           ; BSR set to: 2
  2810                           ;mcc_generated_files/uart1.c: 121:     U1BRGH = 0x00;
  2811  004DA4  0E00               	movlw	0
  2812  004DA6  6FAF               	movwf	175,b	;volatile
  2813  004DA8                     
  2814                           ; BSR set to: 2
  2815                           ;mcc_generated_files/uart1.c: 124:     U1FIFO = 0x00;
  2816  004DA8  0E00               	movlw	0
  2817  004DAA  6FB0               	movwf	176,b	;volatile
  2818  004DAC                     
  2819                           ; BSR set to: 2
  2820                           ;mcc_generated_files/uart1.c: 127:     U1UIR = 0x00;
  2821  004DAC  0E00               	movlw	0
  2822  004DAE  6FB1               	movwf	177,b	;volatile
  2823  004DB0                     
  2824                           ; BSR set to: 2
  2825                           ;mcc_generated_files/uart1.c: 130:     U1ERRIR = 0x00;
  2826  004DB0  0E00               	movlw	0
  2827  004DB2  6FB2               	movwf	178,b	;volatile
  2828  004DB4                     
  2829                           ; BSR set to: 2
  2830                           ;mcc_generated_files/uart1.c: 133:     U1ERRIE = 0x00;
  2831  004DB4  0E00               	movlw	0
  2832  004DB6  6FB3               	movwf	179,b	;volatile
  2833  004DB8                     
  2834                           ; BSR set to: 2
  2835                           ;mcc_generated_files/uart1.c: 136:     UART1_SetFramingErrorHandler(UART1_DefaultFraming
      +                          ErrorHandler);
  2836  004DB8  0EDE               	movlw	low _UART1_DefaultFramingErrorHandler
  2837  004DBA  0105               	movlb	5	; () banked
  2838  004DBC  6F60               	movwf	UART1_SetFramingErrorHandler@interruptHandler& (0+255),b
  2839  004DBE  0E54               	movlw	high _UART1_DefaultFramingErrorHandler
  2840  004DC0  6F61               	movwf	(UART1_SetFramingErrorHandler@interruptHandler+1)& (0+255),b
  2841  004DC2  0E00               	movlw	low (_UART1_DefaultFramingErrorHandler shr (0+16))
  2842  004DC4  6F62               	movwf	(UART1_SetFramingErrorHandler@interruptHandler+2)& (0+255),b
  2843  004DC6  EC5B  F02A         	call	_UART1_SetFramingErrorHandler	;wreg free
  2844  004DCA                     
  2845                           ;mcc_generated_files/uart1.c: 137:     UART1_SetOverrunErrorHandler(UART1_DefaultOverrun
      +                          ErrorHandler);
  2846  004DCA  0EDC               	movlw	low _UART1_DefaultOverrunErrorHandler
  2847  004DCC  0105               	movlb	5	; () banked
  2848  004DCE  6F60               	movwf	UART1_SetOverrunErrorHandler@interruptHandler& (0+255),b
  2849  004DD0  0E54               	movlw	high _UART1_DefaultOverrunErrorHandler
  2850  004DD2  6F61               	movwf	(UART1_SetOverrunErrorHandler@interruptHandler+1)& (0+255),b
  2851  004DD4  0E00               	movlw	low (_UART1_DefaultOverrunErrorHandler shr (0+16))
  2852  004DD6  6F62               	movwf	(UART1_SetOverrunErrorHandler@interruptHandler+2)& (0+255),b
  2853  004DD8  EC54  F02A         	call	_UART1_SetOverrunErrorHandler	;wreg free
  2854  004DDC                     
  2855                           ;mcc_generated_files/uart1.c: 138:     UART1_SetErrorHandler(UART1_DefaultErrorHandler);
  2856  004DDC  0ED2               	movlw	low _UART1_DefaultErrorHandler
  2857  004DDE  0105               	movlb	5	; () banked
  2858  004DE0  6F60               	movwf	UART1_SetErrorHandler@interruptHandler& (0+255),b
  2859  004DE2  0E54               	movlw	high _UART1_DefaultErrorHandler
  2860  004DE4  6F61               	movwf	(UART1_SetErrorHandler@interruptHandler+1)& (0+255),b
  2861  004DE6  0E00               	movlw	low (_UART1_DefaultErrorHandler shr (0+16))
  2862  004DE8  6F62               	movwf	(UART1_SetErrorHandler@interruptHandler+2)& (0+255),b
  2863  004DEA  EC62  F02A         	call	_UART1_SetErrorHandler	;wreg free
  2864                           
  2865                           ;mcc_generated_files/uart1.c: 140:     uart1RxLastError.status = 0;
  2866  004DEE  0E00               	movlw	0
  2867  004DF0  0105               	movlb	5	; () banked
  2868  004DF2  6FD9               	movwf	_uart1RxLastError& (0+255),b	;volatile
  2869                           
  2870                           ;mcc_generated_files/uart1.c: 142:     uart1RxHead = 0;
  2871  004DF4  0E00               	movlw	0
  2872  004DF6  6FDA               	movwf	_uart1RxHead& (0+255),b	;volatile
  2873                           
  2874                           ;mcc_generated_files/uart1.c: 143:     uart1RxTail = 0;
  2875  004DF8  0E00               	movlw	0
  2876  004DFA  6E58               	movwf	_uart1RxTail^(0+1280),c	;volatile
  2877                           
  2878                           ;mcc_generated_files/uart1.c: 144:     uart1RxCount = 0;
  2879  004DFC  0E00               	movlw	0
  2880  004DFE  6E57               	movwf	_uart1RxCount^(0+1280),c	;volatile
  2881  004E00                     
  2882                           ; BSR set to: 5
  2883                           ;mcc_generated_files/uart1.c: 147:     PIE4bits.U1RXIE = 1;
  2884  004E00  80A2               	bsf	162,0,c	;volatile
  2885  004E02                     
  2886                           ; BSR set to: 5
  2887  004E02  0012               	return		;funcret
  2888  004E04                     __end_of_UART1_Initialize:
  2889                           	callstack 0
  2890                           
  2891 ;; *************** function _UART1_SetRxInterruptHandler *****************
  2892 ;; Defined at:
  2893 ;;		line 270 in file "mcc_generated_files/uart1.c"
  2894 ;; Parameters:    Size  Location     Type
  2895 ;;  InterruptHan    3    0[BANK5 ] PTR FTN()void 
  2896 ;;		 -> UART1_Receive_ISR(1), 
  2897 ;; Auto vars:     Size  Location     Type
  2898 ;;		None
  2899 ;; Return value:  Size  Location     Type
  2900 ;;                  1    wreg      void 
  2901 ;; Registers used:
  2902 ;;		wreg, status,2, status,0
  2903 ;; Tracked objects:
  2904 ;;		On entry : 0/0
  2905 ;;		On exit  : 0/0
  2906 ;;		Unchanged: 0/0
  2907 ;; Data sizes:     COMRAM   BANK5   BANK6   BANK7   BANK8   BANK9  BANK10  BANK11  BANK12  BANK13  BANK14  BANK15  BANK1
      +6  BANK17  BANK18  BANK19  BANK20  BANK21  BANK22  BANK23  BANK24  BANK25  BANK26  BANK27  BANK28  BANK29  BANK30  BANK3
      +1  BANK32  BANK33  BANK34  BANK35  BANK36  BANK37
  2908 ;;      Params:         0       3       0       0       0       0       0       0       0       0       0       0       
      +0       0       0       0       0       0       0       0       0       0       0       0       0       0       0       
      +0       0       0       0       0       0       0
  2909 ;;      Locals:         0       0       0       0       0       0       0       0       0       0       0       0       
      +0       0       0       0       0       0       0       0       0       0       0       0       0       0       0       
      +0       0       0       0       0       0       0
  2910 ;;      Temps:          0       0       0       0       0       0       0       0       0       0       0       0       
      +0       0       0       0       0       0       0       0       0       0       0       0       0       0       0       
      +0       0       0       0       0       0       0
  2911 ;;      Totals:         0       3       0       0       0       0       0       0       0       0       0       0       
      +0       0       0       0       0       0       0       0       0       0       0       0       0       0       0       
      +0       0       0       0       0       0       0
  2912 ;;Total ram usage:        3 bytes
  2913 ;; Hardware stack levels used: 1
  2914 ;; Hardware stack levels required when called: 5
  2915 ;; This function calls:
  2916 ;;		Nothing
  2917 ;; This function is called by:
  2918 ;;		_UART1_Initialize
  2919 ;; This function uses a non-reentrant model
  2920 ;;
  2921                           
  2922                           	psect	text15
  2923  00549A                     __ptext15:
  2924                           	callstack 0
  2925  00549A                     _UART1_SetRxInterruptHandler:
  2926                           	callstack 120
  2927  00549A                     
  2928                           ;mcc_generated_files/uart1.c: 271:     UART1_RxInterruptHandler = InterruptHandler;
  2929  00549A  C560  F559         	movff	UART1_SetRxInterruptHandler@InterruptHandler,_UART1_RxInterruptHandler
  2930  00549E  C561  F55A         	movff	UART1_SetRxInterruptHandler@InterruptHandler+1,_UART1_RxInterruptHandler+1
  2931  0054A2  C562  F55B         	movff	UART1_SetRxInterruptHandler@InterruptHandler+2,_UART1_RxInterruptHandler+2
  2932  0054A6  0012               	return		;funcret
  2933  0054A8                     __end_of_UART1_SetRxInterruptHandler:
  2934                           	callstack 0
  2935                           
  2936 ;; *************** function _UART1_SetOverrunErrorHandler *****************
  2937 ;; Defined at:
  2938 ;;		line 260 in file "mcc_generated_files/uart1.c"
  2939 ;; Parameters:    Size  Location     Type
  2940 ;;  interruptHan    3    0[BANK5 ] PTR FTN()void 
  2941 ;;		 -> UART1_DefaultOverrunErrorHandler(1), 
  2942 ;; Auto vars:     Size  Location     Type
  2943 ;;		None
  2944 ;; Return value:  Size  Location     Type
  2945 ;;                  1    wreg      void 
  2946 ;; Registers used:
  2947 ;;		wreg, status,2, status,0
  2948 ;; Tracked objects:
  2949 ;;		On entry : 0/0
  2950 ;;		On exit  : 0/0
  2951 ;;		Unchanged: 0/0
  2952 ;; Data sizes:     COMRAM   BANK5   BANK6   BANK7   BANK8   BANK9  BANK10  BANK11  BANK12  BANK13  BANK14  BANK15  BANK1
      +6  BANK17  BANK18  BANK19  BANK20  BANK21  BANK22  BANK23  BANK24  BANK25  BANK26  BANK27  BANK28  BANK29  BANK30  BANK3
      +1  BANK32  BANK33  BANK34  BANK35  BANK36  BANK37
  2953 ;;      Params:         0       3       0       0       0       0       0       0       0       0       0       0       
      +0       0       0       0       0       0       0       0       0       0       0       0       0       0       0       
      +0       0       0       0       0       0       0
  2954 ;;      Locals:         0       0       0       0       0       0       0       0       0       0       0       0       
      +0       0       0       0       0       0       0       0       0       0       0       0       0       0       0       
      +0       0       0       0       0       0       0
  2955 ;;      Temps:          0       0       0       0       0       0       0       0       0       0       0       0       
      +0       0       0       0       0       0       0       0       0       0       0       0       0       0       0       
      +0       0       0       0       0       0       0
  2956 ;;      Totals:         0       3       0       0       0       0       0       0       0       0       0       0       
      +0       0       0       0       0       0       0       0       0       0       0       0       0       0       0       
      +0       0       0       0       0       0       0
  2957 ;;Total ram usage:        3 bytes
  2958 ;; Hardware stack levels used: 1
  2959 ;; Hardware stack levels required when called: 5
  2960 ;; This function calls:
  2961 ;;		Nothing
  2962 ;; This function is called by:
  2963 ;;		_UART1_Initialize
  2964 ;; This function uses a non-reentrant model
  2965 ;;
  2966                           
  2967                           	psect	text16
  2968  0054A8                     __ptext16:
  2969                           	callstack 0
  2970  0054A8                     _UART1_SetOverrunErrorHandler:
  2971                           	callstack 120
  2972  0054A8                     
  2973                           ;mcc_generated_files/uart1.c: 261:     UART1_OverrunErrorHandler = interruptHandler;
  2974  0054A8  C560  F5DE         	movff	UART1_SetOverrunErrorHandler@interruptHandler,_UART1_OverrunErrorHandler
  2975  0054AC  C561  F5DF         	movff	UART1_SetOverrunErrorHandler@interruptHandler+1,_UART1_OverrunErrorHandler+1
  2976  0054B0  C562  F5E0         	movff	UART1_SetOverrunErrorHandler@interruptHandler+2,_UART1_OverrunErrorHandler+2
  2977  0054B4  0012               	return		;funcret
  2978  0054B6                     __end_of_UART1_SetOverrunErrorHandler:
  2979                           	callstack 0
  2980                           
  2981 ;; *************** function _UART1_SetFramingErrorHandler *****************
  2982 ;; Defined at:
  2983 ;;		line 256 in file "mcc_generated_files/uart1.c"
  2984 ;; Parameters:    Size  Location     Type
  2985 ;;  interruptHan    3    0[BANK5 ] PTR FTN()void 
  2986 ;;		 -> UART1_DefaultFramingErrorHandler(1), 
  2987 ;; Auto vars:     Size  Location     Type
  2988 ;;		None
  2989 ;; Return value:  Size  Location     Type
  2990 ;;                  1    wreg      void 
  2991 ;; Registers used:
  2992 ;;		wreg, status,2, status,0
  2993 ;; Tracked objects:
  2994 ;;		On entry : 0/0
  2995 ;;		On exit  : 0/0
  2996 ;;		Unchanged: 0/0
  2997 ;; Data sizes:     COMRAM   BANK5   BANK6   BANK7   BANK8   BANK9  BANK10  BANK11  BANK12  BANK13  BANK14  BANK15  BANK1
      +6  BANK17  BANK18  BANK19  BANK20  BANK21  BANK22  BANK23  BANK24  BANK25  BANK26  BANK27  BANK28  BANK29  BANK30  BANK3
      +1  BANK32  BANK33  BANK34  BANK35  BANK36  BANK37
  2998 ;;      Params:         0       3       0       0       0       0       0       0       0       0       0       0       
      +0       0       0       0       0       0       0       0       0       0       0       0       0       0       0       
      +0       0       0       0       0       0       0
  2999 ;;      Locals:         0       0       0       0       0       0       0       0       0       0       0       0       
      +0       0       0       0       0       0       0       0       0       0       0       0       0       0       0       
      +0       0       0       0       0       0       0
  3000 ;;      Temps:          0       0       0       0       0       0       0       0       0       0       0       0       
      +0       0       0       0       0       0       0       0       0       0       0       0       0       0       0       
      +0       0       0       0       0       0       0
  3001 ;;      Totals:         0       3       0       0       0       0       0       0       0       0       0       0       
      +0       0       0       0       0       0       0       0       0       0       0       0       0       0       0       
      +0       0       0       0       0       0       0
  3002 ;;Total ram usage:        3 bytes
  3003 ;; Hardware stack levels used: 1
  3004 ;; Hardware stack levels required when called: 5
  3005 ;; This function calls:
  3006 ;;		Nothing
  3007 ;; This function is called by:
  3008 ;;		_UART1_Initialize
  3009 ;; This function uses a non-reentrant model
  3010 ;;
  3011                           
  3012                           	psect	text17
  3013  0054B6                     __ptext17:
  3014                           	callstack 0
  3015  0054B6                     _UART1_SetFramingErrorHandler:
  3016                           	callstack 120
  3017  0054B6                     
  3018                           ;mcc_generated_files/uart1.c: 257:     UART1_FramingErrorHandler = interruptHandler;
  3019  0054B6  C560  F5E1         	movff	UART1_SetFramingErrorHandler@interruptHandler,_UART1_FramingErrorHandler
  3020  0054BA  C561  F5E2         	movff	UART1_SetFramingErrorHandler@interruptHandler+1,_UART1_FramingErrorHandler+1
  3021  0054BE  C562  F5E3         	movff	UART1_SetFramingErrorHandler@interruptHandler+2,_UART1_FramingErrorHandler+2
  3022  0054C2  0012               	return		;funcret
  3023  0054C4                     __end_of_UART1_SetFramingErrorHandler:
  3024                           	callstack 0
  3025                           
  3026 ;; *************** function _UART1_SetErrorHandler *****************
  3027 ;; Defined at:
  3028 ;;		line 264 in file "mcc_generated_files/uart1.c"
  3029 ;; Parameters:    Size  Location     Type
  3030 ;;  interruptHan    3    0[BANK5 ] PTR FTN()void 
  3031 ;;		 -> UART1_DefaultErrorHandler(1), 
  3032 ;; Auto vars:     Size  Location     Type
  3033 ;;		None
  3034 ;; Return value:  Size  Location     Type
  3035 ;;                  1    wreg      void 
  3036 ;; Registers used:
  3037 ;;		wreg, status,2, status,0
  3038 ;; Tracked objects:
  3039 ;;		On entry : 0/0
  3040 ;;		On exit  : 0/0
  3041 ;;		Unchanged: 0/0
  3042 ;; Data sizes:     COMRAM   BANK5   BANK6   BANK7   BANK8   BANK9  BANK10  BANK11  BANK12  BANK13  BANK14  BANK15  BANK1
      +6  BANK17  BANK18  BANK19  BANK20  BANK21  BANK22  BANK23  BANK24  BANK25  BANK26  BANK27  BANK28  BANK29  BANK30  BANK3
      +1  BANK32  BANK33  BANK34  BANK35  BANK36  BANK37
  3043 ;;      Params:         0       3       0       0       0       0       0       0       0       0       0       0       
      +0       0       0       0       0       0       0       0       0       0       0       0       0       0       0       
      +0       0       0       0       0       0       0
  3044 ;;      Locals:         0       0       0       0       0       0       0       0       0       0       0       0       
      +0       0       0       0       0       0       0       0       0       0       0       0       0       0       0       
      +0       0       0       0       0       0       0
  3045 ;;      Temps:          0       0       0       0       0       0       0       0       0       0       0       0       
      +0       0       0       0       0       0       0       0       0       0       0       0       0       0       0       
      +0       0       0       0       0       0       0
  3046 ;;      Totals:         0       3       0       0       0       0       0       0       0       0       0       0       
      +0       0       0       0       0       0       0       0       0       0       0       0       0       0       0       
      +0       0       0       0       0       0       0
  3047 ;;Total ram usage:        3 bytes
  3048 ;; Hardware stack levels used: 1
  3049 ;; Hardware stack levels required when called: 5
  3050 ;; This function calls:
  3051 ;;		Nothing
  3052 ;; This function is called by:
  3053 ;;		_UART1_Initialize
  3054 ;; This function uses a non-reentrant model
  3055 ;;
  3056                           
  3057                           	psect	text18
  3058  0054C4                     __ptext18:
  3059                           	callstack 0
  3060  0054C4                     _UART1_SetErrorHandler:
  3061                           	callstack 120
  3062  0054C4                     
  3063                           ;mcc_generated_files/uart1.c: 265:     UART1_ErrorHandler = interruptHandler;
  3064  0054C4  C560  F5DB         	movff	UART1_SetErrorHandler@interruptHandler,_UART1_ErrorHandler
  3065  0054C8  C561  F5DC         	movff	UART1_SetErrorHandler@interruptHandler+1,_UART1_ErrorHandler+1
  3066  0054CC  C562  F5DD         	movff	UART1_SetErrorHandler@interruptHandler+2,_UART1_ErrorHandler+2
  3067  0054D0  0012               	return		;funcret
  3068  0054D2                     __end_of_UART1_SetErrorHandler:
  3069                           	callstack 0
  3070                           
  3071 ;; *************** function _TMR2_Initialize *****************
  3072 ;; Defined at:
  3073 ;;		line 62 in file "mcc_generated_files/tmr2.c"
  3074 ;; Parameters:    Size  Location     Type
  3075 ;;		None
  3076 ;; Auto vars:     Size  Location     Type
  3077 ;;		None
  3078 ;; Return value:  Size  Location     Type
  3079 ;;                  1    wreg      void 
  3080 ;; Registers used:
  3081 ;;		wreg, status,2
  3082 ;; Tracked objects:
  3083 ;;		On entry : 0/0
  3084 ;;		On exit  : 0/0
  3085 ;;		Unchanged: 0/0
  3086 ;; Data sizes:     COMRAM   BANK5   BANK6   BANK7   BANK8   BANK9  BANK10  BANK11  BANK12  BANK13  BANK14  BANK15  BANK1
      +6  BANK17  BANK18  BANK19  BANK20  BANK21  BANK22  BANK23  BANK24  BANK25  BANK26  BANK27  BANK28  BANK29  BANK30  BANK3
      +1  BANK32  BANK33  BANK34  BANK35  BANK36  BANK37
  3087 ;;      Params:         0       0       0       0       0       0       0       0       0       0       0       0       
      +0       0       0       0       0       0       0       0       0       0       0       0       0       0       0       
      +0       0       0       0       0       0       0
  3088 ;;      Locals:         0       0       0       0       0       0       0       0       0       0       0       0       
      +0       0       0       0       0       0       0       0       0       0       0       0       0       0       0       
      +0       0       0       0       0       0       0
  3089 ;;      Temps:          0       0       0       0       0       0       0       0       0       0       0       0       
      +0       0       0       0       0       0       0       0       0       0       0       0       0       0       0       
      +0       0       0       0       0       0       0
  3090 ;;      Totals:         0       0       0       0       0       0       0       0       0       0       0       0       
      +0       0       0       0       0       0       0       0       0       0       0       0       0       0       0       
      +0       0       0       0       0       0       0
  3091 ;;Total ram usage:        0 bytes
  3092 ;; Hardware stack levels used: 1
  3093 ;; Hardware stack levels required when called: 5
  3094 ;; This function calls:
  3095 ;;		Nothing
  3096 ;; This function is called by:
  3097 ;;		_SYSTEM_Initialize
  3098 ;; This function uses a non-reentrant model
  3099 ;;
  3100                           
  3101                           	psect	text19
  3102  005410                     __ptext19:
  3103                           	callstack 0
  3104  005410                     _TMR2_Initialize:
  3105                           	callstack 121
  3106  005410                     
  3107                           ;mcc_generated_files/tmr2.c: 67:     T2CLKCON = 0x01;
  3108  005410  0E01               	movlw	1
  3109  005412  0103               	movlb	3	; () banked
  3110  005414  6F26               	movwf	38,b	;volatile
  3111                           
  3112                           ;mcc_generated_files/tmr2.c: 70:     T2HLT = 0x00;
  3113  005416  0E00               	movlw	0
  3114  005418  6F25               	movwf	37,b	;volatile
  3115                           
  3116                           ;mcc_generated_files/tmr2.c: 73:     T2RST = 0x00;
  3117  00541A  0E00               	movlw	0
  3118  00541C  6F27               	movwf	39,b	;volatile
  3119  00541E                     
  3120                           ; BSR set to: 3
  3121                           ;mcc_generated_files/tmr2.c: 76:     T2PR = 0xFF;
  3122  00541E  6923               	setf	35,b	;volatile
  3123                           
  3124                           ;mcc_generated_files/tmr2.c: 79:     T2TMR = 0x00;
  3125  005420  0E00               	movlw	0
  3126  005422  6F22               	movwf	34,b	;volatile
  3127  005424                     
  3128                           ; BSR set to: 3
  3129                           ;mcc_generated_files/tmr2.c: 82:     PIR3bits.TMR2IF = 0;
  3130  005424  96B1               	bcf	177,3,c	;volatile
  3131                           
  3132                           ;mcc_generated_files/tmr2.c: 85:     T2CON = 0x80;
  3133  005426  0E80               	movlw	128
  3134  005428  6F24               	movwf	36,b	;volatile
  3135  00542A                     
  3136                           ; BSR set to: 3
  3137  00542A  0012               	return		;funcret
  3138  00542C                     __end_of_TMR2_Initialize:
  3139                           	callstack 0
  3140                           
  3141 ;; *************** function _PWM1_Initialize *****************
  3142 ;; Defined at:
  3143 ;;		line 64 in file "mcc_generated_files/pwm1.c"
  3144 ;; Parameters:    Size  Location     Type
  3145 ;;		None
  3146 ;; Auto vars:     Size  Location     Type
  3147 ;;		None
  3148 ;; Return value:  Size  Location     Type
  3149 ;;                  1    wreg      void 
  3150 ;; Registers used:
  3151 ;;		wreg, status,2
  3152 ;; Tracked objects:
  3153 ;;		On entry : 0/0
  3154 ;;		On exit  : 0/0
  3155 ;;		Unchanged: 0/0
  3156 ;; Data sizes:     COMRAM   BANK5   BANK6   BANK7   BANK8   BANK9  BANK10  BANK11  BANK12  BANK13  BANK14  BANK15  BANK1
      +6  BANK17  BANK18  BANK19  BANK20  BANK21  BANK22  BANK23  BANK24  BANK25  BANK26  BANK27  BANK28  BANK29  BANK30  BANK3
      +1  BANK32  BANK33  BANK34  BANK35  BANK36  BANK37
  3157 ;;      Params:         0       0       0       0       0       0       0       0       0       0       0       0       
      +0       0       0       0       0       0       0       0       0       0       0       0       0       0       0       
      +0       0       0       0       0       0       0
  3158 ;;      Locals:         0       0       0       0       0       0       0       0       0       0       0       0       
      +0       0       0       0       0       0       0       0       0       0       0       0       0       0       0       
      +0       0       0       0       0       0       0
  3159 ;;      Temps:          0       0       0       0       0       0       0       0       0       0       0       0       
      +0       0       0       0       0       0       0       0       0       0       0       0       0       0       0       
      +0       0       0       0       0       0       0
  3160 ;;      Totals:         0       0       0       0       0       0       0       0       0       0       0       0       
      +0       0       0       0       0       0       0       0       0       0       0       0       0       0       0       
      +0       0       0       0       0       0       0
  3161 ;;Total ram usage:        0 bytes
  3162 ;; Hardware stack levels used: 1
  3163 ;; Hardware stack levels required when called: 5
  3164 ;; This function calls:
  3165 ;;		Nothing
  3166 ;; This function is called by:
  3167 ;;		_SYSTEM_Initialize
  3168 ;; This function uses a non-reentrant model
  3169 ;;
  3170                           
  3171                           	psect	text20
  3172  005462                     __ptext20:
  3173                           	callstack 0
  3174  005462                     _PWM1_Initialize:
  3175                           	callstack 121
  3176  005462                     
  3177                           ;mcc_generated_files/pwm1.c: 69:  CCP1CON = 0x8C;
  3178  005462  0E8C               	movlw	140
  3179  005464  0103               	movlb	3	; () banked
  3180  005466  6F42               	movwf	66,b	;volatile
  3181                           
  3182                           ;mcc_generated_files/pwm1.c: 72:  CCPR1H = 0x00;
  3183  005468  0E00               	movlw	0
  3184  00546A  6F41               	movwf	65,b	;volatile
  3185                           
  3186                           ;mcc_generated_files/pwm1.c: 75:  CCPR1L = 0x09;
  3187  00546C  0E09               	movlw	9
  3188  00546E  6F40               	movwf	64,b	;volatile
  3189                           
  3190                           ;mcc_generated_files/pwm1.c: 78:  CCPTMRS0bits.C1TSEL = 0x1;
  3191  005470  514C               	movf	76,w,b	;volatile
  3192  005472  0BFC               	andlw	-4
  3193  005474  0901               	iorlw	1
  3194  005476  6F4C               	movwf	76,b	;volatile
  3195  005478                     
  3196                           ; BSR set to: 3
  3197  005478  0012               	return		;funcret
  3198  00547A                     __end_of_PWM1_Initialize:
  3199                           	callstack 0
  3200                           
  3201 ;; *************** function _PMD_Initialize *****************
  3202 ;; Defined at:
  3203 ;;		line 78 in file "mcc_generated_files/mcc.c"
  3204 ;; Parameters:    Size  Location     Type
  3205 ;;		None
  3206 ;; Auto vars:     Size  Location     Type
  3207 ;;		None
  3208 ;; Return value:  Size  Location     Type
  3209 ;;                  1    wreg      void 
  3210 ;; Registers used:
  3211 ;;		wreg, status,2
  3212 ;; Tracked objects:
  3213 ;;		On entry : 0/0
  3214 ;;		On exit  : 0/0
  3215 ;;		Unchanged: 0/0
  3216 ;; Data sizes:     COMRAM   BANK5   BANK6   BANK7   BANK8   BANK9  BANK10  BANK11  BANK12  BANK13  BANK14  BANK15  BANK1
      +6  BANK17  BANK18  BANK19  BANK20  BANK21  BANK22  BANK23  BANK24  BANK25  BANK26  BANK27  BANK28  BANK29  BANK30  BANK3
      +1  BANK32  BANK33  BANK34  BANK35  BANK36  BANK37
  3217 ;;      Params:         0       0       0       0       0       0       0       0       0       0       0       0       
      +0       0       0       0       0       0       0       0       0       0       0       0       0       0       0       
      +0       0       0       0       0       0       0
  3218 ;;      Locals:         0       0       0       0       0       0       0       0       0       0       0       0       
      +0       0       0       0       0       0       0       0       0       0       0       0       0       0       0       
      +0       0       0       0       0       0       0
  3219 ;;      Temps:          0       0       0       0       0       0       0       0       0       0       0       0       
      +0       0       0       0       0       0       0       0       0       0       0       0       0       0       0       
      +0       0       0       0       0       0       0
  3220 ;;      Totals:         0       0       0       0       0       0       0       0       0       0       0       0       
      +0       0       0       0       0       0       0       0       0       0       0       0       0       0       0       
      +0       0       0       0       0       0       0
  3221 ;;Total ram usage:        0 bytes
  3222 ;; Hardware stack levels used: 1
  3223 ;; Hardware stack levels required when called: 5
  3224 ;; This function calls:
  3225 ;;		Nothing
  3226 ;; This function is called by:
  3227 ;;		_SYSTEM_Initialize
  3228 ;; This function uses a non-reentrant model
  3229 ;;
  3230                           
  3231                           	psect	text21
  3232  005388                     __ptext21:
  3233                           	callstack 0
  3234  005388                     _PMD_Initialize:
  3235                           	callstack 121
  3236  005388                     
  3237                           ;mcc_generated_files/mcc.c: 81:     PMD0 = 0x00;
  3238  005388  0E00               	movlw	0
  3239  00538A  0100               	movlb	0	; () banked
  3240  00538C  6F60               	movwf	96,b	;volatile
  3241                           
  3242                           ;mcc_generated_files/mcc.c: 83:     PMD1 = 0x00;
  3243  00538E  0E00               	movlw	0
  3244  005390  6F61               	movwf	97,b	;volatile
  3245                           
  3246                           ;mcc_generated_files/mcc.c: 85:     PMD3 = 0x00;
  3247  005392  0E00               	movlw	0
  3248  005394  6F63               	movwf	99,b	;volatile
  3249                           
  3250                           ;mcc_generated_files/mcc.c: 87:     PMD4 = 0x00;
  3251  005396  0E00               	movlw	0
  3252  005398  6F64               	movwf	100,b	;volatile
  3253                           
  3254                           ;mcc_generated_files/mcc.c: 89:     PMD5 = 0x00;
  3255  00539A  0E00               	movlw	0
  3256  00539C  6F65               	movwf	101,b	;volatile
  3257                           
  3258                           ;mcc_generated_files/mcc.c: 91:     PMD6 = 0x00;
  3259  00539E  0E00               	movlw	0
  3260  0053A0  6F66               	movwf	102,b	;volatile
  3261                           
  3262                           ;mcc_generated_files/mcc.c: 93:     PMD7 = 0x00;
  3263  0053A2  0E00               	movlw	0
  3264  0053A4  6F67               	movwf	103,b	;volatile
  3265                           
  3266                           ;mcc_generated_files/mcc.c: 95:     PMD8 = 0x00;
  3267  0053A6  0E00               	movlw	0
  3268  0053A8  6F68               	movwf	104,b	;volatile
  3269  0053AA                     
  3270                           ; BSR set to: 0
  3271  0053AA  0012               	return		;funcret
  3272  0053AC                     __end_of_PMD_Initialize:
  3273                           	callstack 0
  3274                           
  3275 ;; *************** function _PIN_MANAGER_Initialize *****************
  3276 ;; Defined at:
  3277 ;;		line 55 in file "mcc_generated_files/pin_manager.c"
  3278 ;; Parameters:    Size  Location     Type
  3279 ;;		None
  3280 ;; Auto vars:     Size  Location     Type
  3281 ;;		None
  3282 ;; Return value:  Size  Location     Type
  3283 ;;                  1    wreg      void 
  3284 ;; Registers used:
  3285 ;;		wreg, status,2
  3286 ;; Tracked objects:
  3287 ;;		On entry : 0/0
  3288 ;;		On exit  : 0/0
  3289 ;;		Unchanged: 0/0
  3290 ;; Data sizes:     COMRAM   BANK5   BANK6   BANK7   BANK8   BANK9  BANK10  BANK11  BANK12  BANK13  BANK14  BANK15  BANK1
      +6  BANK17  BANK18  BANK19  BANK20  BANK21  BANK22  BANK23  BANK24  BANK25  BANK26  BANK27  BANK28  BANK29  BANK30  BANK3
      +1  BANK32  BANK33  BANK34  BANK35  BANK36  BANK37
  3291 ;;      Params:         0       0       0       0       0       0       0       0       0       0       0       0       
      +0       0       0       0       0       0       0       0       0       0       0       0       0       0       0       
      +0       0       0       0       0       0       0
  3292 ;;      Locals:         0       0       0       0       0       0       0       0       0       0       0       0       
      +0       0       0       0       0       0       0       0       0       0       0       0       0       0       0       
      +0       0       0       0       0       0       0
  3293 ;;      Temps:          0       0       0       0       0       0       0       0       0       0       0       0       
      +0       0       0       0       0       0       0       0       0       0       0       0       0       0       0       
      +0       0       0       0       0       0       0
  3294 ;;      Totals:         0       0       0       0       0       0       0       0       0       0       0       0       
      +0       0       0       0       0       0       0       0       0       0       0       0       0       0       0       
      +0       0       0       0       0       0       0
  3295 ;;Total ram usage:        0 bytes
  3296 ;; Hardware stack levels used: 1
  3297 ;; Hardware stack levels required when called: 5
  3298 ;; This function calls:
  3299 ;;		Nothing
  3300 ;; This function is called by:
  3301 ;;		_SYSTEM_Initialize
  3302 ;; This function uses a non-reentrant model
  3303 ;;
  3304                           
  3305                           	psect	text22
  3306  004C10                     __ptext22:
  3307                           	callstack 0
  3308  004C10                     _PIN_MANAGER_Initialize:
  3309                           	callstack 121
  3310  004C10                     
  3311                           ;mcc_generated_files/pin_manager.c: 60:     LATE = 0x00;
  3312  004C10  0E00               	movlw	0
  3313  004C12  6EC2               	movwf	194,c	;volatile
  3314                           
  3315                           ;mcc_generated_files/pin_manager.c: 61:     LATD = 0x00;
  3316  004C14  0E00               	movlw	0
  3317  004C16  6EC1               	movwf	193,c	;volatile
  3318                           
  3319                           ;mcc_generated_files/pin_manager.c: 62:     LATA = 0x00;
  3320  004C18  0E00               	movlw	0
  3321  004C1A  6EBE               	movwf	190,c	;volatile
  3322                           
  3323                           ;mcc_generated_files/pin_manager.c: 63:     LATF = 0x00;
  3324  004C1C  0E00               	movlw	0
  3325  004C1E  6EC3               	movwf	195,c	;volatile
  3326                           
  3327                           ;mcc_generated_files/pin_manager.c: 64:     LATB = 0x00;
  3328  004C20  0E00               	movlw	0
  3329  004C22  6EBF               	movwf	191,c	;volatile
  3330                           
  3331                           ;mcc_generated_files/pin_manager.c: 65:     LATC = 0x00;
  3332  004C24  0E00               	movlw	0
  3333  004C26  6EC0               	movwf	192,c	;volatile
  3334                           
  3335                           ;mcc_generated_files/pin_manager.c: 70:     TRISE = 0x07;
  3336  004C28  0E07               	movlw	7
  3337  004C2A  6ECA               	movwf	202,c	;volatile
  3338                           
  3339                           ;mcc_generated_files/pin_manager.c: 71:     TRISF = 0x72;
  3340  004C2C  0E72               	movlw	114
  3341  004C2E  6ECB               	movwf	203,c	;volatile
  3342  004C30                     
  3343                           ;mcc_generated_files/pin_manager.c: 72:     TRISA = 0xFF;
  3344  004C30  68C6               	setf	198,c	;volatile
  3345  004C32                     
  3346                           ;mcc_generated_files/pin_manager.c: 73:     TRISB = 0xFF;
  3347  004C32  68C7               	setf	199,c	;volatile
  3348  004C34                     
  3349                           ;mcc_generated_files/pin_manager.c: 74:     TRISC = 0xFF;
  3350  004C34  68C8               	setf	200,c	;volatile
  3351  004C36                     
  3352                           ;mcc_generated_files/pin_manager.c: 75:     TRISD = 0xFF;
  3353  004C36  68C9               	setf	201,c	;volatile
  3354  004C38                     
  3355                           ;mcc_generated_files/pin_manager.c: 80:     ANSELD = 0xFF;
  3356  004C38  0104               	movlb	4	; () banked
  3357  004C3A  6918               	setf	24,b	;volatile
  3358  004C3C                     
  3359                           ; BSR set to: 4
  3360                           ;mcc_generated_files/pin_manager.c: 81:     ANSELC = 0xFF;
  3361  004C3C  6910               	setf	16,b	;volatile
  3362                           
  3363                           ;mcc_generated_files/pin_manager.c: 82:     ANSELB = 0xEF;
  3364  004C3E  0EEF               	movlw	239
  3365  004C40  6F08               	movwf	8,b	;volatile
  3366                           
  3367                           ;mcc_generated_files/pin_manager.c: 83:     ANSELE = 0x07;
  3368  004C42  0E07               	movlw	7
  3369  004C44  6F20               	movwf	32,b	;volatile
  3370                           
  3371                           ;mcc_generated_files/pin_manager.c: 84:     ANSELF = 0xF1;
  3372  004C46  0EF1               	movlw	241
  3373  004C48  6F28               	movwf	40,b	;volatile
  3374  004C4A                     
  3375                           ; BSR set to: 4
  3376                           ;mcc_generated_files/pin_manager.c: 85:     ANSELA = 0xFF;
  3377  004C4A  6900               	setf	0,b	;volatile
  3378                           
  3379                           ;mcc_generated_files/pin_manager.c: 90:     WPUD = 0x00;
  3380  004C4C  0E00               	movlw	0
  3381  004C4E  6F19               	movwf	25,b	;volatile
  3382                           
  3383                           ;mcc_generated_files/pin_manager.c: 91:     WPUF = 0x00;
  3384  004C50  0E00               	movlw	0
  3385  004C52  6F29               	movwf	41,b	;volatile
  3386                           
  3387                           ;mcc_generated_files/pin_manager.c: 92:     WPUE = 0x00;
  3388  004C54  0E00               	movlw	0
  3389  004C56  6F21               	movwf	33,b	;volatile
  3390                           
  3391                           ;mcc_generated_files/pin_manager.c: 93:     WPUB = 0x10;
  3392  004C58  0E10               	movlw	16
  3393  004C5A  6F09               	movwf	9,b	;volatile
  3394                           
  3395                           ;mcc_generated_files/pin_manager.c: 94:     WPUA = 0x00;
  3396  004C5C  0E00               	movlw	0
  3397  004C5E  6F01               	movwf	1,b	;volatile
  3398                           
  3399                           ;mcc_generated_files/pin_manager.c: 95:     WPUC = 0x00;
  3400  004C60  0E00               	movlw	0
  3401  004C62  6F11               	movwf	17,b	;volatile
  3402                           
  3403                           ;mcc_generated_files/pin_manager.c: 100:     RB1I2C = 0x00;
  3404  004C64  0E00               	movlw	0
  3405  004C66  0102               	movlb	2	; () banked
  3406  004C68  6F89               	movwf	137,b	;volatile
  3407                           
  3408                           ;mcc_generated_files/pin_manager.c: 101:     RB2I2C = 0x00;
  3409  004C6A  0E00               	movlw	0
  3410  004C6C  6F88               	movwf	136,b	;volatile
  3411                           
  3412                           ;mcc_generated_files/pin_manager.c: 102:     RC3I2C = 0x00;
  3413  004C6E  0E00               	movlw	0
  3414  004C70  6F87               	movwf	135,b	;volatile
  3415                           
  3416                           ;mcc_generated_files/pin_manager.c: 103:     RC4I2C = 0x00;
  3417  004C72  0E00               	movlw	0
  3418  004C74  6F86               	movwf	134,b	;volatile
  3419                           
  3420                           ;mcc_generated_files/pin_manager.c: 108:     ODCONE = 0x00;
  3421  004C76  0E00               	movlw	0
  3422  004C78  0104               	movlb	4	; () banked
  3423  004C7A  6F22               	movwf	34,b	;volatile
  3424                           
  3425                           ;mcc_generated_files/pin_manager.c: 109:     ODCONF = 0x00;
  3426  004C7C  0E00               	movlw	0
  3427  004C7E  6F2A               	movwf	42,b	;volatile
  3428                           
  3429                           ;mcc_generated_files/pin_manager.c: 110:     ODCONA = 0x00;
  3430  004C80  0E00               	movlw	0
  3431  004C82  6F02               	movwf	2,b	;volatile
  3432                           
  3433                           ;mcc_generated_files/pin_manager.c: 111:     ODCONB = 0x00;
  3434  004C84  0E00               	movlw	0
  3435  004C86  6F0A               	movwf	10,b	;volatile
  3436                           
  3437                           ;mcc_generated_files/pin_manager.c: 112:     ODCONC = 0x00;
  3438  004C88  0E00               	movlw	0
  3439  004C8A  6F12               	movwf	18,b	;volatile
  3440                           
  3441                           ;mcc_generated_files/pin_manager.c: 113:     ODCOND = 0x00;
  3442  004C8C  0E00               	movlw	0
  3443  004C8E  6F1A               	movwf	26,b	;volatile
  3444  004C90                     
  3445                           ; BSR set to: 4
  3446                           ;mcc_generated_files/pin_manager.c: 118:     SLRCONA = 0xFF;
  3447  004C90  6903               	setf	3,b	;volatile
  3448  004C92                     
  3449                           ; BSR set to: 4
  3450                           ;mcc_generated_files/pin_manager.c: 119:     SLRCONB = 0xFF;
  3451  004C92  690B               	setf	11,b	;volatile
  3452  004C94                     
  3453                           ; BSR set to: 4
  3454                           ;mcc_generated_files/pin_manager.c: 120:     SLRCONC = 0xFF;
  3455  004C94  6913               	setf	19,b	;volatile
  3456  004C96                     
  3457                           ; BSR set to: 4
  3458                           ;mcc_generated_files/pin_manager.c: 121:     SLRCOND = 0xFF;
  3459  004C96  691B               	setf	27,b	;volatile
  3460                           
  3461                           ;mcc_generated_files/pin_manager.c: 122:     SLRCONE = 0x07;
  3462  004C98  0E07               	movlw	7
  3463  004C9A  6F23               	movwf	35,b	;volatile
  3464  004C9C                     
  3465                           ; BSR set to: 4
  3466                           ;mcc_generated_files/pin_manager.c: 123:     SLRCONF = 0xFF;
  3467  004C9C  692B               	setf	43,b	;volatile
  3468  004C9E                     
  3469                           ; BSR set to: 4
  3470                           ;mcc_generated_files/pin_manager.c: 128:     INLVLA = 0xFF;
  3471  004C9E  6904               	setf	4,b	;volatile
  3472  004CA0                     
  3473                           ; BSR set to: 4
  3474                           ;mcc_generated_files/pin_manager.c: 129:     INLVLB = 0xFF;
  3475  004CA0  690C               	setf	12,b	;volatile
  3476  004CA2                     
  3477                           ; BSR set to: 4
  3478                           ;mcc_generated_files/pin_manager.c: 130:     INLVLC = 0xFF;
  3479  004CA2  6914               	setf	20,b	;volatile
  3480  004CA4                     
  3481                           ; BSR set to: 4
  3482                           ;mcc_generated_files/pin_manager.c: 131:     INLVLD = 0xFF;
  3483  004CA4  691C               	setf	28,b	;volatile
  3484                           
  3485                           ;mcc_generated_files/pin_manager.c: 132:     INLVLE = 0x0F;
  3486  004CA6  0E0F               	movlw	15
  3487  004CA8  6F24               	movwf	36,b	;volatile
  3488  004CAA                     
  3489                           ; BSR set to: 4
  3490                           ;mcc_generated_files/pin_manager.c: 133:     INLVLF = 0xFF;
  3491  004CAA  692C               	setf	44,b	;volatile
  3492                           
  3493                           ;mcc_generated_files/pin_manager.c: 142:     RF7PPS = 0x15;
  3494  004CAC  0E15               	movlw	21
  3495  004CAE  0102               	movlb	2	; () banked
  3496  004CB0  6F30               	movwf	48,b	;volatile
  3497                           
  3498                           ;mcc_generated_files/pin_manager.c: 143:     RF0PPS = 0x20;
  3499  004CB2  0E20               	movlw	32
  3500  004CB4  6F29               	movwf	41,b	;volatile
  3501                           
  3502                           ;mcc_generated_files/pin_manager.c: 144:     U1RXPPS = 0x29;
  3503  004CB6  0E29               	movlw	41
  3504  004CB8  6F72               	movwf	114,b	;volatile
  3505  004CBA                     
  3506                           ; BSR set to: 2
  3507  004CBA  0012               	return		;funcret
  3508  004CBC                     __end_of_PIN_MANAGER_Initialize:
  3509                           	callstack 0
  3510                           
  3511 ;; *************** function _OSCILLATOR_Initialize *****************
  3512 ;; Defined at:
  3513 ;;		line 62 in file "mcc_generated_files/mcc.c"
  3514 ;; Parameters:    Size  Location     Type
  3515 ;;		None
  3516 ;; Auto vars:     Size  Location     Type
  3517 ;;		None
  3518 ;; Return value:  Size  Location     Type
  3519 ;;                  1    wreg      void 
  3520 ;; Registers used:
  3521 ;;		wreg, status,2
  3522 ;; Tracked objects:
  3523 ;;		On entry : 0/0
  3524 ;;		On exit  : 0/0
  3525 ;;		Unchanged: 0/0
  3526 ;; Data sizes:     COMRAM   BANK5   BANK6   BANK7   BANK8   BANK9  BANK10  BANK11  BANK12  BANK13  BANK14  BANK15  BANK1
      +6  BANK17  BANK18  BANK19  BANK20  BANK21  BANK22  BANK23  BANK24  BANK25  BANK26  BANK27  BANK28  BANK29  BANK30  BANK3
      +1  BANK32  BANK33  BANK34  BANK35  BANK36  BANK37
  3527 ;;      Params:         0       0       0       0       0       0       0       0       0       0       0       0       
      +0       0       0       0       0       0       0       0       0       0       0       0       0       0       0       
      +0       0       0       0       0       0       0
  3528 ;;      Locals:         0       0       0       0       0       0       0       0       0       0       0       0       
      +0       0       0       0       0       0       0       0       0       0       0       0       0       0       0       
      +0       0       0       0       0       0       0
  3529 ;;      Temps:          0       0       0       0       0       0       0       0       0       0       0       0       
      +0       0       0       0       0       0       0       0       0       0       0       0       0       0       0       
      +0       0       0       0       0       0       0
  3530 ;;      Totals:         0       0       0       0       0       0       0       0       0       0       0       0       
      +0       0       0       0       0       0       0       0       0       0       0       0       0       0       0       
      +0       0       0       0       0       0       0
  3531 ;;Total ram usage:        0 bytes
  3532 ;; Hardware stack levels used: 1
  3533 ;; Hardware stack levels required when called: 5
  3534 ;; This function calls:
  3535 ;;		Nothing
  3536 ;; This function is called by:
  3537 ;;		_SYSTEM_Initialize
  3538 ;; This function uses a non-reentrant model
  3539 ;;
  3540                           
  3541                           	psect	text23
  3542  00542C                     __ptext23:
  3543                           	callstack 0
  3544  00542C                     _OSCILLATOR_Initialize:
  3545                           	callstack 121
  3546  00542C                     
  3547                           ;mcc_generated_files/mcc.c: 65:     OSCCON1 = 0x60;
  3548  00542C  0E60               	movlw	96
  3549  00542E  0100               	movlb	0	; () banked
  3550  005430  6FAD               	movwf	173,b	;volatile
  3551                           
  3552                           ;mcc_generated_files/mcc.c: 67:     OSCCON3 = 0x00;
  3553  005432  0E00               	movlw	0
  3554  005434  6FAF               	movwf	175,b	;volatile
  3555                           
  3556                           ;mcc_generated_files/mcc.c: 69:     OSCEN = 0x00;
  3557  005436  0E00               	movlw	0
  3558  005438  6FB3               	movwf	179,b	;volatile
  3559                           
  3560                           ;mcc_generated_files/mcc.c: 71:     OSCFRQ = 0x08;
  3561  00543A  0E08               	movlw	8
  3562  00543C  6FB1               	movwf	177,b	;volatile
  3563                           
  3564                           ;mcc_generated_files/mcc.c: 73:     OSCTUNE = 0x00;
  3565  00543E  0E00               	movlw	0
  3566  005440  6FB0               	movwf	176,b	;volatile
  3567                           
  3568                           ;mcc_generated_files/mcc.c: 75:     ACTCON = 0x00;
  3569  005442  0E00               	movlw	0
  3570  005444  6FAC               	movwf	172,b	;volatile
  3571  005446                     
  3572                           ; BSR set to: 0
  3573  005446  0012               	return		;funcret
  3574  005448                     __end_of_OSCILLATOR_Initialize:
  3575                           	callstack 0
  3576                           
  3577 ;; *************** function _INTERRUPT_Initialize *****************
  3578 ;; Defined at:
  3579 ;;		line 54 in file "mcc_generated_files/interrupt_manager.c"
  3580 ;; Parameters:    Size  Location     Type
  3581 ;;		None
  3582 ;; Auto vars:     Size  Location     Type
  3583 ;;		None
  3584 ;; Return value:  Size  Location     Type
  3585 ;;                  1    wreg      void 
  3586 ;; Registers used:
  3587 ;;		None
  3588 ;; Tracked objects:
  3589 ;;		On entry : 0/0
  3590 ;;		On exit  : 0/0
  3591 ;;		Unchanged: 0/0
  3592 ;; Data sizes:     COMRAM   BANK5   BANK6   BANK7   BANK8   BANK9  BANK10  BANK11  BANK12  BANK13  BANK14  BANK15  BANK1
      +6  BANK17  BANK18  BANK19  BANK20  BANK21  BANK22  BANK23  BANK24  BANK25  BANK26  BANK27  BANK28  BANK29  BANK30  BANK3
      +1  BANK32  BANK33  BANK34  BANK35  BANK36  BANK37
  3593 ;;      Params:         0       0       0       0       0       0       0       0       0       0       0       0       
      +0       0       0       0       0       0       0       0       0       0       0       0       0       0       0       
      +0       0       0       0       0       0       0
  3594 ;;      Locals:         0       0       0       0       0       0       0       0       0       0       0       0       
      +0       0       0       0       0       0       0       0       0       0       0       0       0       0       0       
      +0       0       0       0       0       0       0
  3595 ;;      Temps:          0       0       0       0       0       0       0       0       0       0       0       0       
      +0       0       0       0       0       0       0       0       0       0       0       0       0       0       0       
      +0       0       0       0       0       0       0
  3596 ;;      Totals:         0       0       0       0       0       0       0       0       0       0       0       0       
      +0       0       0       0       0       0       0       0       0       0       0       0       0       0       0       
      +0       0       0       0       0       0       0
  3597 ;;Total ram usage:        0 bytes
  3598 ;; Hardware stack levels used: 1
  3599 ;; Hardware stack levels required when called: 5
  3600 ;; This function calls:
  3601 ;;		Nothing
  3602 ;; This function is called by:
  3603 ;;		_SYSTEM_Initialize
  3604 ;; This function uses a non-reentrant model
  3605 ;;
  3606                           
  3607                           	psect	text24
  3608  0054D8                     __ptext24:
  3609                           	callstack 0
  3610  0054D8                     _INTERRUPT_Initialize:
  3611                           	callstack 121
  3612  0054D8                     
  3613                           ;mcc_generated_files/interrupt_manager.c: 57:     INTCON0bits.IPEN = 0;
  3614  0054D8  9AD6               	bcf	214,5,c	;volatile
  3615  0054DA  0012               	return		;funcret
  3616  0054DC                     __end_of_INTERRUPT_Initialize:
  3617                           	callstack 0
  3618                           
  3619 ;; *************** function _ADCC_Initialize *****************
  3620 ;; Defined at:
  3621 ;;		line 62 in file "mcc_generated_files/adcc.c"
  3622 ;; Parameters:    Size  Location     Type
  3623 ;;		None
  3624 ;; Auto vars:     Size  Location     Type
  3625 ;;		None
  3626 ;; Return value:  Size  Location     Type
  3627 ;;                  1    wreg      void 
  3628 ;; Registers used:
  3629 ;;		wreg, status,2
  3630 ;; Tracked objects:
  3631 ;;		On entry : 0/0
  3632 ;;		On exit  : 0/0
  3633 ;;		Unchanged: 0/0
  3634 ;; Data sizes:     COMRAM   BANK5   BANK6   BANK7   BANK8   BANK9  BANK10  BANK11  BANK12  BANK13  BANK14  BANK15  BANK1
      +6  BANK17  BANK18  BANK19  BANK20  BANK21  BANK22  BANK23  BANK24  BANK25  BANK26  BANK27  BANK28  BANK29  BANK30  BANK3
      +1  BANK32  BANK33  BANK34  BANK35  BANK36  BANK37
  3635 ;;      Params:         0       0       0       0       0       0       0       0       0       0       0       0       
      +0       0       0       0       0       0       0       0       0       0       0       0       0       0       0       
      +0       0       0       0       0       0       0
  3636 ;;      Locals:         0       0       0       0       0       0       0       0       0       0       0       0       
      +0       0       0       0       0       0       0       0       0       0       0       0       0       0       0       
      +0       0       0       0       0       0       0
  3637 ;;      Temps:          0       0       0       0       0       0       0       0       0       0       0       0       
      +0       0       0       0       0       0       0       0       0       0       0       0       0       0       0       
      +0       0       0       0       0       0       0
  3638 ;;      Totals:         0       0       0       0       0       0       0       0       0       0       0       0       
      +0       0       0       0       0       0       0       0       0       0       0       0       0       0       0       
      +0       0       0       0       0       0       0
  3639 ;;Total ram usage:        0 bytes
  3640 ;; Hardware stack levels used: 1
  3641 ;; Hardware stack levels required when called: 5
  3642 ;; This function calls:
  3643 ;;		Nothing
  3644 ;; This function is called by:
  3645 ;;		_SYSTEM_Initialize
  3646 ;; This function uses a non-reentrant model
  3647 ;;
  3648                           
  3649                           	psect	text25
  3650  00509E                     __ptext25:
  3651                           	callstack 0
  3652  00509E                     _ADCC_Initialize:
  3653                           	callstack 121
  3654  00509E                     
  3655                           ;mcc_generated_files/adcc.c: 66:     ADLTHL = 0x00;
  3656  00509E  0E00               	movlw	0
  3657  0050A0  0103               	movlb	3	; () banked
  3658  0050A2  6FD9               	movwf	217,b	;volatile
  3659                           
  3660                           ;mcc_generated_files/adcc.c: 68:     ADLTHH = 0x00;
  3661  0050A4  0E00               	movlw	0
  3662  0050A6  6FDA               	movwf	218,b	;volatile
  3663                           
  3664                           ;mcc_generated_files/adcc.c: 70:     ADUTHL = 0x00;
  3665  0050A8  0E00               	movlw	0
  3666  0050AA  6FDB               	movwf	219,b	;volatile
  3667                           
  3668                           ;mcc_generated_files/adcc.c: 72:     ADUTHH = 0x00;
  3669  0050AC  0E00               	movlw	0
  3670  0050AE  6FDC               	movwf	220,b	;volatile
  3671                           
  3672                           ;mcc_generated_files/adcc.c: 74:     ADSTPTL = 0x00;
  3673  0050B0  0E00               	movlw	0
  3674  0050B2  6FDF               	movwf	223,b	;volatile
  3675                           
  3676                           ;mcc_generated_files/adcc.c: 76:     ADSTPTH = 0x00;
  3677  0050B4  0E00               	movlw	0
  3678  0050B6  6FE0               	movwf	224,b	;volatile
  3679                           
  3680                           ;mcc_generated_files/adcc.c: 78:     ADACCU = 0x00;
  3681  0050B8  0E00               	movlw	0
  3682  0050BA  6FE5               	movwf	229,b	;volatile
  3683                           
  3684                           ;mcc_generated_files/adcc.c: 80:     ADRPT = 0x00;
  3685  0050BC  0E00               	movlw	0
  3686  0050BE  6FE7               	movwf	231,b	;volatile
  3687                           
  3688                           ;mcc_generated_files/adcc.c: 82:     ADPCH = 0x00;
  3689  0050C0  0E00               	movlw	0
  3690  0050C2  6FEC               	movwf	236,b	;volatile
  3691                           
  3692                           ;mcc_generated_files/adcc.c: 84:     ADACQL = 0x00;
  3693  0050C4  0E00               	movlw	0
  3694  0050C6  6FEE               	movwf	238,b	;volatile
  3695                           
  3696                           ;mcc_generated_files/adcc.c: 86:     ADACQH = 0x00;
  3697  0050C8  0E00               	movlw	0
  3698  0050CA  6FEF               	movwf	239,b	;volatile
  3699                           
  3700                           ;mcc_generated_files/adcc.c: 88:     ADCAP = 0x00;
  3701  0050CC  0E00               	movlw	0
  3702  0050CE  6FF0               	movwf	240,b	;volatile
  3703                           
  3704                           ;mcc_generated_files/adcc.c: 90:     ADPREL = 0x00;
  3705  0050D0  0E00               	movlw	0
  3706  0050D2  6FF1               	movwf	241,b	;volatile
  3707                           
  3708                           ;mcc_generated_files/adcc.c: 92:     ADPREH = 0x00;
  3709  0050D4  0E00               	movlw	0
  3710  0050D6  6FF2               	movwf	242,b	;volatile
  3711                           
  3712                           ;mcc_generated_files/adcc.c: 94:     ADCON1 = 0x00;
  3713  0050D8  0E00               	movlw	0
  3714  0050DA  6FF4               	movwf	244,b	;volatile
  3715                           
  3716                           ;mcc_generated_files/adcc.c: 96:     ADCON2 = 0x10;
  3717  0050DC  0E10               	movlw	16
  3718  0050DE  6FF5               	movwf	245,b	;volatile
  3719                           
  3720                           ;mcc_generated_files/adcc.c: 98:     ADCON3 = 0x00;
  3721  0050E0  0E00               	movlw	0
  3722  0050E2  6FF6               	movwf	246,b	;volatile
  3723                           
  3724                           ;mcc_generated_files/adcc.c: 100:     ADSTAT = 0x00;
  3725  0050E4  0E00               	movlw	0
  3726  0050E6  6FF7               	movwf	247,b	;volatile
  3727                           
  3728                           ;mcc_generated_files/adcc.c: 102:     ADREF = 0x00;
  3729  0050E8  0E00               	movlw	0
  3730  0050EA  6FF8               	movwf	248,b	;volatile
  3731                           
  3732                           ;mcc_generated_files/adcc.c: 104:     ADACT = 0x00;
  3733  0050EC  0E00               	movlw	0
  3734  0050EE  6FF9               	movwf	249,b	;volatile
  3735                           
  3736                           ;mcc_generated_files/adcc.c: 106:     ADCLK = 0x1F;
  3737  0050F0  0E1F               	movlw	31
  3738  0050F2  6FFA               	movwf	250,b	;volatile
  3739                           
  3740                           ;mcc_generated_files/adcc.c: 108:     ADCON0 = 0x84;
  3741  0050F4  0E84               	movlw	132
  3742  0050F6  6FF3               	movwf	243,b	;volatile
  3743  0050F8                     
  3744                           ; BSR set to: 3
  3745  0050F8  0012               	return		;funcret
  3746  0050FA                     __end_of_ADCC_Initialize:
  3747                           	callstack 0
  3748                           
  3749 ;; *************** function _ADCC_StartConversion *****************
  3750 ;; Defined at:
  3751 ;;		line 113 in file "mcc_generated_files/adcc.c"
  3752 ;; Parameters:    Size  Location     Type
  3753 ;;  channel         1    wreg     enum E16619
  3754 ;; Auto vars:     Size  Location     Type
  3755 ;;  channel         1    0[BANK5 ] enum E16619
  3756 ;; Return value:  Size  Location     Type
  3757 ;;                  1    wreg      void 
  3758 ;; Registers used:
  3759 ;;		wreg
  3760 ;; Tracked objects:
  3761 ;;		On entry : 0/0
  3762 ;;		On exit  : 0/0
  3763 ;;		Unchanged: 0/0
  3764 ;; Data sizes:     COMRAM   BANK5   BANK6   BANK7   BANK8   BANK9  BANK10  BANK11  BANK12  BANK13  BANK14  BANK15  BANK1
      +6  BANK17  BANK18  BANK19  BANK20  BANK21  BANK22  BANK23  BANK24  BANK25  BANK26  BANK27  BANK28  BANK29  BANK30  BANK3
      +1  BANK32  BANK33  BANK34  BANK35  BANK36  BANK37
  3765 ;;      Params:         0       0       0       0       0       0       0       0       0       0       0       0       
      +0       0       0       0       0       0       0       0       0       0       0       0       0       0       0       
      +0       0       0       0       0       0       0
  3766 ;;      Locals:         0       1       0       0       0       0       0       0       0       0       0       0       
      +0       0       0       0       0       0       0       0       0       0       0       0       0       0       0       
      +0       0       0       0       0       0       0
  3767 ;;      Temps:          0       0       0       0       0       0       0       0       0       0       0       0       
      +0       0       0       0       0       0       0       0       0       0       0       0       0       0       0       
      +0       0       0       0       0       0       0
  3768 ;;      Totals:         0       1       0       0       0       0       0       0       0       0       0       0       
      +0       0       0       0       0       0       0       0       0       0       0       0       0       0       0       
      +0       0       0       0       0       0       0
  3769 ;;Total ram usage:        1 bytes
  3770 ;; Hardware stack levels used: 1
  3771 ;; Hardware stack levels required when called: 5
  3772 ;; This function calls:
  3773 ;;		Nothing
  3774 ;; This function is called by:
  3775 ;;		_main
  3776 ;; This function uses a non-reentrant model
  3777 ;;
  3778                           
  3779                           	psect	text26
  3780  00547A                     __ptext26:
  3781                           	callstack 0
  3782  00547A                     _ADCC_StartConversion:
  3783                           	callstack 122
  3784                           
  3785                           ; BSR set to: 3
  3786                           ;incstack = 0
  3787                           ;ADCC_StartConversion@channel stored from wreg
  3788  00547A  0105               	movlb	5	; () banked
  3789  00547C  6F60               	movwf	ADCC_StartConversion@channel& (0+255),b
  3790  00547E                     
  3791                           ;mcc_generated_files/adcc.c: 113: void ADCC_StartConversion(adcc_channel_t channel);mcc_
      +                          generated_files/adcc.c: 114: {;mcc_generated_files/adcc.c: 116:     ADPCH = channel;
  3792  00547E  0061  F580  F3EC   	movff	ADCC_StartConversion@channel,1004	;volatile
  3793  005484                     
  3794                           ;mcc_generated_files/adcc.c: 119:     ADCON0bits.ADON = 1;
  3795  005484  0103               	movlb	3	; () banked
  3796  005486  8FF3               	bsf	243,7,b	;volatile
  3797  005488                     
  3798                           ; BSR set to: 3
  3799                           ;mcc_generated_files/adcc.c: 122:     ADCON0bits.ADGO = 1;
  3800  005488  81F3               	bsf	243,0,b	;volatile
  3801  00548A                     
  3802                           ; BSR set to: 3
  3803  00548A  0012               	return		;funcret
  3804  00548C                     __end_of_ADCC_StartConversion:
  3805                           	callstack 0
  3806                           
  3807 ;; *************** function _ADCC_GetConversionResult *****************
  3808 ;; Defined at:
  3809 ;;		line 131 in file "mcc_generated_files/adcc.c"
  3810 ;; Parameters:    Size  Location     Type
  3811 ;;		None
  3812 ;; Auto vars:     Size  Location     Type
  3813 ;;		None
  3814 ;; Return value:  Size  Location     Type
  3815 ;;                  2    0[BANK5 ] unsigned short 
  3816 ;; Registers used:
  3817 ;;		wreg, status,2, status,0
  3818 ;; Tracked objects:
  3819 ;;		On entry : 0/0
  3820 ;;		On exit  : 0/0
  3821 ;;		Unchanged: 0/0
  3822 ;; Data sizes:     COMRAM   BANK5   BANK6   BANK7   BANK8   BANK9  BANK10  BANK11  BANK12  BANK13  BANK14  BANK15  BANK1
      +6  BANK17  BANK18  BANK19  BANK20  BANK21  BANK22  BANK23  BANK24  BANK25  BANK26  BANK27  BANK28  BANK29  BANK30  BANK3
      +1  BANK32  BANK33  BANK34  BANK35  BANK36  BANK37
  3823 ;;      Params:         0       2       0       0       0       0       0       0       0       0       0       0       
      +0       0       0       0       0       0       0       0       0       0       0       0       0       0       0       
      +0       0       0       0       0       0       0
  3824 ;;      Locals:         0       0       0       0       0       0       0       0       0       0       0       0       
      +0       0       0       0       0       0       0       0       0       0       0       0       0       0       0       
      +0       0       0       0       0       0       0
  3825 ;;      Temps:          0       2       0       0       0       0       0       0       0       0       0       0       
      +0       0       0       0       0       0       0       0       0       0       0       0       0       0       0       
      +0       0       0       0       0       0       0
  3826 ;;      Totals:         0       4       0       0       0       0       0       0       0       0       0       0       
      +0       0       0       0       0       0       0       0       0       0       0       0       0       0       0       
      +0       0       0       0       0       0       0
  3827 ;;Total ram usage:        4 bytes
  3828 ;; Hardware stack levels used: 1
  3829 ;; Hardware stack levels required when called: 5
  3830 ;; This function calls:
  3831 ;;		Nothing
  3832 ;; This function is called by:
  3833 ;;		_main
  3834 ;; This function uses a non-reentrant model
  3835 ;;
  3836                           
  3837                           	psect	text27
  3838  0053F0                     __ptext27:
  3839                           	callstack 0
  3840  0053F0                     _ADCC_GetConversionResult:
  3841                           	callstack 122
  3842  0053F0                     
  3843                           ;mcc_generated_files/adcc.c: 134:     return ((adc_result_t)((ADRESH << 8) + ADRESL));
  3844  0053F0  0103               	movlb	3	; () banked
  3845  0053F2  51EB               	movf	235,w,b	;volatile
  3846  0053F4  0105               	movlb	5	; () banked
  3847  0053F6  6F63               	movwf	(??_ADCC_GetConversionResult+1)& (0+255),b
  3848  0053F8  6B62               	clrf	??_ADCC_GetConversionResult& (0+255),b
  3849  0053FA  0103               	movlb	3	; () banked
  3850  0053FC  51EA               	movf	234,w,b	;volatile
  3851  0053FE  0105               	movlb	5	; () banked
  3852  005400  2562               	addwf	??_ADCC_GetConversionResult& (0+255),w,b
  3853  005402  6F60               	movwf	?_ADCC_GetConversionResult& (0+255),b
  3854  005404  0103               	movlb	3	; () banked
  3855  005406  0E00               	movlw	0
  3856  005408  0105               	movlb	5	; () banked
  3857  00540A  2163               	addwfc	(??_ADCC_GetConversionResult+1)& (0+255),w,b
  3858  00540C  6F61               	movwf	(?_ADCC_GetConversionResult+1)& (0+255),b
  3859  00540E                     
  3860                           ; BSR set to: 5
  3861  00540E  0012               	return		;funcret
  3862  005410                     __end_of_ADCC_GetConversionResult:
  3863                           	callstack 0
  3864                           
  3865 ;; *************** function _INTERRUPT_InterruptManager *****************
  3866 ;; Defined at:
  3867 ;;		line 62 in file "mcc_generated_files/interrupt_manager.c"
  3868 ;; Parameters:    Size  Location     Type
  3869 ;;		None
  3870 ;; Auto vars:     Size  Location     Type
  3871 ;;		None
  3872 ;; Return value:  Size  Location     Type
  3873 ;;                  1    wreg      void 
  3874 ;; Registers used:
  3875 ;;		wreg, fsr2l, fsr2h, status,2, status,0, pclath, tosl, tblptrl, tblptrh, tblptru, prodl, prodh, cstack
  3876 ;; Tracked objects:
  3877 ;;		On entry : 0/0
  3878 ;;		On exit  : 0/0
  3879 ;;		Unchanged: 0/0
  3880 ;; Data sizes:     COMRAM   BANK5   BANK6   BANK7   BANK8   BANK9  BANK10  BANK11  BANK12  BANK13  BANK14  BANK15  BANK1
      +6  BANK17  BANK18  BANK19  BANK20  BANK21  BANK22  BANK23  BANK24  BANK25  BANK26  BANK27  BANK28  BANK29  BANK30  BANK3
      +1  BANK32  BANK33  BANK34  BANK35  BANK36  BANK37
  3881 ;;      Params:         0       0       0       0       0       0       0       0       0       0       0       0       
      +0       0       0       0       0       0       0       0       0       0       0       0       0       0       0       
      +0       0       0       0       0       0       0
  3882 ;;      Locals:         0       0       0       0       0       0       0       0       0       0       0       0       
      +0       0       0       0       0       0       0       0       0       0       0       0       0       0       0       
      +0       0       0       0       0       0       0
  3883 ;;      Temps:          4       0       0       0       0       0       0       0       0       0       0       0       
      +0       0       0       0       0       0       0       0       0       0       0       0       0       0       0       
      +0       0       0       0       0       0       0
  3884 ;;      Totals:         4       0       0       0       0       0       0       0       0       0       0       0       
      +0       0       0       0       0       0       0       0       0       0       0       0       0       0       0       
      +0       0       0       0       0       0       0
  3885 ;;Total ram usage:        4 bytes
  3886 ;; Hardware stack levels used: 1
  3887 ;; Hardware stack levels required when called: 4
  3888 ;; This function calls:
  3889 ;;		Absolute function
  3890 ;;		_PWM1_LoadDutyValue
  3891 ;;		_UART1_Receive_ISR
  3892 ;;		___fltol
  3893 ;;		_atof
  3894 ;; This function is called by:
  3895 ;;		Interrupt level 2
  3896 ;; This function uses a non-reentrant model
  3897 ;;
  3898                           
  3899                           	psect	text28
  3900  00457A                     __ptext28:
  3901                           	callstack 0
  3902  00457A                     _INTERRUPT_InterruptManager:
  3903                           	callstack 114
  3904                           
  3905                           ; BSR set to: 5
  3906                           ;incstack = 0
  3907  00457A  0061 F3D8  F54E    	movff	tblptrl,??_INTERRUPT_InterruptManager
  3908  004580  0061 F3DC  F54F    	movff	tblptrh,??_INTERRUPT_InterruptManager+1
  3909  004586  0061 F3E0  F550    	movff	tblptru,??_INTERRUPT_InterruptManager+2
  3910  00458C  0061 F3D4  F551    	movff	tablat,??_INTERRUPT_InterruptManager+3
  3911  004592                     
  3912                           ;mcc_generated_files/interrupt_manager.c: 65:     if(PIE4bits.U1RXIE == 1 && PIR4bits.U1
      +                          RXIF == 1)
  3913  004592  A0A2               	btfss	162,0,c	;volatile
  3914  004594  EFCE  F022         	goto	i2u468_41
  3915  004598  EFD0  F022         	goto	i2u468_40
  3916  00459C                     i2u468_41:
  3917  00459C  EF4B  F023         	goto	i2l386
  3918  0045A0                     i2u468_40:
  3919  0045A0  A0B2               	btfss	178,0,c	;volatile
  3920  0045A2  EFD5  F022         	goto	i2u469_41
  3921  0045A6  EFD7  F022         	goto	i2u469_40
  3922  0045AA                     i2u469_41:
  3923  0045AA  EF4B  F023         	goto	i2l386
  3924  0045AE                     i2u469_40:
  3925  0045AE                     
  3926                           ;mcc_generated_files/interrupt_manager.c: 66:     {;mcc_generated_files/interrupt_manage
      +                          r.c: 67:         UART1_RxInterruptHandler();
  3927  0045AE  D802               	call	i2u470_48
  3928  0045B0  EFE4  F022         	goto	i2u470_49
  3929  0045B4                     i2u470_48:
  3930  0045B4  0005               	push	
  3931  0045B6  6EFA               	movwf	pclath,c
  3932  0045B8  5059               	movf	_UART1_RxInterruptHandler^(0+1280),w,c
  3933  0045BA  6EFD               	movwf	tosl,c
  3934  0045BC  505A               	movf	(_UART1_RxInterruptHandler+1)^(0+1280),w,c
  3935  0045BE  6EFE               	movwf	tosh,c
  3936  0045C0  505B               	movf	(_UART1_RxInterruptHandler+2)^(0+1280),w,c
  3937  0045C2  6EFF               	movwf	tosu,c
  3938  0045C4  50FA               	movf	pclath,w,c
  3939  0045C6  0012               	return		;indir
  3940  0045C8                     i2u470_49:
  3941  0045C8                     
  3942                           ;mcc_generated_files/interrupt_manager.c: 68:         dato_Rx = U1RXB;
  3943  0045C8  0060 FA84  F556    	movff	673,_dato_Rx	;volatile
  3944  0045CE                     
  3945                           ;mcc_generated_files/interrupt_manager.c: 70:         if (dato_Rx == 'a') {
  3946  0045CE  0E61               	movlw	97
  3947  0045D0  1856               	xorwf	_dato_Rx^(0+1280),w,c	;volatile
  3948  0045D2  A4D8               	btfss	status,2,c
  3949  0045D4  EFEE  F022         	goto	i2u471_41
  3950  0045D8  EFF0  F022         	goto	i2u471_40
  3951  0045DC                     i2u471_41:
  3952  0045DC  EFF3  F022         	goto	i2l4414
  3953  0045E0                     i2u471_40:
  3954  0045E0  84C3               	bsf	195,2,c	;volatile
  3955  0045E2  EF4B  F023         	goto	i2l386
  3956  0045E6                     i2l4414:
  3957  0045E6  0E62               	movlw	98
  3958  0045E8  1856               	xorwf	_dato_Rx^(0+1280),w,c	;volatile
  3959  0045EA  A4D8               	btfss	status,2,c
  3960  0045EC  EFFA  F022         	goto	i2u472_41
  3961  0045F0  EFFC  F022         	goto	i2u472_40
  3962  0045F4                     i2u472_41:
  3963  0045F4  EFFF  F022         	goto	i2l4416
  3964  0045F8                     i2u472_40:
  3965  0045F8  94C3               	bcf	195,2,c	;volatile
  3966  0045FA  EF4B  F023         	goto	i2l386
  3967  0045FE                     i2l4416:
  3968  0045FE  0E63               	movlw	99
  3969  004600  1856               	xorwf	_dato_Rx^(0+1280),w,c	;volatile
  3970  004602  A4D8               	btfss	status,2,c
  3971  004604  EF06  F023         	goto	i2u473_41
  3972  004608  EF08  F023         	goto	i2u473_40
  3973  00460C                     i2u473_41:
  3974  00460C  EF0B  F023         	goto	i2l4418
  3975  004610                     i2u473_40:
  3976  004610  86C3               	bsf	195,3,c	;volatile
  3977  004612  EF4B  F023         	goto	i2l386
  3978  004616                     i2l4418:
  3979  004616  0E64               	movlw	100
  3980  004618  1856               	xorwf	_dato_Rx^(0+1280),w,c	;volatile
  3981  00461A  A4D8               	btfss	status,2,c
  3982  00461C  EF12  F023         	goto	i2u474_41
  3983  004620  EF14  F023         	goto	i2u474_40
  3984  004624                     i2u474_41:
  3985  004624  EF17  F023         	goto	i2l4420
  3986  004628                     i2u474_40:
  3987  004628  96C3               	bcf	195,3,c	;volatile
  3988  00462A  EF4B  F023         	goto	i2l386
  3989  00462E                     i2l4420:
  3990  00462E  0E78               	movlw	120
  3991  004630  1856               	xorwf	_dato_Rx^(0+1280),w,c	;volatile
  3992  004632  A4D8               	btfss	status,2,c
  3993  004634  EF1E  F023         	goto	i2u475_41
  3994  004638  EF20  F023         	goto	i2u475_40
  3995  00463C                     i2u475_41:
  3996  00463C  EF40  F023         	goto	i2l4428
  3997  004640                     i2u475_40:
  3998  004640                     
  3999                           ;mcc_generated_files/interrupt_manager.c: 79:             duty_cicle = atof(buffer_rx);
  4000  004640  0E00               	movlw	low _buffer_rx
  4001  004642  6E40               	movwf	atof@s^(0+1280),c
  4002  004644  0E06               	movlw	high _buffer_rx
  4003  004646  6E41               	movwf	(atof@s+1)^(0+1280),c
  4004  004648  ECB1  F029         	call	_atof	;wreg free
  4005  00464C  C540  F544         	movff	?_atof,___fltol@f1
  4006  004650  C541  F545         	movff	?_atof+1,___fltol@f1+1
  4007  004654  C542  F546         	movff	?_atof+2,___fltol@f1+2
  4008  004658  C543  F547         	movff	?_atof+3,___fltol@f1+3
  4009  00465C  EC58  F023         	call	___fltol	;wreg free
  4010  004660  C544  F552         	movff	?___fltol,_duty_cicle
  4011  004664  C545  F553         	movff	?___fltol+1,_duty_cicle+1
  4012  004668                     
  4013                           ;mcc_generated_files/interrupt_manager.c: 80:             PWM1_LoadDutyValue(duty_cicle)
      +                          ;
  4014  004668  C552  F501         	movff	_duty_cicle,PWM1_LoadDutyValue@dutyValue
  4015  00466C  C553  F502         	movff	_duty_cicle+1,PWM1_LoadDutyValue@dutyValue+1
  4016  004670  EC59  F029         	call	_PWM1_LoadDutyValue	;wreg free
  4017  004674                     
  4018                           ;mcc_generated_files/interrupt_manager.c: 81:             i=0;
  4019  004674  0E00               	movlw	0
  4020  004676  6E55               	movwf	(_i+1)^(0+1280),c
  4021  004678  0E00               	movlw	0
  4022  00467A  6E54               	movwf	_i^(0+1280),c
  4023                           
  4024                           ;mcc_generated_files/interrupt_manager.c: 82:         }else{
  4025  00467C  EF4B  F023         	goto	i2l386
  4026  004680                     i2l4428:
  4027                           
  4028                           ;mcc_generated_files/interrupt_manager.c: 84:             buffer_rx[i] = dato_Rx;
  4029  004680  0E00               	movlw	low _buffer_rx
  4030  004682  2454               	addwf	_i^(0+1280),w,c
  4031  004684  6ED9               	movwf	fsr2l,c
  4032  004686  0E06               	movlw	high _buffer_rx
  4033  004688  2055               	addwfc	(_i+1)^(0+1280),w,c
  4034  00468A  6EDA               	movwf	fsr2h,c
  4035  00468C  0061  F558  F4DF   	movff	_dato_Rx,indf2	;volatile
  4036  004692                     
  4037                           ;mcc_generated_files/interrupt_manager.c: 85:             i++;
  4038  004692  4A54               	infsnz	_i^(0+1280),f,c
  4039  004694  2A55               	incf	(_i+1)^(0+1280),f,c
  4040  004696                     i2l386:
  4041  004696  0061  F544  F4F5   	movff	??_INTERRUPT_InterruptManager+3,tablat
  4042  00469C  0061  F540  F4F8   	movff	??_INTERRUPT_InterruptManager+2,tblptru
  4043  0046A2  0061  F53C  F4F7   	movff	??_INTERRUPT_InterruptManager+1,tblptrh
  4044  0046A8  0061  F538  F4F6   	movff	??_INTERRUPT_InterruptManager,tblptrl
  4045  0046AE  0011               	retfie		f
  4046  0046B0                     __end_of_INTERRUPT_InterruptManager:
  4047                           	callstack 0
  4048                           
  4049 ;; *************** function _atof *****************
  4050 ;; Defined at:
  4051 ;;		line 423 in file "C:\Program Files\Microchip\xc8\v2.32\pic\sources\c99\common\strtof.c"
  4052 ;; Parameters:    Size  Location     Type
  4053 ;;  s               2   63[COMRAM] PTR const unsigned char 
  4054 ;;		 -> buffer_rx(100), 
  4055 ;; Auto vars:     Size  Location     Type
  4056 ;;		None
  4057 ;; Return value:  Size  Location     Type
  4058 ;;                  4   63[COMRAM] PTR const unsigned char 
  4059 ;; Registers used:
  4060 ;;		wreg, fsr2l, fsr2h, status,2, status,0, tblptrl, tblptrh, tblptru, prodl, prodh, cstack
  4061 ;; Tracked objects:
  4062 ;;		On entry : 0/0
  4063 ;;		On exit  : 0/0
  4064 ;;		Unchanged: 0/0
  4065 ;; Data sizes:     COMRAM   BANK5   BANK6   BANK7   BANK8   BANK9  BANK10  BANK11  BANK12  BANK13  BANK14  BANK15  BANK1
      +6  BANK17  BANK18  BANK19  BANK20  BANK21  BANK22  BANK23  BANK24  BANK25  BANK26  BANK27  BANK28  BANK29  BANK30  BANK3
      +1  BANK32  BANK33  BANK34  BANK35  BANK36  BANK37
  4066 ;;      Params:         4       0       0       0       0       0       0       0       0       0       0       0       
      +0       0       0       0       0       0       0       0       0       0       0       0       0       0       0       
      +0       0       0       0       0       0       0
  4067 ;;      Locals:         0       0       0       0       0       0       0       0       0       0       0       0       
      +0       0       0       0       0       0       0       0       0       0       0       0       0       0       0       
      +0       0       0       0       0       0       0
  4068 ;;      Temps:          0       0       0       0       0       0       0       0       0       0       0       0       
      +0       0       0       0       0       0       0       0       0       0       0       0       0       0       0       
      +0       0       0       0       0       0       0
  4069 ;;      Totals:         4       0       0       0       0       0       0       0       0       0       0       0       
      +0       0       0       0       0       0       0       0       0       0       0       0       0       0       0       
      +0       0       0       0       0       0       0
  4070 ;;Total ram usage:        4 bytes
  4071 ;; Hardware stack levels used: 1
  4072 ;; Hardware stack levels required when called: 3
  4073 ;; This function calls:
  4074 ;;		_strtof
  4075 ;; This function is called by:
  4076 ;;		_INTERRUPT_InterruptManager
  4077 ;; This function uses a non-reentrant model
  4078 ;;
  4079                           
  4080                           	psect	text29
  4081  005362                     __ptext29:
  4082                           	callstack 0
  4083  005362                     _atof:
  4084                           	callstack 114
  4085  005362  C540  F51A         	movff	atof@s,strtof@s
  4086  005366  C541  F51B         	movff	atof@s+1,strtof@s+1
  4087  00536A  0E00               	movlw	0
  4088  00536C  6E1C               	movwf	strtof@res^(0+1280),c
  4089  00536E  0E00               	movlw	0
  4090  005370  6E1D               	movwf	(strtof@res+1)^(0+1280),c
  4091  005372  EC12  F013         	call	_strtof	;wreg free
  4092  005376  C51A  F540         	movff	?_strtof,?_atof
  4093  00537A  C51B  F541         	movff	?_strtof+1,?_atof+1
  4094  00537E  C51C  F542         	movff	?_strtof+2,?_atof+2
  4095  005382  C51D  F543         	movff	?_strtof+3,?_atof+3
  4096  005386  0012               	return		;funcret
  4097  005388                     __end_of_atof:
  4098                           	callstack 0
  4099                           
  4100 ;; *************** function _strtof *****************
  4101 ;; Defined at:
  4102 ;;		line 95 in file "C:\Program Files\Microchip\xc8\v2.32\pic\sources\c99\common\strtof.c"
  4103 ;; Parameters:    Size  Location     Type
  4104 ;;  s               2   25[COMRAM] PTR const unsigned char 
  4105 ;;		 -> buffer_rx(100), 
  4106 ;;  res             2   27[COMRAM] PTR PTR unsigned char 
  4107 ;;		 -> NULL(0), 
  4108 ;; Auto vars:     Size  Location     Type
  4109 ;;  _u              4   58[COMRAM] struct .
  4110 ;;  eexp            2   56[COMRAM] int 
  4111 ;;  expon           2   54[COMRAM] int 
  4112 ;;  i               1   62[COMRAM] unsigned char 
  4113 ;;  flags           1   53[COMRAM] unsigned char 
  4114 ;;  digit           1   52[COMRAM] unsigned char 
  4115 ;; Return value:  Size  Location     Type
  4116 ;;                  4   25[COMRAM] float 
  4117 ;; Registers used:
  4118 ;;		wreg, fsr2l, fsr2h, status,2, status,0, tblptrl, tblptrh, tblptru, prodl, prodh, cstack
  4119 ;; Tracked objects:
  4120 ;;		On entry : 0/0
  4121 ;;		On exit  : 0/0
  4122 ;;		Unchanged: 0/0
  4123 ;; Data sizes:     COMRAM   BANK5   BANK6   BANK7   BANK8   BANK9  BANK10  BANK11  BANK12  BANK13  BANK14  BANK15  BANK1
      +6  BANK17  BANK18  BANK19  BANK20  BANK21  BANK22  BANK23  BANK24  BANK25  BANK26  BANK27  BANK28  BANK29  BANK30  BANK3
      +1  BANK32  BANK33  BANK34  BANK35  BANK36  BANK37
  4124 ;;      Params:         4       0       0       0       0       0       0       0       0       0       0       0       
      +0       0       0       0       0       0       0       0       0       0       0       0       0       0       0       
      +0       0       0       0       0       0       0
  4125 ;;      Locals:        28       0       0       0       0       0       0       0       0       0       0       0       
      +0       0       0       0       0       0       0       0       0       0       0       0       0       0       0       
      +0       0       0       0       0       0       0
  4126 ;;      Temps:          6       0       0       0       0       0       0       0       0       0       0       0       
      +0       0       0       0       0       0       0       0       0       0       0       0       0       0       0       
      +0       0       0       0       0       0       0
  4127 ;;      Totals:        38       0       0       0       0       0       0       0       0       0       0       0       
      +0       0       0       0       0       0       0       0       0       0       0       0       0       0       0       
      +0       0       0       0       0       0       0
  4128 ;;Total ram usage:       38 bytes
  4129 ;; Hardware stack levels used: 1
  4130 ;; Hardware stack levels required when called: 2
  4131 ;; This function calls:
  4132 ;;		___fldiv
  4133 ;;		___fleq
  4134 ;;		___flge
  4135 ;;		___flmul
  4136 ;;		___flneg
  4137 ;;		___lmul
  4138 ;;		___wmul
  4139 ;;		___xxtofl
  4140 ;;		_isdigit
  4141 ;;		_isspace
  4142 ;;		_isxdigit
  4143 ;;		_nanf
  4144 ;;		_toupper
  4145 ;; This function is called by:
  4146 ;;		_atof
  4147 ;; This function uses a non-reentrant model
  4148 ;;
  4149                           
  4150                           	psect	text30
  4151  002624                     __ptext30:
  4152                           	callstack 0
  4153  002624                     _strtof:
  4154                           	callstack 114
  4155  002624  501C               	movf	strtof@res^(0+1280),w,c
  4156  002626  101D               	iorwf	(strtof@res+1)^(0+1280),w,c
  4157  002628  B4D8               	btfsc	status,2,c
  4158  00262A  EF19  F013         	goto	i2u345_41
  4159  00262E  EF1B  F013         	goto	i2u345_40
  4160  002632                     i2u345_41:
  4161  002632  EF2B  F013         	goto	i2l3830
  4162  002636                     i2u345_40:
  4163  002636  0061  F470  F4D9   	movff	strtof@res,fsr2l
  4164  00263C  0061  F474  F4DA   	movff	strtof@res+1,fsr2h
  4165  002642  0061  F468  F4DE   	movff	strtof@s,postinc2
  4166  002648  0061  F46C  F4DD   	movff	strtof@s+1,postdec2
  4167  00264E  EF2B  F013         	goto	i2l3830
  4168  002652                     i2l3828:
  4169  002652  4A1A               	infsnz	strtof@s^(0+1280),f,c
  4170  002654  2A1B               	incf	(strtof@s+1)^(0+1280),f,c
  4171  002656                     i2l3830:
  4172  002656  0E01               	movlw	1
  4173  002658  6E34               	movwf	_strtof$1944^(0+1280),c
  4174  00265A  0061  F468  F4D9   	movff	strtof@s,fsr2l
  4175  002660  0061  F46C  F4DA   	movff	strtof@s+1,fsr2h
  4176  002666  0E20               	movlw	32
  4177  002668  18DE               	xorwf	postinc2,w,c
  4178  00266A  B4D8               	btfsc	status,2,c
  4179  00266C  EF3A  F013         	goto	i2u346_41
  4180  002670  EF3D  F013         	goto	i2u346_40
  4181  002674                     i2u346_41:
  4182  002674  0E01               	movlw	1
  4183  002676  EF3E  F013         	goto	i2u347_40
  4184  00267A                     i2u346_40:
  4185  00267A  0E00               	movlw	0
  4186  00267C                     i2u347_40:
  4187  00267C  6E39               	movwf	strtof@eexp^(0+1280),c
  4188  00267E  6A3A               	clrf	(strtof@eexp+1)^(0+1280),c
  4189  002680  5039               	movf	strtof@eexp^(0+1280),w,c
  4190  002682  103A               	iorwf	(strtof@eexp+1)^(0+1280),w,c
  4191  002684  A4D8               	btfss	status,2,c
  4192  002686  EF47  F013         	goto	i2u348_41
  4193  00268A  EF49  F013         	goto	i2u348_40
  4194  00268E                     i2u348_41:
  4195  00268E  EF6D  F013         	goto	i2l3838
  4196  002692                     i2u348_40:
  4197  002692  0EF7               	movlw	247
  4198  002694  6E1E               	movwf	??_strtof^(0+1280),c
  4199  002696  0EFF               	movlw	255
  4200  002698  6E1F               	movwf	(??_strtof+1)^(0+1280),c
  4201  00269A  0061  F468  F4D9   	movff	strtof@s,fsr2l
  4202  0026A0  0061  F46C  F4DA   	movff	strtof@s+1,fsr2h
  4203  0026A6  50DF               	movf	indf2,w,c
  4204  0026A8  6E20               	movwf	(??_strtof+2)^(0+1280),c
  4205  0026AA  5020               	movf	(??_strtof+2)^(0+1280),w,c
  4206  0026AC  6E39               	movwf	strtof@eexp^(0+1280),c
  4207  0026AE  6A3A               	clrf	(strtof@eexp+1)^(0+1280),c
  4208  0026B0  C539  F521         	movff	strtof@eexp,??_strtof+3
  4209  0026B4  C53A  F522         	movff	strtof@eexp+1,??_strtof+4
  4210  0026B8  501E               	movf	??_strtof^(0+1280),w,c
  4211  0026BA  2621               	addwf	(??_strtof+3)^(0+1280),f,c
  4212  0026BC  501F               	movf	(??_strtof+1)^(0+1280),w,c
  4213  0026BE  2222               	addwfc	(??_strtof+4)^(0+1280),f,c
  4214  0026C0  5022               	movf	(??_strtof+4)^(0+1280),w,c
  4215  0026C2  E109               	bnz	i2u349_40
  4216  0026C4  0E05               	movlw	5
  4217  0026C6  5C21               	subwf	(??_strtof+3)^(0+1280),w,c
  4218  0026C8  A0D8               	btfss	status,0,c
  4219  0026CA  EF69  F013         	goto	i2u349_41
  4220  0026CE  EF6B  F013         	goto	i2u349_40
  4221  0026D2                     i2u349_41:
  4222  0026D2  EF6D  F013         	goto	i2l3838
  4223  0026D6                     i2u349_40:
  4224  0026D6  0E00               	movlw	0
  4225  0026D8  6E34               	movwf	_strtof$1944^(0+1280),c
  4226  0026DA                     i2l3838:
  4227  0026DA  C534  F524         	movff	_strtof$1944,_strtof$1943
  4228  0026DE  6A25               	clrf	(_strtof$1943+1)^(0+1280),c
  4229  0026E0  5024               	movf	_strtof$1943^(0+1280),w,c
  4230  0026E2  1025               	iorwf	(_strtof$1943+1)^(0+1280),w,c
  4231  0026E4  A4D8               	btfss	status,2,c
  4232  0026E6  EF77  F013         	goto	i2u350_41
  4233  0026EA  EF79  F013         	goto	i2u350_40
  4234  0026EE                     i2u350_41:
  4235  0026EE  EF29  F013         	goto	i2l3828
  4236  0026F2                     i2u350_40:
  4237  0026F2  0E00               	movlw	0
  4238  0026F4  6E36               	movwf	strtof@flags^(0+1280),c
  4239  0026F6  0E2D               	movlw	45
  4240  0026F8  1839               	xorwf	strtof@eexp^(0+1280),w,c
  4241  0026FA  103A               	iorwf	(strtof@eexp+1)^(0+1280),w,c
  4242  0026FC  A4D8               	btfss	status,2,c
  4243  0026FE  EF83  F013         	goto	i2u351_41
  4244  002702  EF85  F013         	goto	i2u351_40
  4245  002706                     i2u351_41:
  4246  002706  EF8B  F013         	goto	i2l3852
  4247  00270A                     i2u351_40:
  4248  00270A  0E01               	movlw	1
  4249  00270C  6E36               	movwf	strtof@flags^(0+1280),c
  4250  00270E                     i2l3850:
  4251  00270E  4A1A               	infsnz	strtof@s^(0+1280),f,c
  4252  002710  2A1B               	incf	(strtof@s+1)^(0+1280),f,c
  4253  002712  EF97  F013         	goto	i2l3856
  4254  002716                     i2l3852:
  4255  002716  0E2B               	movlw	43
  4256  002718  1839               	xorwf	strtof@eexp^(0+1280),w,c
  4257  00271A  103A               	iorwf	(strtof@eexp+1)^(0+1280),w,c
  4258  00271C  A4D8               	btfss	status,2,c
  4259  00271E  EF93  F013         	goto	i2u352_41
  4260  002722  EF95  F013         	goto	i2u352_40
  4261  002726                     i2u352_41:
  4262  002726  EF97  F013         	goto	i2l3856
  4263  00272A                     i2u352_40:
  4264  00272A  EF87  F013         	goto	i2l3850
  4265  00272E                     i2l3856:
  4266  00272E  0E00               	movlw	0
  4267  002730  6E3F               	movwf	strtof@i^(0+1280),c
  4268  002732  EF9C  F013         	goto	i2l3860
  4269  002736                     i2l3858:
  4270  002736  2A3F               	incf	strtof@i^(0+1280),f,c
  4271  002738                     i2l3860:
  4272  002738  503F               	movf	strtof@i^(0+1280),w,c
  4273  00273A  241A               	addwf	strtof@s^(0+1280),w,c
  4274  00273C  6ED9               	movwf	fsr2l,c
  4275  00273E  0E00               	movlw	0
  4276  002740  201B               	addwfc	(strtof@s+1)^(0+1280),w,c
  4277  002742  6EDA               	movwf	fsr2h,c
  4278  002744  50DF               	movf	indf2,w,c
  4279  002746  B4D8               	btfsc	status,2,c
  4280  002748  EFA8  F013         	goto	i2u353_41
  4281  00274C  EFAA  F013         	goto	i2u353_40
  4282  002750                     i2u353_41:
  4283  002750  EFE0  F013         	goto	i2l3866
  4284  002754                     i2u353_40:
  4285  002754  503F               	movf	strtof@i^(0+1280),w,c
  4286  002756  241A               	addwf	strtof@s^(0+1280),w,c
  4287  002758  6ED9               	movwf	fsr2l,c
  4288  00275A  0E00               	movlw	0
  4289  00275C  201B               	addwfc	(strtof@s+1)^(0+1280),w,c
  4290  00275E  6EDA               	movwf	fsr2h,c
  4291  002760  50DF               	movf	indf2,w,c
  4292  002762  6E1E               	movwf	??_strtof^(0+1280),c
  4293  002764  0E0A               	movlw	low STR_2
  4294  002766  243F               	addwf	strtof@i^(0+1280),w,c
  4295  002768  6EF6               	movwf	tblptrl,c
  4296  00276A  6AF7               	clrf	tblptrh,c
  4297  00276C  0E26               	movlw	high STR_2
  4298  00276E  22F7               	addwfc	tblptrh,f,c
  4299  002770                     	if	1	;There are 3 active tblptr bytes
  4300  002770  6AF8               	clrf	tblptru,c
  4301  002772  0E00               	movlw	low (__mediumconst shr (0+16))
  4302  002774  22F8               	addwfc	tblptru,f,c
  4303  002776                     	endif
  4304  002776  0008               	tblrd		*
  4305  002778  50F5               	movf	tablat,w,c
  4306  00277A  181E               	xorwf	??_strtof^(0+1280),w,c
  4307  00277C  B4D8               	btfsc	status,2,c
  4308  00277E  EFC3  F013         	goto	i2u354_41
  4309  002782  EFC5  F013         	goto	i2u354_40
  4310  002786                     i2u354_41:
  4311  002786  EF9B  F013         	goto	i2l3858
  4312  00278A                     i2u354_40:
  4313  00278A  503F               	movf	strtof@i^(0+1280),w,c
  4314  00278C  241A               	addwf	strtof@s^(0+1280),w,c
  4315  00278E  6ED9               	movwf	fsr2l,c
  4316  002790  0E00               	movlw	0
  4317  002792  201B               	addwfc	(strtof@s+1)^(0+1280),w,c
  4318  002794  6EDA               	movwf	fsr2h,c
  4319  002796  50DF               	movf	indf2,w,c
  4320  002798  6E1E               	movwf	??_strtof^(0+1280),c
  4321  00279A  0E01               	movlw	low STR_3
  4322  00279C  243F               	addwf	strtof@i^(0+1280),w,c
  4323  00279E  6EF6               	movwf	tblptrl,c
  4324  0027A0  6AF7               	clrf	tblptrh,c
  4325  0027A2  0E26               	movlw	high STR_3
  4326  0027A4  22F7               	addwfc	tblptrh,f,c
  4327  0027A6                     	if	1	;There are 3 active tblptr bytes
  4328  0027A6  6AF8               	clrf	tblptru,c
  4329  0027A8  0E00               	movlw	low (__mediumconst shr (0+16))
  4330  0027AA  22F8               	addwfc	tblptru,f,c
  4331  0027AC                     	endif
  4332  0027AC  0008               	tblrd		*
  4333  0027AE  50F5               	movf	tablat,w,c
  4334  0027B0  181E               	xorwf	??_strtof^(0+1280),w,c
  4335  0027B2  B4D8               	btfsc	status,2,c
  4336  0027B4  EFDE  F013         	goto	i2u355_41
  4337  0027B8  EFE0  F013         	goto	i2u355_40
  4338  0027BC                     i2u355_41:
  4339  0027BC  EF9B  F013         	goto	i2l3858
  4340  0027C0                     i2u355_40:
  4341  0027C0                     i2l3866:
  4342  0027C0  0E02               	movlw	2
  4343  0027C2  643F               	cpfsgt	strtof@i^(0+1280),c
  4344  0027C4  EFE6  F013         	goto	i2u356_41
  4345  0027C8  EFE8  F013         	goto	i2u356_40
  4346  0027CC                     i2u356_41:
  4347  0027CC  EF18  F014         	goto	i2l3878
  4348  0027D0                     i2u356_40:
  4349  0027D0  0E00               	movlw	0
  4350  0027D2  6E3B               	movwf	strtof@_u^(0+1280),c
  4351  0027D4  0E00               	movlw	0
  4352  0027D6  6E3C               	movwf	(strtof@_u+1)^(0+1280),c
  4353  0027D8  0E80               	movlw	128
  4354  0027DA  6E3D               	movwf	(strtof@_u+2)^(0+1280),c
  4355  0027DC  0E7F               	movlw	127
  4356  0027DE  6E3E               	movwf	(strtof@_u+3)^(0+1280),c
  4357  0027E0  501C               	movf	strtof@res^(0+1280),w,c
  4358  0027E2  101D               	iorwf	(strtof@res+1)^(0+1280),w,c
  4359  0027E4  B4D8               	btfsc	status,2,c
  4360  0027E6  EFF7  F013         	goto	i2u357_41
  4361  0027EA  EFF9  F013         	goto	i2u357_40
  4362  0027EE                     i2u357_41:
  4363  0027EE  EFDD  F01B         	goto	i2l1433
  4364  0027F2                     i2u357_40:
  4365  0027F2  0E08               	movlw	8
  4366  0027F4  183F               	xorwf	strtof@i^(0+1280),w,c
  4367  0027F6  B4D8               	btfsc	status,2,c
  4368  0027F8  EF00  F014         	goto	i2u358_41
  4369  0027FC  EF02  F014         	goto	i2u358_40
  4370  002800                     i2u358_41:
  4371  002800  EF04  F014         	goto	i2l3876
  4372  002804                     i2u358_40:
  4373  002804  0E03               	movlw	3
  4374  002806  6E3F               	movwf	strtof@i^(0+1280),c
  4375  002808                     i2l3876:
  4376  002808  503F               	movf	strtof@i^(0+1280),w,c
  4377  00280A  241A               	addwf	strtof@s^(0+1280),w,c
  4378  00280C  6E1E               	movwf	??_strtof^(0+1280),c
  4379  00280E  0E00               	movlw	0
  4380  002810  201B               	addwfc	(strtof@s+1)^(0+1280),w,c
  4381  002812  6E1F               	movwf	(??_strtof+1)^(0+1280),c
  4382  002814  0061  F470  F4D9   	movff	strtof@res,fsr2l
  4383  00281A  0061  F474  F4DA   	movff	strtof@res+1,fsr2h
  4384  002820  0061  F478  F4DE   	movff	??_strtof,postinc2
  4385  002826  0061  F47C  F4DD   	movff	??_strtof+1,postdec2
  4386  00282C  EFDD  F01B         	goto	i2l1433
  4387  002830                     i2l3878:
  4388  002830  0E00               	movlw	0
  4389  002832  6E3F               	movwf	strtof@i^(0+1280),c
  4390  002834  EF1D  F014         	goto	i2l3882
  4391  002838                     i2l3880:
  4392  002838  2A3F               	incf	strtof@i^(0+1280),f,c
  4393  00283A                     i2l3882:
  4394  00283A  503F               	movf	strtof@i^(0+1280),w,c
  4395  00283C  241A               	addwf	strtof@s^(0+1280),w,c
  4396  00283E  6ED9               	movwf	fsr2l,c
  4397  002840  0E00               	movlw	0
  4398  002842  201B               	addwfc	(strtof@s+1)^(0+1280),w,c
  4399  002844  6EDA               	movwf	fsr2h,c
  4400  002846  50DF               	movf	indf2,w,c
  4401  002848  B4D8               	btfsc	status,2,c
  4402  00284A  EF29  F014         	goto	i2u359_41
  4403  00284E  EF2B  F014         	goto	i2u359_40
  4404  002852                     i2u359_41:
  4405  002852  EF61  F014         	goto	i2l3888
  4406  002856                     i2u359_40:
  4407  002856  503F               	movf	strtof@i^(0+1280),w,c
  4408  002858  241A               	addwf	strtof@s^(0+1280),w,c
  4409  00285A  6ED9               	movwf	fsr2l,c
  4410  00285C  0E00               	movlw	0
  4411  00285E  201B               	addwfc	(strtof@s+1)^(0+1280),w,c
  4412  002860  6EDA               	movwf	fsr2h,c
  4413  002862  50DF               	movf	indf2,w,c
  4414  002864  6E1E               	movwf	??_strtof^(0+1280),c
  4415  002866  0E1B               	movlw	low STR_7
  4416  002868  243F               	addwf	strtof@i^(0+1280),w,c
  4417  00286A  6EF6               	movwf	tblptrl,c
  4418  00286C  6AF7               	clrf	tblptrh,c
  4419  00286E  0E26               	movlw	high STR_7
  4420  002870  22F7               	addwfc	tblptrh,f,c
  4421  002872                     	if	1	;There are 3 active tblptr bytes
  4422  002872  6AF8               	clrf	tblptru,c
  4423  002874  0E00               	movlw	low (__mediumconst shr (0+16))
  4424  002876  22F8               	addwfc	tblptru,f,c
  4425  002878                     	endif
  4426  002878  0008               	tblrd		*
  4427  00287A  50F5               	movf	tablat,w,c
  4428  00287C  181E               	xorwf	??_strtof^(0+1280),w,c
  4429  00287E  B4D8               	btfsc	status,2,c
  4430  002880  EF44  F014         	goto	i2u360_41
  4431  002884  EF46  F014         	goto	i2u360_40
  4432  002888                     i2u360_41:
  4433  002888  EF1C  F014         	goto	i2l3880
  4434  00288C                     i2u360_40:
  4435  00288C  503F               	movf	strtof@i^(0+1280),w,c
  4436  00288E  241A               	addwf	strtof@s^(0+1280),w,c
  4437  002890  6ED9               	movwf	fsr2l,c
  4438  002892  0E00               	movlw	0
  4439  002894  201B               	addwfc	(strtof@s+1)^(0+1280),w,c
  4440  002896  6EDA               	movwf	fsr2h,c
  4441  002898  50DF               	movf	indf2,w,c
  4442  00289A  6E1E               	movwf	??_strtof^(0+1280),c
  4443  00289C  0E13               	movlw	low STR_8
  4444  00289E  243F               	addwf	strtof@i^(0+1280),w,c
  4445  0028A0  6EF6               	movwf	tblptrl,c
  4446  0028A2  6AF7               	clrf	tblptrh,c
  4447  0028A4  0E26               	movlw	high STR_8
  4448  0028A6  22F7               	addwfc	tblptrh,f,c
  4449  0028A8                     	if	1	;There are 3 active tblptr bytes
  4450  0028A8  6AF8               	clrf	tblptru,c
  4451  0028AA  0E00               	movlw	low (__mediumconst shr (0+16))
  4452  0028AC  22F8               	addwfc	tblptru,f,c
  4453  0028AE                     	endif
  4454  0028AE  0008               	tblrd		*
  4455  0028B0  50F5               	movf	tablat,w,c
  4456  0028B2  181E               	xorwf	??_strtof^(0+1280),w,c
  4457  0028B4  B4D8               	btfsc	status,2,c
  4458  0028B6  EF5F  F014         	goto	i2u361_41
  4459  0028BA  EF61  F014         	goto	i2u361_40
  4460  0028BE                     i2u361_41:
  4461  0028BE  EF1C  F014         	goto	i2l3880
  4462  0028C2                     i2u361_40:
  4463  0028C2                     i2l3888:
  4464  0028C2  0E03               	movlw	3
  4465  0028C4  183F               	xorwf	strtof@i^(0+1280),w,c
  4466  0028C6  A4D8               	btfss	status,2,c
  4467  0028C8  EF68  F014         	goto	i2u362_41
  4468  0028CC  EF6A  F014         	goto	i2u362_40
  4469  0028D0                     i2u362_41:
  4470  0028D0  EFDE  F014         	goto	i2l3912
  4471  0028D4                     i2u362_40:
  4472  0028D4  0E16               	movlw	low (STR_8+3)
  4473  0028D6  6E01               	movwf	nanf@s^(0+1280),c
  4474  0028D8  0E26               	movlw	high (STR_8+3)
  4475  0028DA  6E02               	movwf	(nanf@s+1)^(0+1280),c
  4476  0028DC  ECE7  F029         	call	_nanf	;wreg free
  4477  0028E0  C501  F53B         	movff	?_nanf,strtof@_u
  4478  0028E4  C502  F53C         	movff	?_nanf+1,strtof@_u+1
  4479  0028E8  C503  F53D         	movff	?_nanf+2,strtof@_u+2
  4480  0028EC  C504  F53E         	movff	?_nanf+3,strtof@_u+3
  4481  0028F0  501C               	movf	strtof@res^(0+1280),w,c
  4482  0028F2  101D               	iorwf	(strtof@res+1)^(0+1280),w,c
  4483  0028F4  B4D8               	btfsc	status,2,c
  4484  0028F6  EF7F  F014         	goto	i2u363_41
  4485  0028FA  EF81  F014         	goto	i2u363_40
  4486  0028FE                     i2u363_41:
  4487  0028FE  EFDD  F01B         	goto	i2l1433
  4488  002902                     i2u363_40:
  4489  002902  503F               	movf	strtof@i^(0+1280),w,c
  4490  002904  261A               	addwf	strtof@s^(0+1280),f,c
  4491  002906  0E00               	movlw	0
  4492  002908  221B               	addwfc	(strtof@s+1)^(0+1280),f,c
  4493  00290A  0061  F468  F4D9   	movff	strtof@s,fsr2l
  4494  002910  0061  F46C  F4DA   	movff	strtof@s+1,fsr2h
  4495  002916  0E28               	movlw	40
  4496  002918  18DE               	xorwf	postinc2,w,c
  4497  00291A  A4D8               	btfss	status,2,c
  4498  00291C  EF92  F014         	goto	i2u364_41
  4499  002920  EF94  F014         	goto	i2u364_40
  4500  002924                     i2u364_41:
  4501  002924  EFD0  F014         	goto	i2l3910
  4502  002928                     i2u364_40:
  4503  002928  0E00               	movlw	0
  4504  00292A  6E3F               	movwf	strtof@i^(0+1280),c
  4505  00292C  EF99  F014         	goto	i2l3902
  4506  002930                     i2l3900:
  4507  002930  2A3F               	incf	strtof@i^(0+1280),f,c
  4508  002932                     i2l3902:
  4509  002932  503F               	movf	strtof@i^(0+1280),w,c
  4510  002934  241A               	addwf	strtof@s^(0+1280),w,c
  4511  002936  6ED9               	movwf	fsr2l,c
  4512  002938  0E00               	movlw	0
  4513  00293A  201B               	addwfc	(strtof@s+1)^(0+1280),w,c
  4514  00293C  6EDA               	movwf	fsr2h,c
  4515  00293E  50DF               	movf	indf2,w,c
  4516  002940  B4D8               	btfsc	status,2,c
  4517  002942  EFA5  F014         	goto	i2u365_41
  4518  002946  EFA7  F014         	goto	i2u365_40
  4519  00294A                     i2u365_41:
  4520  00294A  EFB6  F014         	goto	i2l3906
  4521  00294E                     i2u365_40:
  4522  00294E  503F               	movf	strtof@i^(0+1280),w,c
  4523  002950  241A               	addwf	strtof@s^(0+1280),w,c
  4524  002952  6ED9               	movwf	fsr2l,c
  4525  002954  0E00               	movlw	0
  4526  002956  201B               	addwfc	(strtof@s+1)^(0+1280),w,c
  4527  002958  6EDA               	movwf	fsr2h,c
  4528  00295A  0E29               	movlw	41
  4529  00295C  18DE               	xorwf	postinc2,w,c
  4530  00295E  A4D8               	btfss	status,2,c
  4531  002960  EFB4  F014         	goto	i2u366_41
  4532  002964  EFB6  F014         	goto	i2u366_40
  4533  002968                     i2u366_41:
  4534  002968  EF98  F014         	goto	i2l3900
  4535  00296C                     i2u366_40:
  4536  00296C                     i2l3906:
  4537  00296C  503F               	movf	strtof@i^(0+1280),w,c
  4538  00296E  241A               	addwf	strtof@s^(0+1280),w,c
  4539  002970  6ED9               	movwf	fsr2l,c
  4540  002972  0E00               	movlw	0
  4541  002974  201B               	addwfc	(strtof@s+1)^(0+1280),w,c
  4542  002976  6EDA               	movwf	fsr2h,c
  4543  002978  0E29               	movlw	41
  4544  00297A  18DE               	xorwf	postinc2,w,c
  4545  00297C  A4D8               	btfss	status,2,c
  4546  00297E  EFC3  F014         	goto	i2u367_41
  4547  002982  EFC5  F014         	goto	i2u367_40
  4548  002986                     i2u367_41:
  4549  002986  EFD0  F014         	goto	i2l3910
  4550  00298A                     i2u367_40:
  4551  00298A  503F               	movf	strtof@i^(0+1280),w,c
  4552  00298C  6E1E               	movwf	??_strtof^(0+1280),c
  4553  00298E  6A1F               	clrf	(??_strtof+1)^(0+1280),c
  4554  002990  0E01               	movlw	1
  4555  002992  261E               	addwf	??_strtof^(0+1280),f,c
  4556  002994  0E00               	movlw	0
  4557  002996  221F               	addwfc	(??_strtof+1)^(0+1280),f,c
  4558  002998  501E               	movf	??_strtof^(0+1280),w,c
  4559  00299A  261A               	addwf	strtof@s^(0+1280),f,c
  4560  00299C  501F               	movf	(??_strtof+1)^(0+1280),w,c
  4561  00299E  221B               	addwfc	(strtof@s+1)^(0+1280),f,c
  4562  0029A0                     i2l3910:
  4563  0029A0  0061  F470  F4D9   	movff	strtof@res,fsr2l
  4564  0029A6  0061  F474  F4DA   	movff	strtof@res+1,fsr2h
  4565  0029AC  0061  F468  F4DE   	movff	strtof@s,postinc2
  4566  0029B2  0061  F46C  F4DD   	movff	strtof@s+1,postdec2
  4567  0029B8  EFDD  F01B         	goto	i2l1433
  4568  0029BC                     i2l3912:
  4569  0029BC  0E00               	movlw	0
  4570  0029BE  6E3A               	movwf	(strtof@eexp+1)^(0+1280),c
  4571  0029C0  0E00               	movlw	0
  4572  0029C2  6E39               	movwf	strtof@eexp^(0+1280),c
  4573  0029C4  0E00               	movlw	0
  4574  0029C6  6E3B               	movwf	strtof@_u^(0+1280),c
  4575  0029C8  0E00               	movlw	0
  4576  0029CA  6E3C               	movwf	(strtof@_u+1)^(0+1280),c
  4577  0029CC  0E00               	movlw	0
  4578  0029CE  6E3D               	movwf	(strtof@_u+2)^(0+1280),c
  4579  0029D0  0E00               	movlw	0
  4580  0029D2  6E3E               	movwf	(strtof@_u+3)^(0+1280),c
  4581  0029D4  0E00               	movlw	0
  4582  0029D6  6E38               	movwf	(strtof@expon+1)^(0+1280),c
  4583  0029D8  0E00               	movlw	0
  4584  0029DA  6E37               	movwf	strtof@expon^(0+1280),c
  4585  0029DC  0E00               	movlw	0
  4586  0029DE  6E3F               	movwf	strtof@i^(0+1280),c
  4587  0029E0  EFF3  F014         	goto	i2l3916
  4588  0029E4                     i2l3914:
  4589  0029E4  2A3F               	incf	strtof@i^(0+1280),f,c
  4590  0029E6                     i2l3916:
  4591  0029E6  503F               	movf	strtof@i^(0+1280),w,c
  4592  0029E8  241A               	addwf	strtof@s^(0+1280),w,c
  4593  0029EA  6ED9               	movwf	fsr2l,c
  4594  0029EC  0E00               	movlw	0
  4595  0029EE  201B               	addwfc	(strtof@s+1)^(0+1280),w,c
  4596  0029F0  6EDA               	movwf	fsr2h,c
  4597  0029F2  0E30               	movlw	48
  4598  0029F4  18DE               	xorwf	postinc2,w,c
  4599  0029F6  B4D8               	btfsc	status,2,c
  4600  0029F8  EF00  F015         	goto	i2u368_41
  4601  0029FC  EF02  F015         	goto	i2u368_40
  4602  002A00                     i2u368_41:
  4603  002A00  EFF2  F014         	goto	i2l3914
  4604  002A04                     i2u368_40:
  4605  002A04  503F               	movf	strtof@i^(0+1280),w,c
  4606  002A06  B4D8               	btfsc	status,2,c
  4607  002A08  EF08  F015         	goto	i2u369_41
  4608  002A0C  EF0A  F015         	goto	i2u369_40
  4609  002A10                     i2u369_41:
  4610  002A10  EFA5  F018         	goto	i2l1524
  4611  002A14                     i2u369_40:
  4612  002A14  503F               	movf	strtof@i^(0+1280),w,c
  4613  002A16  241A               	addwf	strtof@s^(0+1280),w,c
  4614  002A18  6ED9               	movwf	fsr2l,c
  4615  002A1A  0E00               	movlw	0
  4616  002A1C  201B               	addwfc	(strtof@s+1)^(0+1280),w,c
  4617  002A1E  6EDA               	movwf	fsr2h,c
  4618  002A20  0E78               	movlw	120
  4619  002A22  18DE               	xorwf	postinc2,w,c
  4620  002A24  B4D8               	btfsc	status,2,c
  4621  002A26  EF17  F015         	goto	i2u370_41
  4622  002A2A  EF19  F015         	goto	i2u370_40
  4623  002A2E                     i2u370_41:
  4624  002A2E  EF28  F015         	goto	i2l3924
  4625  002A32                     i2u370_40:
  4626  002A32  503F               	movf	strtof@i^(0+1280),w,c
  4627  002A34  241A               	addwf	strtof@s^(0+1280),w,c
  4628  002A36  6ED9               	movwf	fsr2l,c
  4629  002A38  0E00               	movlw	0
  4630  002A3A  201B               	addwfc	(strtof@s+1)^(0+1280),w,c
  4631  002A3C  6EDA               	movwf	fsr2h,c
  4632  002A3E  0E58               	movlw	88
  4633  002A40  18DE               	xorwf	postinc2,w,c
  4634  002A42  A4D8               	btfss	status,2,c
  4635  002A44  EF26  F015         	goto	i2u371_41
  4636  002A48  EF28  F015         	goto	i2u371_40
  4637  002A4C                     i2u371_41:
  4638  002A4C  EFA5  F018         	goto	i2l1524
  4639  002A50                     i2u371_40:
  4640  002A50                     i2l3924:
  4641  002A50  503F               	movf	strtof@i^(0+1280),w,c
  4642  002A52  6E1E               	movwf	??_strtof^(0+1280),c
  4643  002A54  6A1F               	clrf	(??_strtof+1)^(0+1280),c
  4644  002A56  0E01               	movlw	1
  4645  002A58  261E               	addwf	??_strtof^(0+1280),f,c
  4646  002A5A  0E00               	movlw	0
  4647  002A5C  221F               	addwfc	(??_strtof+1)^(0+1280),f,c
  4648  002A5E  501E               	movf	??_strtof^(0+1280),w,c
  4649  002A60  261A               	addwf	strtof@s^(0+1280),f,c
  4650  002A62  501F               	movf	(??_strtof+1)^(0+1280),w,c
  4651  002A64  221B               	addwfc	(strtof@s+1)^(0+1280),f,c
  4652  002A66  0E00               	movlw	0
  4653  002A68  6E3F               	movwf	strtof@i^(0+1280),c
  4654  002A6A  EF38  F015         	goto	i2l3930
  4655  002A6E                     i2l3928:
  4656  002A6E  2A3F               	incf	strtof@i^(0+1280),f,c
  4657  002A70                     i2l3930:
  4658  002A70  503F               	movf	strtof@i^(0+1280),w,c
  4659  002A72  241A               	addwf	strtof@s^(0+1280),w,c
  4660  002A74  6ED9               	movwf	fsr2l,c
  4661  002A76  0E00               	movlw	0
  4662  002A78  201B               	addwfc	(strtof@s+1)^(0+1280),w,c
  4663  002A7A  6EDA               	movwf	fsr2h,c
  4664  002A7C  0E30               	movlw	48
  4665  002A7E  18DE               	xorwf	postinc2,w,c
  4666  002A80  B4D8               	btfsc	status,2,c
  4667  002A82  EF45  F015         	goto	i2u372_41
  4668  002A86  EF47  F015         	goto	i2u372_40
  4669  002A8A                     i2u372_41:
  4670  002A8A  EF37  F015         	goto	i2l3928
  4671  002A8E                     i2u372_40:
  4672  002A8E  0E00               	movlw	0
  4673  002A90  6E3F               	movwf	strtof@i^(0+1280),c
  4674  002A92                     i2l3934:
  4675  002A92  503F               	movf	strtof@i^(0+1280),w,c
  4676  002A94  241A               	addwf	strtof@s^(0+1280),w,c
  4677  002A96  6ED9               	movwf	fsr2l,c
  4678  002A98  0E00               	movlw	0
  4679  002A9A  201B               	addwfc	(strtof@s+1)^(0+1280),w,c
  4680  002A9C  6EDA               	movwf	fsr2h,c
  4681  002A9E  0E70               	movlw	112
  4682  002AA0  18DE               	xorwf	postinc2,w,c
  4683  002AA2  B4D8               	btfsc	status,2,c
  4684  002AA4  EF56  F015         	goto	i2u373_41
  4685  002AA8  EF58  F015         	goto	i2u373_40
  4686  002AAC                     i2u373_41:
  4687  002AAC  EFE4  F016         	goto	i2l4008
  4688  002AB0                     i2u373_40:
  4689  002AB0  503F               	movf	strtof@i^(0+1280),w,c
  4690  002AB2  241A               	addwf	strtof@s^(0+1280),w,c
  4691  002AB4  6ED9               	movwf	fsr2l,c
  4692  002AB6  0E00               	movlw	0
  4693  002AB8  201B               	addwfc	(strtof@s+1)^(0+1280),w,c
  4694  002ABA  6EDA               	movwf	fsr2h,c
  4695  002ABC  0E50               	movlw	80
  4696  002ABE  18DE               	xorwf	postinc2,w,c
  4697  002AC0  A4D8               	btfss	status,2,c
  4698  002AC2  EF65  F015         	goto	i2u374_41
  4699  002AC6  EF67  F015         	goto	i2u374_40
  4700  002ACA                     i2u374_41:
  4701  002ACA  EF69  F015         	goto	i2l3940
  4702  002ACE                     i2u374_40:
  4703  002ACE  EFE4  F016         	goto	i2l4008
  4704  002AD2                     i2l3940:
  4705  002AD2  503F               	movf	strtof@i^(0+1280),w,c
  4706  002AD4  241A               	addwf	strtof@s^(0+1280),w,c
  4707  002AD6  6ED9               	movwf	fsr2l,c
  4708  002AD8  0E00               	movlw	0
  4709  002ADA  201B               	addwfc	(strtof@s+1)^(0+1280),w,c
  4710  002ADC  6EDA               	movwf	fsr2h,c
  4711  002ADE  0E2E               	movlw	46
  4712  002AE0  18DE               	xorwf	postinc2,w,c
  4713  002AE2  A4D8               	btfss	status,2,c
  4714  002AE4  EF76  F015         	goto	i2u375_41
  4715  002AE8  EF78  F015         	goto	i2u375_40
  4716  002AEC                     i2u375_41:
  4717  002AEC  EF7C  F015         	goto	i2l3946
  4718  002AF0                     i2u375_40:
  4719  002AF0  8836               	bsf	strtof@flags^(0+1280),4,c
  4720  002AF2  2A3F               	incf	strtof@i^(0+1280),f,c
  4721  002AF4  EFE4  F016         	goto	i2l4008
  4722  002AF8                     i2l3946:
  4723  002AF8  503F               	movf	strtof@i^(0+1280),w,c
  4724  002AFA  241A               	addwf	strtof@s^(0+1280),w,c
  4725  002AFC  6ED9               	movwf	fsr2l,c
  4726  002AFE  0E00               	movlw	0
  4727  002B00  201B               	addwfc	(strtof@s+1)^(0+1280),w,c
  4728  002B02  6EDA               	movwf	fsr2h,c
  4729  002B04  50DF               	movf	indf2,w,c
  4730  002B06  6E1E               	movwf	??_strtof^(0+1280),c
  4731  002B08  501E               	movf	??_strtof^(0+1280),w,c
  4732  002B0A  6E01               	movwf	isxdigit@c^(0+1280),c
  4733  002B0C  6A02               	clrf	(isxdigit@c+1)^(0+1280),c
  4734  002B0E  EC4E  F027         	call	_isxdigit	;wreg free
  4735  002B12  5001               	movf	?_isxdigit^(0+1280),w,c
  4736  002B14  1002               	iorwf	(?_isxdigit+1)^(0+1280),w,c
  4737  002B16  B4D8               	btfsc	status,2,c
  4738  002B18  EF90  F015         	goto	i2u376_41
  4739  002B1C  EF92  F015         	goto	i2u376_40
  4740  002B20                     i2u376_41:
  4741  002B20  EF0D  F016         	goto	i2l3968
  4742  002B24                     i2u376_40:
  4743  002B24  0E00               	movlw	0
  4744  002B26  6E35               	movwf	strtof@digit^(0+1280),c
  4745  002B28  0ED0               	movlw	208
  4746  002B2A  6E1E               	movwf	??_strtof^(0+1280),c
  4747  002B2C  0EFF               	movlw	255
  4748  002B2E  6E1F               	movwf	(??_strtof+1)^(0+1280),c
  4749  002B30  503F               	movf	strtof@i^(0+1280),w,c
  4750  002B32  241A               	addwf	strtof@s^(0+1280),w,c
  4751  002B34  6ED9               	movwf	fsr2l,c
  4752  002B36  0E00               	movlw	0
  4753  002B38  201B               	addwfc	(strtof@s+1)^(0+1280),w,c
  4754  002B3A  6EDA               	movwf	fsr2h,c
  4755  002B3C  50DF               	movf	indf2,w,c
  4756  002B3E  6E20               	movwf	(??_strtof+2)^(0+1280),c
  4757  002B40  6A21               	clrf	(??_strtof+3)^(0+1280),c
  4758  002B42  501E               	movf	??_strtof^(0+1280),w,c
  4759  002B44  2620               	addwf	(??_strtof+2)^(0+1280),f,c
  4760  002B46  501F               	movf	(??_strtof+1)^(0+1280),w,c
  4761  002B48  2221               	addwfc	(??_strtof+3)^(0+1280),f,c
  4762  002B4A  5021               	movf	(??_strtof+3)^(0+1280),w,c
  4763  002B4C  E10A               	bnz	i2u377_40
  4764  002B4E  0E0A               	movlw	10
  4765  002B50  5C20               	subwf	(??_strtof+2)^(0+1280),w,c
  4766  002B52  A0D8               	btfss	status,0,c
  4767  002B54  EFAE  F015         	goto	i2u377_41
  4768  002B58  EFB1  F015         	goto	i2u377_40
  4769  002B5C                     i2u377_41:
  4770  002B5C  0E01               	movlw	1
  4771  002B5E  EFB2  F015         	goto	i2u378_40
  4772  002B62                     i2u377_40:
  4773  002B62  0E00               	movlw	0
  4774  002B64                     i2u378_40:
  4775  002B64  6E26               	movwf	_strtof$1954^(0+1280),c
  4776  002B66  6A27               	clrf	(_strtof$1954+1)^(0+1280),c
  4777  002B68  5026               	movf	_strtof$1954^(0+1280),w,c
  4778  002B6A  1027               	iorwf	(_strtof$1954+1)^(0+1280),w,c
  4779  002B6C  B4D8               	btfsc	status,2,c
  4780  002B6E  EFBB  F015         	goto	i2u379_41
  4781  002B72  EFBD  F015         	goto	i2u379_40
  4782  002B76                     i2u379_41:
  4783  002B76  EFC8  F015         	goto	i2l3958
  4784  002B7A                     i2u379_40:
  4785  002B7A  503F               	movf	strtof@i^(0+1280),w,c
  4786  002B7C  241A               	addwf	strtof@s^(0+1280),w,c
  4787  002B7E  6ED9               	movwf	fsr2l,c
  4788  002B80  0E00               	movlw	0
  4789  002B82  201B               	addwfc	(strtof@s+1)^(0+1280),w,c
  4790  002B84  6EDA               	movwf	fsr2h,c
  4791  002B86  50DF               	movf	indf2,w,c
  4792  002B88  0FD0               	addlw	208
  4793  002B8A  6E35               	movwf	strtof@digit^(0+1280),c
  4794  002B8C  EFD8  F015         	goto	i2l3960
  4795  002B90                     i2l3958:
  4796  002B90  503F               	movf	strtof@i^(0+1280),w,c
  4797  002B92  241A               	addwf	strtof@s^(0+1280),w,c
  4798  002B94  6ED9               	movwf	fsr2l,c
  4799  002B96  0E00               	movlw	0
  4800  002B98  201B               	addwfc	(strtof@s+1)^(0+1280),w,c
  4801  002B9A  6EDA               	movwf	fsr2h,c
  4802  002B9C  50DF               	movf	indf2,w,c
  4803  002B9E  6E1E               	movwf	??_strtof^(0+1280),c
  4804  002BA0  501E               	movf	??_strtof^(0+1280),w,c
  4805  002BA2  6E07               	movwf	toupper@c^(0+1280),c
  4806  002BA4  6A08               	clrf	(toupper@c+1)^(0+1280),c
  4807  002BA6  EC20  F028         	call	_toupper	;wreg free
  4808  002BAA  5007               	movf	?_toupper^(0+1280),w,c
  4809  002BAC  0FC9               	addlw	201
  4810  002BAE  6E35               	movwf	strtof@digit^(0+1280),c
  4811  002BB0                     i2l3960:
  4812  002BB0  BE3A               	btfsc	(strtof@eexp+1)^(0+1280),7,c
  4813  002BB2  EFE6  F015         	goto	i2u380_40
  4814  002BB6  503A               	movf	(strtof@eexp+1)^(0+1280),w,c
  4815  002BB8  E107               	bnz	i2u380_41
  4816  002BBA  0E08               	movlw	8
  4817  002BBC  5C39               	subwf	strtof@eexp^(0+1280),w,c
  4818  002BBE  B0D8               	btfsc	status,0,c
  4819  002BC0  EFE4  F015         	goto	i2u380_41
  4820  002BC4  EFE6  F015         	goto	i2u380_40
  4821  002BC8                     i2u380_41:
  4822  002BC8  EF05  F016         	goto	i2l3964
  4823  002BCC                     i2u380_40:
  4824  002BCC  5039               	movf	strtof@eexp^(0+1280),w,c
  4825  002BCE  0807               	sublw	7
  4826  002BD0  6E1E               	movwf	??_strtof^(0+1280),c
  4827  002BD2  90D8               	bcf	status,0,c
  4828  002BD4  361E               	rlcf	??_strtof^(0+1280),f,c
  4829  002BD6  90D8               	bcf	status,0,c
  4830  002BD8  361E               	rlcf	??_strtof^(0+1280),f,c
  4831  002BDA  C535  F51F         	movff	strtof@digit,??_strtof+1
  4832  002BDE  6A20               	clrf	(??_strtof+2)^(0+1280),c
  4833  002BE0  6A21               	clrf	(??_strtof+3)^(0+1280),c
  4834  002BE2  6A22               	clrf	(??_strtof+4)^(0+1280),c
  4835  002BE4  2A1E               	incf	??_strtof^(0+1280),f,c
  4836  002BE6  EFFA  F015         	goto	i2u381_40
  4837  002BEA                     i2u381_45:
  4838  002BEA  90D8               	bcf	status,0,c
  4839  002BEC  361F               	rlcf	(??_strtof+1)^(0+1280),f,c
  4840  002BEE  3620               	rlcf	(??_strtof+2)^(0+1280),f,c
  4841  002BF0  3621               	rlcf	(??_strtof+3)^(0+1280),f,c
  4842  002BF2  3622               	rlcf	(??_strtof+4)^(0+1280),f,c
  4843  002BF4                     i2u381_40:
  4844  002BF4  2E1E               	decfsz	??_strtof^(0+1280),f,c
  4845  002BF6  EFF5  F015         	goto	i2u381_45
  4846  002BFA  501F               	movf	(??_strtof+1)^(0+1280),w,c
  4847  002BFC  123B               	iorwf	strtof@_u^(0+1280),f,c
  4848  002BFE  5020               	movf	(??_strtof+2)^(0+1280),w,c
  4849  002C00  123C               	iorwf	(strtof@_u+1)^(0+1280),f,c
  4850  002C02  5021               	movf	(??_strtof+3)^(0+1280),w,c
  4851  002C04  123D               	iorwf	(strtof@_u+2)^(0+1280),f,c
  4852  002C06  5022               	movf	(??_strtof+4)^(0+1280),w,c
  4853  002C08  123E               	iorwf	(strtof@_u+3)^(0+1280),f,c
  4854  002C0A                     i2l3964:
  4855  002C0A  4A39               	infsnz	strtof@eexp^(0+1280),f,c
  4856  002C0C  2A3A               	incf	(strtof@eexp+1)^(0+1280),f,c
  4857  002C0E  0E04               	movlw	4
  4858  002C10  2637               	addwf	strtof@expon^(0+1280),f,c
  4859  002C12  0E00               	movlw	0
  4860  002C14  2238               	addwfc	(strtof@expon+1)^(0+1280),f,c
  4861  002C16  EF17  F016         	goto	i2l3972
  4862  002C1A                     i2l3968:
  4863  002C1A  0E00               	movlw	0
  4864  002C1C  6E1A               	movwf	?_strtof^(0+1280),c
  4865  002C1E  0E00               	movlw	0
  4866  002C20  6E1B               	movwf	(?_strtof+1)^(0+1280),c
  4867  002C22  0E00               	movlw	0
  4868  002C24  6E1C               	movwf	(?_strtof+2)^(0+1280),c
  4869  002C26  0E00               	movlw	0
  4870  002C28  6E1D               	movwf	(?_strtof+3)^(0+1280),c
  4871  002C2A  EFFE  F01B         	goto	i2l1479
  4872  002C2E                     i2l3972:
  4873  002C2E  2A3F               	incf	strtof@i^(0+1280),f,c
  4874  002C30  EF49  F015         	goto	i2l3934
  4875  002C34                     i2l3974:
  4876  002C34  503F               	movf	strtof@i^(0+1280),w,c
  4877  002C36  241A               	addwf	strtof@s^(0+1280),w,c
  4878  002C38  6ED9               	movwf	fsr2l,c
  4879  002C3A  0E00               	movlw	0
  4880  002C3C  201B               	addwfc	(strtof@s+1)^(0+1280),w,c
  4881  002C3E  6EDA               	movwf	fsr2h,c
  4882  002C40  0E70               	movlw	112
  4883  002C42  18DE               	xorwf	postinc2,w,c
  4884  002C44  B4D8               	btfsc	status,2,c
  4885  002C46  EF27  F016         	goto	i2u382_41
  4886  002C4A  EF29  F016         	goto	i2u382_40
  4887  002C4E                     i2u382_41:
  4888  002C4E  EFEB  F016         	goto	i2l4010
  4889  002C52                     i2u382_40:
  4890  002C52  503F               	movf	strtof@i^(0+1280),w,c
  4891  002C54  241A               	addwf	strtof@s^(0+1280),w,c
  4892  002C56  6ED9               	movwf	fsr2l,c
  4893  002C58  0E00               	movlw	0
  4894  002C5A  201B               	addwfc	(strtof@s+1)^(0+1280),w,c
  4895  002C5C  6EDA               	movwf	fsr2h,c
  4896  002C5E  0E50               	movlw	80
  4897  002C60  18DE               	xorwf	postinc2,w,c
  4898  002C62  A4D8               	btfss	status,2,c
  4899  002C64  EF36  F016         	goto	i2u383_41
  4900  002C68  EF38  F016         	goto	i2u383_40
  4901  002C6C                     i2u383_41:
  4902  002C6C  EF3A  F016         	goto	i2l3980
  4903  002C70                     i2u383_40:
  4904  002C70  EFEB  F016         	goto	i2l4010
  4905  002C74                     i2l3980:
  4906  002C74  503F               	movf	strtof@i^(0+1280),w,c
  4907  002C76  241A               	addwf	strtof@s^(0+1280),w,c
  4908  002C78  6ED9               	movwf	fsr2l,c
  4909  002C7A  0E00               	movlw	0
  4910  002C7C  201B               	addwfc	(strtof@s+1)^(0+1280),w,c
  4911  002C7E  6EDA               	movwf	fsr2h,c
  4912  002C80  0E30               	movlw	48
  4913  002C82  18DE               	xorwf	postinc2,w,c
  4914  002C84  A4D8               	btfss	status,2,c
  4915  002C86  EF47  F016         	goto	i2u384_41
  4916  002C8A  EF49  F016         	goto	i2u384_40
  4917  002C8E                     i2u384_41:
  4918  002C8E  EF58  F016         	goto	i2l3986
  4919  002C92                     i2u384_40:
  4920  002C92  5039               	movf	strtof@eexp^(0+1280),w,c
  4921  002C94  103A               	iorwf	(strtof@eexp+1)^(0+1280),w,c
  4922  002C96  A4D8               	btfss	status,2,c
  4923  002C98  EF50  F016         	goto	i2u385_41
  4924  002C9C  EF52  F016         	goto	i2u385_40
  4925  002CA0                     i2u385_41:
  4926  002CA0  EF58  F016         	goto	i2l3986
  4927  002CA4                     i2u385_40:
  4928  002CA4  0EFC               	movlw	252
  4929  002CA6  2637               	addwf	strtof@expon^(0+1280),f,c
  4930  002CA8  0EFF               	movlw	255
  4931  002CAA  2238               	addwfc	(strtof@expon+1)^(0+1280),f,c
  4932  002CAC  EFE3  F016         	goto	i2l4006
  4933  002CB0                     i2l3986:
  4934  002CB0  503F               	movf	strtof@i^(0+1280),w,c
  4935  002CB2  241A               	addwf	strtof@s^(0+1280),w,c
  4936  002CB4  6ED9               	movwf	fsr2l,c
  4937  002CB6  0E00               	movlw	0
  4938  002CB8  201B               	addwfc	(strtof@s+1)^(0+1280),w,c
  4939  002CBA  6EDA               	movwf	fsr2h,c
  4940  002CBC  50DF               	movf	indf2,w,c
  4941  002CBE  6E1E               	movwf	??_strtof^(0+1280),c
  4942  002CC0  501E               	movf	??_strtof^(0+1280),w,c
  4943  002CC2  6E01               	movwf	isxdigit@c^(0+1280),c
  4944  002CC4  6A02               	clrf	(isxdigit@c+1)^(0+1280),c
  4945  002CC6  EC4E  F027         	call	_isxdigit	;wreg free
  4946  002CCA  5001               	movf	?_isxdigit^(0+1280),w,c
  4947  002CCC  1002               	iorwf	(?_isxdigit+1)^(0+1280),w,c
  4948  002CCE  B4D8               	btfsc	status,2,c
  4949  002CD0  EF6C  F016         	goto	i2u386_41
  4950  002CD4  EF6E  F016         	goto	i2u386_40
  4951  002CD8                     i2u386_41:
  4952  002CD8  EFE3  F016         	goto	i2l4006
  4953  002CDC                     i2u386_40:
  4954  002CDC  0E00               	movlw	0
  4955  002CDE  6E35               	movwf	strtof@digit^(0+1280),c
  4956  002CE0  0ED0               	movlw	208
  4957  002CE2  6E1E               	movwf	??_strtof^(0+1280),c
  4958  002CE4  0EFF               	movlw	255
  4959  002CE6  6E1F               	movwf	(??_strtof+1)^(0+1280),c
  4960  002CE8  503F               	movf	strtof@i^(0+1280),w,c
  4961  002CEA  241A               	addwf	strtof@s^(0+1280),w,c
  4962  002CEC  6ED9               	movwf	fsr2l,c
  4963  002CEE  0E00               	movlw	0
  4964  002CF0  201B               	addwfc	(strtof@s+1)^(0+1280),w,c
  4965  002CF2  6EDA               	movwf	fsr2h,c
  4966  002CF4  50DF               	movf	indf2,w,c
  4967  002CF6  6E20               	movwf	(??_strtof+2)^(0+1280),c
  4968  002CF8  6A21               	clrf	(??_strtof+3)^(0+1280),c
  4969  002CFA  501E               	movf	??_strtof^(0+1280),w,c
  4970  002CFC  2620               	addwf	(??_strtof+2)^(0+1280),f,c
  4971  002CFE  501F               	movf	(??_strtof+1)^(0+1280),w,c
  4972  002D00  2221               	addwfc	(??_strtof+3)^(0+1280),f,c
  4973  002D02  5021               	movf	(??_strtof+3)^(0+1280),w,c
  4974  002D04  E10A               	bnz	i2u387_40
  4975  002D06  0E0A               	movlw	10
  4976  002D08  5C20               	subwf	(??_strtof+2)^(0+1280),w,c
  4977  002D0A  A0D8               	btfss	status,0,c
  4978  002D0C  EF8A  F016         	goto	i2u387_41
  4979  002D10  EF8D  F016         	goto	i2u387_40
  4980  002D14                     i2u387_41:
  4981  002D14  0E01               	movlw	1
  4982  002D16  EF8E  F016         	goto	i2u388_40
  4983  002D1A                     i2u387_40:
  4984  002D1A  0E00               	movlw	0
  4985  002D1C                     i2u388_40:
  4986  002D1C  6E28               	movwf	_strtof$1955^(0+1280),c
  4987  002D1E  6A29               	clrf	(_strtof$1955+1)^(0+1280),c
  4988  002D20  5028               	movf	_strtof$1955^(0+1280),w,c
  4989  002D22  1029               	iorwf	(_strtof$1955+1)^(0+1280),w,c
  4990  002D24  B4D8               	btfsc	status,2,c
  4991  002D26  EF97  F016         	goto	i2u389_41
  4992  002D2A  EF99  F016         	goto	i2u389_40
  4993  002D2E                     i2u389_41:
  4994  002D2E  EFA4  F016         	goto	i2l3998
  4995  002D32                     i2u389_40:
  4996  002D32  503F               	movf	strtof@i^(0+1280),w,c
  4997  002D34  241A               	addwf	strtof@s^(0+1280),w,c
  4998  002D36  6ED9               	movwf	fsr2l,c
  4999  002D38  0E00               	movlw	0
  5000  002D3A  201B               	addwfc	(strtof@s+1)^(0+1280),w,c
  5001  002D3C  6EDA               	movwf	fsr2h,c
  5002  002D3E  50DF               	movf	indf2,w,c
  5003  002D40  0FD0               	addlw	208
  5004  002D42  6E35               	movwf	strtof@digit^(0+1280),c
  5005  002D44  EFB4  F016         	goto	i2l4000
  5006  002D48                     i2l3998:
  5007  002D48  503F               	movf	strtof@i^(0+1280),w,c
  5008  002D4A  241A               	addwf	strtof@s^(0+1280),w,c
  5009  002D4C  6ED9               	movwf	fsr2l,c
  5010  002D4E  0E00               	movlw	0
  5011  002D50  201B               	addwfc	(strtof@s+1)^(0+1280),w,c
  5012  002D52  6EDA               	movwf	fsr2h,c
  5013  002D54  50DF               	movf	indf2,w,c
  5014  002D56  6E1E               	movwf	??_strtof^(0+1280),c
  5015  002D58  501E               	movf	??_strtof^(0+1280),w,c
  5016  002D5A  6E07               	movwf	toupper@c^(0+1280),c
  5017  002D5C  6A08               	clrf	(toupper@c+1)^(0+1280),c
  5018  002D5E  EC20  F028         	call	_toupper	;wreg free
  5019  002D62  5007               	movf	?_toupper^(0+1280),w,c
  5020  002D64  0FC9               	addlw	201
  5021  002D66  6E35               	movwf	strtof@digit^(0+1280),c
  5022  002D68                     i2l4000:
  5023  002D68  BE3A               	btfsc	(strtof@eexp+1)^(0+1280),7,c
  5024  002D6A  EFC2  F016         	goto	i2u390_40
  5025  002D6E  503A               	movf	(strtof@eexp+1)^(0+1280),w,c
  5026  002D70  E107               	bnz	i2u390_41
  5027  002D72  0E08               	movlw	8
  5028  002D74  5C39               	subwf	strtof@eexp^(0+1280),w,c
  5029  002D76  B0D8               	btfsc	status,0,c
  5030  002D78  EFC0  F016         	goto	i2u390_41
  5031  002D7C  EFC2  F016         	goto	i2u390_40
  5032  002D80                     i2u390_41:
  5033  002D80  EFE1  F016         	goto	i2l4004
  5034  002D84                     i2u390_40:
  5035  002D84  5039               	movf	strtof@eexp^(0+1280),w,c
  5036  002D86  0807               	sublw	7
  5037  002D88  6E1E               	movwf	??_strtof^(0+1280),c
  5038  002D8A  90D8               	bcf	status,0,c
  5039  002D8C  361E               	rlcf	??_strtof^(0+1280),f,c
  5040  002D8E  90D8               	bcf	status,0,c
  5041  002D90  361E               	rlcf	??_strtof^(0+1280),f,c
  5042  002D92  C535  F51F         	movff	strtof@digit,??_strtof+1
  5043  002D96  6A20               	clrf	(??_strtof+2)^(0+1280),c
  5044  002D98  6A21               	clrf	(??_strtof+3)^(0+1280),c
  5045  002D9A  6A22               	clrf	(??_strtof+4)^(0+1280),c
  5046  002D9C  2A1E               	incf	??_strtof^(0+1280),f,c
  5047  002D9E  EFD6  F016         	goto	i2u391_40
  5048  002DA2                     i2u391_45:
  5049  002DA2  90D8               	bcf	status,0,c
  5050  002DA4  361F               	rlcf	(??_strtof+1)^(0+1280),f,c
  5051  002DA6  3620               	rlcf	(??_strtof+2)^(0+1280),f,c
  5052  002DA8  3621               	rlcf	(??_strtof+3)^(0+1280),f,c
  5053  002DAA  3622               	rlcf	(??_strtof+4)^(0+1280),f,c
  5054  002DAC                     i2u391_40:
  5055  002DAC  2E1E               	decfsz	??_strtof^(0+1280),f,c
  5056  002DAE  EFD1  F016         	goto	i2u391_45
  5057  002DB2  501F               	movf	(??_strtof+1)^(0+1280),w,c
  5058  002DB4  123B               	iorwf	strtof@_u^(0+1280),f,c
  5059  002DB6  5020               	movf	(??_strtof+2)^(0+1280),w,c
  5060  002DB8  123C               	iorwf	(strtof@_u+1)^(0+1280),f,c
  5061  002DBA  5021               	movf	(??_strtof+3)^(0+1280),w,c
  5062  002DBC  123D               	iorwf	(strtof@_u+2)^(0+1280),f,c
  5063  002DBE  5022               	movf	(??_strtof+4)^(0+1280),w,c
  5064  002DC0  123E               	iorwf	(strtof@_u+3)^(0+1280),f,c
  5065  002DC2                     i2l4004:
  5066  002DC2  4A39               	infsnz	strtof@eexp^(0+1280),f,c
  5067  002DC4  2A3A               	incf	(strtof@eexp+1)^(0+1280),f,c
  5068  002DC6                     i2l4006:
  5069  002DC6  2A3F               	incf	strtof@i^(0+1280),f,c
  5070  002DC8                     i2l4008:
  5071  002DC8  B836               	btfsc	strtof@flags^(0+1280),4,c
  5072  002DCA  EFE9  F016         	goto	i2u392_41
  5073  002DCE  EFEB  F016         	goto	i2u392_40
  5074  002DD2                     i2u392_41:
  5075  002DD2  EF1A  F016         	goto	i2l3974
  5076  002DD6                     i2u392_40:
  5077  002DD6                     i2l4010:
  5078  002DD6  503F               	movf	strtof@i^(0+1280),w,c
  5079  002DD8  241A               	addwf	strtof@s^(0+1280),w,c
  5080  002DDA  6ED9               	movwf	fsr2l,c
  5081  002DDC  0E00               	movlw	0
  5082  002DDE  201B               	addwfc	(strtof@s+1)^(0+1280),w,c
  5083  002DE0  6EDA               	movwf	fsr2h,c
  5084  002DE2  0E70               	movlw	112
  5085  002DE4  18DE               	xorwf	postinc2,w,c
  5086  002DE6  B4D8               	btfsc	status,2,c
  5087  002DE8  EFF8  F016         	goto	i2u393_41
  5088  002DEC  EFFA  F016         	goto	i2u393_40
  5089  002DF0                     i2u393_41:
  5090  002DF0  EF13  F017         	goto	i2l4018
  5091  002DF4                     i2u393_40:
  5092  002DF4  503F               	movf	strtof@i^(0+1280),w,c
  5093  002DF6  241A               	addwf	strtof@s^(0+1280),w,c
  5094  002DF8  6ED9               	movwf	fsr2l,c
  5095  002DFA  0E00               	movlw	0
  5096  002DFC  201B               	addwfc	(strtof@s+1)^(0+1280),w,c
  5097  002DFE  6EDA               	movwf	fsr2h,c
  5098  002E00  0E50               	movlw	80
  5099  002E02  18DE               	xorwf	postinc2,w,c
  5100  002E04  B4D8               	btfsc	status,2,c
  5101  002E06  EF07  F017         	goto	i2u394_41
  5102  002E0A  EF09  F017         	goto	i2u394_40
  5103  002E0E                     i2u394_41:
  5104  002E0E  EF13  F017         	goto	i2l4018
  5105  002E12                     i2u394_40:
  5106  002E12  0E00               	movlw	0
  5107  002E14  6E1A               	movwf	?_strtof^(0+1280),c
  5108  002E16  0E00               	movlw	0
  5109  002E18  6E1B               	movwf	(?_strtof+1)^(0+1280),c
  5110  002E1A  0E00               	movlw	0
  5111  002E1C  6E1C               	movwf	(?_strtof+2)^(0+1280),c
  5112  002E1E  0E00               	movlw	0
  5113  002E20  6E1D               	movwf	(?_strtof+3)^(0+1280),c
  5114  002E22  EFFE  F01B         	goto	i2l1479
  5115  002E26                     i2l4018:
  5116  002E26  2A3F               	incf	strtof@i^(0+1280),f,c
  5117  002E28  503F               	movf	strtof@i^(0+1280),w,c
  5118  002E2A  241A               	addwf	strtof@s^(0+1280),w,c
  5119  002E2C  6ED9               	movwf	fsr2l,c
  5120  002E2E  0E00               	movlw	0
  5121  002E30  201B               	addwfc	(strtof@s+1)^(0+1280),w,c
  5122  002E32  6EDA               	movwf	fsr2h,c
  5123  002E34  0E2B               	movlw	43
  5124  002E36  18DE               	xorwf	postinc2,w,c
  5125  002E38  A4D8               	btfss	status,2,c
  5126  002E3A  EF21  F017         	goto	i2u395_41
  5127  002E3E  EF23  F017         	goto	i2u395_40
  5128  002E42                     i2u395_41:
  5129  002E42  EF26  F017         	goto	i2l4024
  5130  002E46                     i2u395_40:
  5131  002E46  2A3F               	incf	strtof@i^(0+1280),f,c
  5132  002E48  EF37  F017         	goto	i2l4028
  5133  002E4C                     i2l4024:
  5134  002E4C  503F               	movf	strtof@i^(0+1280),w,c
  5135  002E4E  241A               	addwf	strtof@s^(0+1280),w,c
  5136  002E50  6ED9               	movwf	fsr2l,c
  5137  002E52  0E00               	movlw	0
  5138  002E54  201B               	addwfc	(strtof@s+1)^(0+1280),w,c
  5139  002E56  6EDA               	movwf	fsr2h,c
  5140  002E58  0E2D               	movlw	45
  5141  002E5A  18DE               	xorwf	postinc2,w,c
  5142  002E5C  A4D8               	btfss	status,2,c
  5143  002E5E  EF33  F017         	goto	i2u396_41
  5144  002E62  EF35  F017         	goto	i2u396_40
  5145  002E66                     i2u396_41:
  5146  002E66  EF37  F017         	goto	i2l4028
  5147  002E6A                     i2u396_40:
  5148  002E6A  8636               	bsf	strtof@flags^(0+1280),3,c
  5149  002E6C  2A3F               	incf	strtof@i^(0+1280),f,c
  5150  002E6E                     i2l4028:
  5151  002E6E  503F               	movf	strtof@i^(0+1280),w,c
  5152  002E70  261A               	addwf	strtof@s^(0+1280),f,c
  5153  002E72  0E00               	movlw	0
  5154  002E74  221B               	addwfc	(strtof@s+1)^(0+1280),f,c
  5155  002E76  0E00               	movlw	0
  5156  002E78  6E3F               	movwf	strtof@i^(0+1280),c
  5157  002E7A  EF40  F017         	goto	i2l4034
  5158  002E7E                     i2l4032:
  5159  002E7E  2A3F               	incf	strtof@i^(0+1280),f,c
  5160  002E80                     i2l4034:
  5161  002E80  503F               	movf	strtof@i^(0+1280),w,c
  5162  002E82  241A               	addwf	strtof@s^(0+1280),w,c
  5163  002E84  6ED9               	movwf	fsr2l,c
  5164  002E86  0E00               	movlw	0
  5165  002E88  201B               	addwfc	(strtof@s+1)^(0+1280),w,c
  5166  002E8A  6EDA               	movwf	fsr2h,c
  5167  002E8C  0E30               	movlw	48
  5168  002E8E  18DE               	xorwf	postinc2,w,c
  5169  002E90  B4D8               	btfsc	status,2,c
  5170  002E92  EF4D  F017         	goto	i2u397_41
  5171  002E96  EF4F  F017         	goto	i2u397_40
  5172  002E9A                     i2u397_41:
  5173  002E9A  EF3F  F017         	goto	i2l4032
  5174  002E9E                     i2u397_40:
  5175  002E9E  0E00               	movlw	0
  5176  002EA0  6E3A               	movwf	(strtof@eexp+1)^(0+1280),c
  5177  002EA2  0E00               	movlw	0
  5178  002EA4  6E39               	movwf	strtof@eexp^(0+1280),c
  5179  002EA6  EF81  F017         	goto	i2l4046
  5180  002EAA                     i2l4038:
  5181  002EAA  503F               	movf	strtof@i^(0+1280),w,c
  5182  002EAC  B4D8               	btfsc	status,2,c
  5183  002EAE  EF5B  F017         	goto	i2u398_41
  5184  002EB2  EF5D  F017         	goto	i2u398_40
  5185  002EB6                     i2u398_41:
  5186  002EB6  EF6B  F017         	goto	i2l4042
  5187  002EBA                     i2u398_40:
  5188  002EBA  C539  F501         	movff	strtof@eexp,___wmul@multiplier
  5189  002EBE  C53A  F502         	movff	strtof@eexp+1,___wmul@multiplier+1
  5190  002EC2  0E00               	movlw	0
  5191  002EC4  6E04               	movwf	(___wmul@multiplicand+1)^(0+1280),c
  5192  002EC6  0E0A               	movlw	10
  5193  002EC8  6E03               	movwf	___wmul@multiplicand^(0+1280),c
  5194  002ECA  EC88  F029         	call	___wmul	;wreg free
  5195  002ECE  C501  F539         	movff	?___wmul,strtof@eexp
  5196  002ED2  C502  F53A         	movff	?___wmul+1,strtof@eexp+1
  5197  002ED6                     i2l4042:
  5198  002ED6  0ED0               	movlw	208
  5199  002ED8  6E1E               	movwf	??_strtof^(0+1280),c
  5200  002EDA  0EFF               	movlw	255
  5201  002EDC  6E1F               	movwf	(??_strtof+1)^(0+1280),c
  5202  002EDE  503F               	movf	strtof@i^(0+1280),w,c
  5203  002EE0  241A               	addwf	strtof@s^(0+1280),w,c
  5204  002EE2  6ED9               	movwf	fsr2l,c
  5205  002EE4  0E00               	movlw	0
  5206  002EE6  201B               	addwfc	(strtof@s+1)^(0+1280),w,c
  5207  002EE8  6EDA               	movwf	fsr2h,c
  5208  002EEA  50DF               	movf	indf2,w,c
  5209  002EEC  6E20               	movwf	(??_strtof+2)^(0+1280),c
  5210  002EEE  6A21               	clrf	(??_strtof+3)^(0+1280),c
  5211  002EF0  501E               	movf	??_strtof^(0+1280),w,c
  5212  002EF2  2620               	addwf	(??_strtof+2)^(0+1280),f,c
  5213  002EF4  501F               	movf	(??_strtof+1)^(0+1280),w,c
  5214  002EF6  2221               	addwfc	(??_strtof+3)^(0+1280),f,c
  5215  002EF8  5020               	movf	(??_strtof+2)^(0+1280),w,c
  5216  002EFA  2639               	addwf	strtof@eexp^(0+1280),f,c
  5217  002EFC  5021               	movf	(??_strtof+3)^(0+1280),w,c
  5218  002EFE  223A               	addwfc	(strtof@eexp+1)^(0+1280),f,c
  5219  002F00  2A3F               	incf	strtof@i^(0+1280),f,c
  5220  002F02                     i2l4046:
  5221  002F02  0ED0               	movlw	208
  5222  002F04  6E1E               	movwf	??_strtof^(0+1280),c
  5223  002F06  0EFF               	movlw	255
  5224  002F08  6E1F               	movwf	(??_strtof+1)^(0+1280),c
  5225  002F0A  503F               	movf	strtof@i^(0+1280),w,c
  5226  002F0C  241A               	addwf	strtof@s^(0+1280),w,c
  5227  002F0E  6ED9               	movwf	fsr2l,c
  5228  002F10  0E00               	movlw	0
  5229  002F12  201B               	addwfc	(strtof@s+1)^(0+1280),w,c
  5230  002F14  6EDA               	movwf	fsr2h,c
  5231  002F16  50DF               	movf	indf2,w,c
  5232  002F18  6E20               	movwf	(??_strtof+2)^(0+1280),c
  5233  002F1A  6A21               	clrf	(??_strtof+3)^(0+1280),c
  5234  002F1C  501E               	movf	??_strtof^(0+1280),w,c
  5235  002F1E  2620               	addwf	(??_strtof+2)^(0+1280),f,c
  5236  002F20  501F               	movf	(??_strtof+1)^(0+1280),w,c
  5237  002F22  2221               	addwfc	(??_strtof+3)^(0+1280),f,c
  5238  002F24  5021               	movf	(??_strtof+3)^(0+1280),w,c
  5239  002F26  E10A               	bnz	i2u399_40
  5240  002F28  0E0A               	movlw	10
  5241  002F2A  5C20               	subwf	(??_strtof+2)^(0+1280),w,c
  5242  002F2C  A0D8               	btfss	status,0,c
  5243  002F2E  EF9B  F017         	goto	i2u399_41
  5244  002F32  EF9E  F017         	goto	i2u399_40
  5245  002F36                     i2u399_41:
  5246  002F36  0E01               	movlw	1
  5247  002F38  EF9F  F017         	goto	i2u400_40
  5248  002F3C                     i2u399_40:
  5249  002F3C  0E00               	movlw	0
  5250  002F3E                     i2u400_40:
  5251  002F3E  6E2A               	movwf	_strtof$1956^(0+1280),c
  5252  002F40  6A2B               	clrf	(_strtof$1956+1)^(0+1280),c
  5253  002F42  502A               	movf	_strtof$1956^(0+1280),w,c
  5254  002F44  102B               	iorwf	(_strtof$1956+1)^(0+1280),w,c
  5255  002F46  A4D8               	btfss	status,2,c
  5256  002F48  EFA8  F017         	goto	i2u401_41
  5257  002F4C  EFAA  F017         	goto	i2u401_40
  5258  002F50                     i2u401_41:
  5259  002F50  EF55  F017         	goto	i2l4038
  5260  002F54                     i2u401_40:
  5261  002F54  503F               	movf	strtof@i^(0+1280),w,c
  5262  002F56  A4D8               	btfss	status,2,c
  5263  002F58  EFB0  F017         	goto	i2u402_41
  5264  002F5C  EFB2  F017         	goto	i2u402_40
  5265  002F60                     i2u402_41:
  5266  002F60  EFBC  F017         	goto	i2l1513
  5267  002F64                     i2u402_40:
  5268  002F64  0E00               	movlw	0
  5269  002F66  6E1A               	movwf	?_strtof^(0+1280),c
  5270  002F68  0E00               	movlw	0
  5271  002F6A  6E1B               	movwf	(?_strtof+1)^(0+1280),c
  5272  002F6C  0E00               	movlw	0
  5273  002F6E  6E1C               	movwf	(?_strtof+2)^(0+1280),c
  5274  002F70  0E00               	movlw	0
  5275  002F72  6E1D               	movwf	(?_strtof+3)^(0+1280),c
  5276  002F74  EFFE  F01B         	goto	i2l1479
  5277  002F78                     i2l1513:
  5278  002F78  A636               	btfss	strtof@flags^(0+1280),3,c
  5279  002F7A  EFC1  F017         	goto	i2u403_41
  5280  002F7E  EFC3  F017         	goto	i2u403_40
  5281  002F82                     i2u403_41:
  5282  002F82  EFC7  F017         	goto	i2l4060
  5283  002F86                     i2u403_40:
  5284  002F86  6C39               	negf	strtof@eexp^(0+1280),c
  5285  002F88  1E3A               	comf	(strtof@eexp+1)^(0+1280),f,c
  5286  002F8A  B0D8               	btfsc	status,0,c
  5287  002F8C  2A3A               	incf	(strtof@eexp+1)^(0+1280),f,c
  5288  002F8E                     i2l4060:
  5289  002F8E  5039               	movf	strtof@eexp^(0+1280),w,c
  5290  002F90  2637               	addwf	strtof@expon^(0+1280),f,c
  5291  002F92  503A               	movf	(strtof@eexp+1)^(0+1280),w,c
  5292  002F94  2238               	addwfc	(strtof@expon+1)^(0+1280),f,c
  5293  002F96  501C               	movf	strtof@res^(0+1280),w,c
  5294  002F98  101D               	iorwf	(strtof@res+1)^(0+1280),w,c
  5295  002F9A  B4D8               	btfsc	status,2,c
  5296  002F9C  EFD2  F017         	goto	i2u404_41
  5297  002FA0  EFD4  F017         	goto	i2u404_40
  5298  002FA4                     i2u404_41:
  5299  002FA4  EFE6  F017         	goto	i2l4066
  5300  002FA8                     i2u404_40:
  5301  002FA8  503F               	movf	strtof@i^(0+1280),w,c
  5302  002FAA  241A               	addwf	strtof@s^(0+1280),w,c
  5303  002FAC  6E1E               	movwf	??_strtof^(0+1280),c
  5304  002FAE  0E00               	movlw	0
  5305  002FB0  201B               	addwfc	(strtof@s+1)^(0+1280),w,c
  5306  002FB2  6E1F               	movwf	(??_strtof+1)^(0+1280),c
  5307  002FB4  0061  F470  F4D9   	movff	strtof@res,fsr2l
  5308  002FBA  0061  F474  F4DA   	movff	strtof@res+1,fsr2h
  5309  002FC0  0061  F478  F4DE   	movff	??_strtof,postinc2
  5310  002FC6  0061  F47C  F4DD   	movff	??_strtof+1,postdec2
  5311  002FCC                     i2l4066:
  5312  002FCC  503B               	movf	strtof@_u^(0+1280),w,c
  5313  002FCE  103C               	iorwf	(strtof@_u+1)^(0+1280),w,c
  5314  002FD0  103D               	iorwf	(strtof@_u+2)^(0+1280),w,c
  5315  002FD2  103E               	iorwf	(strtof@_u+3)^(0+1280),w,c
  5316  002FD4  A4D8               	btfss	status,2,c
  5317  002FD6  EFEF  F017         	goto	i2u405_41
  5318  002FDA  EFF1  F017         	goto	i2u405_40
  5319  002FDE                     i2u405_41:
  5320  002FDE  EFFB  F017         	goto	i2l4072
  5321  002FE2                     i2u405_40:
  5322  002FE2  0E00               	movlw	0
  5323  002FE4  6E1A               	movwf	?_strtof^(0+1280),c
  5324  002FE6  0E00               	movlw	0
  5325  002FE8  6E1B               	movwf	(?_strtof+1)^(0+1280),c
  5326  002FEA  0E00               	movlw	0
  5327  002FEC  6E1C               	movwf	(?_strtof+2)^(0+1280),c
  5328  002FEE  0E00               	movlw	0
  5329  002FF0  6E1D               	movwf	(?_strtof+3)^(0+1280),c
  5330  002FF2  EFFE  F01B         	goto	i2l1479
  5331  002FF6                     i2l4072:
  5332  002FF6  0EFF               	movlw	255
  5333  002FF8  143B               	andwf	strtof@_u^(0+1280),w,c
  5334  002FFA  6E1E               	movwf	??_strtof^(0+1280),c
  5335  002FFC  0E00               	movlw	0
  5336  002FFE  143C               	andwf	(strtof@_u+1)^(0+1280),w,c
  5337  003000  6E1F               	movwf	(??_strtof+1)^(0+1280),c
  5338  003002  0E00               	movlw	0
  5339  003004  143D               	andwf	(strtof@_u+2)^(0+1280),w,c
  5340  003006  6E20               	movwf	(??_strtof+2)^(0+1280),c
  5341  003008  0E00               	movlw	0
  5342  00300A  143E               	andwf	(strtof@_u+3)^(0+1280),w,c
  5343  00300C  6E21               	movwf	(??_strtof+3)^(0+1280),c
  5344  00300E  5021               	movf	(??_strtof+3)^(0+1280),w,c
  5345  003010  1020               	iorwf	(??_strtof+2)^(0+1280),w,c
  5346  003012  101F               	iorwf	(??_strtof+1)^(0+1280),w,c
  5347  003014  E109               	bnz	i2u406_40
  5348  003016  0E81               	movlw	129
  5349  003018  5C1E               	subwf	??_strtof^(0+1280),w,c
  5350  00301A  A0D8               	btfss	status,0,c
  5351  00301C  EF12  F018         	goto	i2u406_41
  5352  003020  EF14  F018         	goto	i2u406_40
  5353  003024                     i2u406_41:
  5354  003024  EF26  F018         	goto	i2l4078
  5355  003028                     i2u406_40:
  5356  003028  0E00               	movlw	0
  5357  00302A  263B               	addwf	strtof@_u^(0+1280),f,c
  5358  00302C  0E01               	movlw	1
  5359  00302E  223C               	addwfc	(strtof@_u+1)^(0+1280),f,c
  5360  003030  0E00               	movlw	0
  5361  003032  223D               	addwfc	(strtof@_u+2)^(0+1280),f,c
  5362  003034  0E00               	movlw	0
  5363  003036  223E               	addwfc	(strtof@_u+3)^(0+1280),f,c
  5364  003038  EF26  F018         	goto	i2l4078
  5365  00303C                     i2l4076:
  5366  00303C  90D8               	bcf	status,0,c
  5367  00303E  363B               	rlcf	strtof@_u^(0+1280),f,c
  5368  003040  363C               	rlcf	(strtof@_u+1)^(0+1280),f,c
  5369  003042  363D               	rlcf	(strtof@_u+2)^(0+1280),f,c
  5370  003044  363E               	rlcf	(strtof@_u+3)^(0+1280),f,c
  5371  003046  0637               	decf	strtof@expon^(0+1280),f,c
  5372  003048  A0D8               	btfss	status,0,c
  5373  00304A  0638               	decf	(strtof@expon+1)^(0+1280),f,c
  5374  00304C                     i2l4078:
  5375  00304C  AE3E               	btfss	(strtof@_u+3)^(0+1280),7,c
  5376  00304E  EF2B  F018         	goto	i2u407_41
  5377  003052  EF2D  F018         	goto	i2u407_40
  5378  003056                     i2u407_41:
  5379  003056  EF1E  F018         	goto	i2l4076
  5380  00305A                     i2u407_40:
  5381  00305A  AE38               	btfss	(strtof@expon+1)^(0+1280),7,c
  5382  00305C  EF39  F018         	goto	i2u408_41
  5383  003060  0E83               	movlw	131
  5384  003062  5C37               	subwf	strtof@expon^(0+1280),w,c
  5385  003064  0EFF               	movlw	255
  5386  003066  5838               	subwfb	(strtof@expon+1)^(0+1280),w,c
  5387  003068  B0D8               	btfsc	status,0,c
  5388  00306A  EF39  F018         	goto	i2u408_41
  5389  00306E  EF3B  F018         	goto	i2u408_40
  5390  003072                     i2u408_41:
  5391  003072  EF47  F018         	goto	i2l4084
  5392  003076                     i2u408_40:
  5393  003076  0EFF               	movlw	255
  5394  003078  6E38               	movwf	(strtof@expon+1)^(0+1280),c
  5395  00307A  0E81               	movlw	129
  5396  00307C  6E37               	movwf	strtof@expon^(0+1280),c
  5397  00307E  0E00               	movlw	0
  5398  003080  6E3B               	movwf	strtof@_u^(0+1280),c
  5399  003082  0E00               	movlw	0
  5400  003084  6E3C               	movwf	(strtof@_u+1)^(0+1280),c
  5401  003086  0E00               	movlw	0
  5402  003088  6E3D               	movwf	(strtof@_u+2)^(0+1280),c
  5403  00308A  0E00               	movlw	0
  5404  00308C  6E3E               	movwf	(strtof@_u+3)^(0+1280),c
  5405  00308E                     i2l4084:
  5406  00308E  0E81               	movlw	129
  5407  003090  1837               	xorwf	strtof@expon^(0+1280),w,c
  5408  003092  E108               	bnz	i2u409_40
  5409  003094  2838               	incf	(strtof@expon+1)^(0+1280),w,c
  5410  003096  B4D8               	btfsc	status,2,c
  5411  003098  EF50  F018         	goto	i2u409_41
  5412  00309C  EF52  F018         	goto	i2u409_40
  5413  0030A0                     i2u409_41:
  5414  0030A0  EF5A  F018         	goto	i2l4088
  5415  0030A4                     i2u409_40:
  5416  0030A4  90D8               	bcf	status,0,c
  5417  0030A6  363B               	rlcf	strtof@_u^(0+1280),f,c
  5418  0030A8  363C               	rlcf	(strtof@_u+1)^(0+1280),f,c
  5419  0030AA  363D               	rlcf	(strtof@_u+2)^(0+1280),f,c
  5420  0030AC  363E               	rlcf	(strtof@_u+3)^(0+1280),f,c
  5421  0030AE  0637               	decf	strtof@expon^(0+1280),f,c
  5422  0030B0  A0D8               	btfss	status,0,c
  5423  0030B2  0638               	decf	(strtof@expon+1)^(0+1280),f,c
  5424  0030B4                     i2l4088:
  5425  0030B4  BE38               	btfsc	(strtof@expon+1)^(0+1280),7,c
  5426  0030B6  EF66  F018         	goto	i2u410_41
  5427  0030BA  5038               	movf	(strtof@expon+1)^(0+1280),w,c
  5428  0030BC  E109               	bnz	i2u410_40
  5429  0030BE  0E80               	movlw	128
  5430  0030C0  5C37               	subwf	strtof@expon^(0+1280),w,c
  5431  0030C2  A0D8               	btfss	status,0,c
  5432  0030C4  EF66  F018         	goto	i2u410_41
  5433  0030C8  EF68  F018         	goto	i2u410_40
  5434  0030CC                     i2u410_41:
  5435  0030CC  EF74  F018         	goto	i2l4092
  5436  0030D0                     i2u410_40:
  5437  0030D0  0E00               	movlw	0
  5438  0030D2  6E3B               	movwf	strtof@_u^(0+1280),c
  5439  0030D4  0E00               	movlw	0
  5440  0030D6  6E3C               	movwf	(strtof@_u+1)^(0+1280),c
  5441  0030D8  0E00               	movlw	0
  5442  0030DA  6E3D               	movwf	(strtof@_u+2)^(0+1280),c
  5443  0030DC  0E00               	movlw	0
  5444  0030DE  6E3E               	movwf	(strtof@_u+3)^(0+1280),c
  5445  0030E0  0E00               	movlw	0
  5446  0030E2  6E38               	movwf	(strtof@expon+1)^(0+1280),c
  5447  0030E4  0E80               	movlw	128
  5448  0030E6  6E37               	movwf	strtof@expon^(0+1280),c
  5449  0030E8                     i2l4092:
  5450  0030E8  0E09               	movlw	9
  5451  0030EA  6E1E               	movwf	??_strtof^(0+1280),c
  5452  0030EC                     i2u411_45:
  5453  0030EC  90D8               	bcf	status,0,c
  5454  0030EE  323E               	rrcf	(strtof@_u+3)^(0+1280),f,c
  5455  0030F0  323D               	rrcf	(strtof@_u+2)^(0+1280),f,c
  5456  0030F2  323C               	rrcf	(strtof@_u+1)^(0+1280),f,c
  5457  0030F4  323B               	rrcf	strtof@_u^(0+1280),f,c
  5458  0030F6  2E1E               	decfsz	??_strtof^(0+1280),f,c
  5459  0030F8  EF76  F018         	goto	i2u411_45
  5460  0030FC  0EFF               	movlw	255
  5461  0030FE  163B               	andwf	strtof@_u^(0+1280),f,c
  5462  003100  0EFF               	movlw	255
  5463  003102  163C               	andwf	(strtof@_u+1)^(0+1280),f,c
  5464  003104  0E7F               	movlw	127
  5465  003106  163D               	andwf	(strtof@_u+2)^(0+1280),f,c
  5466  003108  0E00               	movlw	0
  5467  00310A  163E               	andwf	(strtof@_u+3)^(0+1280),f,c
  5468  00310C  0E7F               	movlw	127
  5469  00310E  2437               	addwf	strtof@expon^(0+1280),w,c
  5470  003110  6E1E               	movwf	??_strtof^(0+1280),c
  5471  003112  0E00               	movlw	0
  5472  003114  2038               	addwfc	(strtof@expon+1)^(0+1280),w,c
  5473  003116  6E1F               	movwf	(??_strtof+1)^(0+1280),c
  5474  003118  0EFF               	movlw	255
  5475  00311A  141E               	andwf	??_strtof^(0+1280),w,c
  5476  00311C  6E20               	movwf	(??_strtof+2)^(0+1280),c
  5477  00311E  6A21               	clrf	(??_strtof+3)^(0+1280),c
  5478  003120  6A22               	clrf	(??_strtof+4)^(0+1280),c
  5479  003122  6A23               	clrf	(??_strtof+5)^(0+1280),c
  5480  003124  0E17               	movlw	23
  5481  003126                     i2u412_45:
  5482  003126  90D8               	bcf	status,0,c
  5483  003128  3620               	rlcf	(??_strtof+2)^(0+1280),f,c
  5484  00312A  3621               	rlcf	(??_strtof+3)^(0+1280),f,c
  5485  00312C  3622               	rlcf	(??_strtof+4)^(0+1280),f,c
  5486  00312E  3623               	rlcf	(??_strtof+5)^(0+1280),f,c
  5487  003130  2EE8               	decfsz	wreg,f,c
  5488  003132  EF93  F018         	goto	i2u412_45
  5489  003136  5020               	movf	(??_strtof+2)^(0+1280),w,c
  5490  003138  123B               	iorwf	strtof@_u^(0+1280),f,c
  5491  00313A  5021               	movf	(??_strtof+3)^(0+1280),w,c
  5492  00313C  123C               	iorwf	(strtof@_u+1)^(0+1280),f,c
  5493  00313E  5022               	movf	(??_strtof+4)^(0+1280),w,c
  5494  003140  123D               	iorwf	(strtof@_u+2)^(0+1280),f,c
  5495  003142  5023               	movf	(??_strtof+5)^(0+1280),w,c
  5496  003144  123E               	iorwf	(strtof@_u+3)^(0+1280),f,c
  5497  003146  EFDD  F01B         	goto	i2l1433
  5498  00314A                     i2l1524:
  5499  00314A  B836               	btfsc	strtof@flags^(0+1280),4,c
  5500  00314C  EFAA  F018         	goto	i2u413_41
  5501  003150  EFAC  F018         	goto	i2u413_40
  5502  003154                     i2u413_41:
  5503  003154  EFC0  F018         	goto	i2l4102
  5504  003158                     i2u413_40:
  5505  003158  0061  F468  F4D9   	movff	strtof@s,fsr2l
  5506  00315E  0061  F46C  F4DA   	movff	strtof@s+1,fsr2h
  5507  003164  0E2E               	movlw	46
  5508  003166  18DE               	xorwf	postinc2,w,c
  5509  003168  A4D8               	btfss	status,2,c
  5510  00316A  EFB9  F018         	goto	i2u414_41
  5511  00316E  EFBB  F018         	goto	i2u414_40
  5512  003172                     i2u414_41:
  5513  003172  EFC0  F018         	goto	i2l4102
  5514  003176                     i2u414_40:
  5515  003176  8836               	bsf	strtof@flags^(0+1280),4,c
  5516  003178  4A1A               	infsnz	strtof@s^(0+1280),f,c
  5517  00317A  2A1B               	incf	(strtof@s+1)^(0+1280),f,c
  5518  00317C  EFA5  F018         	goto	i2l1524
  5519  003180                     i2l4102:
  5520  003180  0ED0               	movlw	208
  5521  003182  6E1E               	movwf	??_strtof^(0+1280),c
  5522  003184  0EFF               	movlw	255
  5523  003186  6E1F               	movwf	(??_strtof+1)^(0+1280),c
  5524  003188  0061  F468  F4D9   	movff	strtof@s,fsr2l
  5525  00318E  0061  F46C  F4DA   	movff	strtof@s+1,fsr2h
  5526  003194  50DF               	movf	indf2,w,c
  5527  003196  6E20               	movwf	(??_strtof+2)^(0+1280),c
  5528  003198  6A21               	clrf	(??_strtof+3)^(0+1280),c
  5529  00319A  501E               	movf	??_strtof^(0+1280),w,c
  5530  00319C  2620               	addwf	(??_strtof+2)^(0+1280),f,c
  5531  00319E  501F               	movf	(??_strtof+1)^(0+1280),w,c
  5532  0031A0  2221               	addwfc	(??_strtof+3)^(0+1280),f,c
  5533  0031A2  5021               	movf	(??_strtof+3)^(0+1280),w,c
  5534  0031A4  E10A               	bnz	i2u415_40
  5535  0031A6  0E0A               	movlw	10
  5536  0031A8  5C20               	subwf	(??_strtof+2)^(0+1280),w,c
  5537  0031AA  A0D8               	btfss	status,0,c
  5538  0031AC  EFDA  F018         	goto	i2u415_41
  5539  0031B0  EFDD  F018         	goto	i2u415_40
  5540  0031B4                     i2u415_41:
  5541  0031B4  0E01               	movlw	1
  5542  0031B6  EFDE  F018         	goto	i2u416_40
  5543  0031BA                     i2u415_40:
  5544  0031BA  0E00               	movlw	0
  5545  0031BC                     i2u416_40:
  5546  0031BC  6E2C               	movwf	_strtof$1957^(0+1280),c
  5547  0031BE  6A2D               	clrf	(_strtof$1957+1)^(0+1280),c
  5548  0031C0  502C               	movf	_strtof$1957^(0+1280),w,c
  5549  0031C2  102D               	iorwf	(_strtof$1957+1)^(0+1280),w,c
  5550  0031C4  A4D8               	btfss	status,2,c
  5551  0031C6  EFE7  F018         	goto	i2u417_41
  5552  0031CA  EFE9  F018         	goto	i2u417_40
  5553  0031CE                     i2u417_41:
  5554  0031CE  EFEB  F018         	goto	i2l4110
  5555  0031D2                     i2u417_40:
  5556  0031D2  EF3B  F019         	goto	i2l4124
  5557  0031D6                     i2l4110:
  5558  0031D6  8236               	bsf	strtof@flags^(0+1280),1,c
  5559  0031D8  0E09               	movlw	9
  5560  0031DA  1839               	xorwf	strtof@eexp^(0+1280),w,c
  5561  0031DC  103A               	iorwf	(strtof@eexp+1)^(0+1280),w,c
  5562  0031DE  B4D8               	btfsc	status,2,c
  5563  0031E0  EFF4  F018         	goto	i2u418_41
  5564  0031E4  EFF6  F018         	goto	i2u418_40
  5565  0031E8                     i2u418_41:
  5566  0031E8  EF2E  F019         	goto	i2l1533
  5567  0031EC                     i2u418_40:
  5568  0031EC  A836               	btfss	strtof@flags^(0+1280),4,c
  5569  0031EE  EFFB  F018         	goto	i2u419_41
  5570  0031F2  EFFD  F018         	goto	i2u419_40
  5571  0031F6                     i2u419_41:
  5572  0031F6  EF00  F019         	goto	i2l1534
  5573  0031FA                     i2u419_40:
  5574  0031FA  0637               	decf	strtof@expon^(0+1280),f,c
  5575  0031FC  A0D8               	btfss	status,0,c
  5576  0031FE  0638               	decf	(strtof@expon+1)^(0+1280),f,c
  5577  003200                     i2l1534:
  5578  003200  4A39               	infsnz	strtof@eexp^(0+1280),f,c
  5579  003202  2A3A               	incf	(strtof@eexp+1)^(0+1280),f,c
  5580  003204  C53B  F501         	movff	strtof@_u,___lmul@multiplier
  5581  003208  C53C  F502         	movff	strtof@_u+1,___lmul@multiplier+1
  5582  00320C  C53D  F503         	movff	strtof@_u+2,___lmul@multiplier+2
  5583  003210  C53E  F504         	movff	strtof@_u+3,___lmul@multiplier+3
  5584  003214  0E0A               	movlw	10
  5585  003216  6E05               	movwf	___lmul@multiplicand^(0+1280),c
  5586  003218  0E00               	movlw	0
  5587  00321A  6E06               	movwf	(___lmul@multiplicand+1)^(0+1280),c
  5588  00321C  0E00               	movlw	0
  5589  00321E  6E07               	movwf	(___lmul@multiplicand+2)^(0+1280),c
  5590  003220  0E00               	movlw	0
  5591  003222  6E08               	movwf	(___lmul@multiplicand+3)^(0+1280),c
  5592  003224  ECBB  F027         	call	___lmul	;wreg free
  5593  003228  C501  F53B         	movff	?___lmul,strtof@_u
  5594  00322C  C502  F53C         	movff	?___lmul+1,strtof@_u+1
  5595  003230  C503  F53D         	movff	?___lmul+2,strtof@_u+2
  5596  003234  C504  F53E         	movff	?___lmul+3,strtof@_u+3
  5597  003238  0061  F468  F4D9   	movff	strtof@s,fsr2l
  5598  00323E  0061  F46C  F4DA   	movff	strtof@s+1,fsr2h
  5599  003244  50DF               	movf	indf2,w,c
  5600  003246  6E1E               	movwf	??_strtof^(0+1280),c
  5601  003248  0ED0               	movlw	208
  5602  00324A  261E               	addwf	??_strtof^(0+1280),f,c
  5603  00324C  501E               	movf	??_strtof^(0+1280),w,c
  5604  00324E  263B               	addwf	strtof@_u^(0+1280),f,c
  5605  003250  0E00               	movlw	0
  5606  003252  223C               	addwfc	(strtof@_u+1)^(0+1280),f,c
  5607  003254  223D               	addwfc	(strtof@_u+2)^(0+1280),f,c
  5608  003256  223E               	addwfc	(strtof@_u+3)^(0+1280),f,c
  5609  003258  EF37  F019         	goto	i2l1535
  5610  00325C                     i2l1533:
  5611  00325C  B836               	btfsc	strtof@flags^(0+1280),4,c
  5612  00325E  EF33  F019         	goto	i2u420_41
  5613  003262  EF35  F019         	goto	i2u420_40
  5614  003266                     i2u420_41:
  5615  003266  EF37  F019         	goto	i2l1535
  5616  00326A                     i2u420_40:
  5617  00326A  4A37               	infsnz	strtof@expon^(0+1280),f,c
  5618  00326C  2A38               	incf	(strtof@expon+1)^(0+1280),f,c
  5619  00326E                     i2l1535:
  5620  00326E  4A1A               	infsnz	strtof@s^(0+1280),f,c
  5621  003270  2A1B               	incf	(strtof@s+1)^(0+1280),f,c
  5622  003272  EFA5  F018         	goto	i2l1524
  5623  003276                     i2l4124:
  5624  003276  0E00               	movlw	0
  5625  003278  6E3A               	movwf	(strtof@eexp+1)^(0+1280),c
  5626  00327A  0E00               	movlw	0
  5627  00327C  6E39               	movwf	strtof@eexp^(0+1280),c
  5628  00327E  0061  F468  F4D9   	movff	strtof@s,fsr2l
  5629  003284  0061  F46C  F4DA   	movff	strtof@s+1,fsr2h
  5630  00328A  0E65               	movlw	101
  5631  00328C  18DE               	xorwf	postinc2,w,c
  5632  00328E  B4D8               	btfsc	status,2,c
  5633  003290  EF4C  F019         	goto	i2u421_41
  5634  003294  EF4E  F019         	goto	i2u421_40
  5635  003298                     i2u421_41:
  5636  003298  EF5D  F019         	goto	i2l4130
  5637  00329C                     i2u421_40:
  5638  00329C  0061  F468  F4D9   	movff	strtof@s,fsr2l
  5639  0032A2  0061  F46C  F4DA   	movff	strtof@s+1,fsr2h
  5640  0032A8  0E45               	movlw	69
  5641  0032AA  18DE               	xorwf	postinc2,w,c
  5642  0032AC  A4D8               	btfss	status,2,c
  5643  0032AE  EF5B  F019         	goto	i2u422_41
  5644  0032B2  EF5D  F019         	goto	i2u422_40
  5645  0032B6                     i2u422_41:
  5646  0032B6  EF5E  F01A         	goto	i2l4174
  5647  0032BA                     i2u422_40:
  5648  0032BA                     i2l4130:
  5649  0032BA  4A1A               	infsnz	strtof@s^(0+1280),f,c
  5650  0032BC  2A1B               	incf	(strtof@s+1)^(0+1280),f,c
  5651  0032BE  0061  F468  F4D9   	movff	strtof@s,fsr2l
  5652  0032C4  0061  F46C  F4DA   	movff	strtof@s+1,fsr2h
  5653  0032CA  0E2D               	movlw	45
  5654  0032CC  18DE               	xorwf	postinc2,w,c
  5655  0032CE  A4D8               	btfss	status,2,c
  5656  0032D0  EF6C  F019         	goto	i2u423_41
  5657  0032D4  EF6E  F019         	goto	i2u423_40
  5658  0032D8                     i2u423_41:
  5659  0032D8  EF73  F019         	goto	i2l4134
  5660  0032DC                     i2u423_40:
  5661  0032DC  8636               	bsf	strtof@flags^(0+1280),3,c
  5662  0032DE  4A1A               	infsnz	strtof@s^(0+1280),f,c
  5663  0032E0  2A1B               	incf	(strtof@s+1)^(0+1280),f,c
  5664  0032E2  EF84  F019         	goto	i2l4140
  5665  0032E6                     i2l4134:
  5666  0032E6  0061  F468  F4D9   	movff	strtof@s,fsr2l
  5667  0032EC  0061  F46C  F4DA   	movff	strtof@s+1,fsr2h
  5668  0032F2  0E2B               	movlw	43
  5669  0032F4  18DE               	xorwf	postinc2,w,c
  5670  0032F6  A4D8               	btfss	status,2,c
  5671  0032F8  EF80  F019         	goto	i2u424_41
  5672  0032FC  EF82  F019         	goto	i2u424_40
  5673  003300                     i2u424_41:
  5674  003300  EF84  F019         	goto	i2l4140
  5675  003304                     i2u424_40:
  5676  003304                     i2l4136:
  5677  003304  4A1A               	infsnz	strtof@s^(0+1280),f,c
  5678  003306  2A1B               	incf	(strtof@s+1)^(0+1280),f,c
  5679  003308                     i2l4140:
  5680  003308  0061  F468  F4D9   	movff	strtof@s,fsr2l
  5681  00330E  0061  F46C  F4DA   	movff	strtof@s+1,fsr2h
  5682  003314  0E30               	movlw	48
  5683  003316  18DE               	xorwf	postinc2,w,c
  5684  003318  B4D8               	btfsc	status,2,c
  5685  00331A  EF91  F019         	goto	i2u425_41
  5686  00331E  EF93  F019         	goto	i2u425_40
  5687  003322                     i2u425_41:
  5688  003322  EF82  F019         	goto	i2l4136
  5689  003326                     i2u425_40:
  5690  003326  0ED0               	movlw	208
  5691  003328  6E1E               	movwf	??_strtof^(0+1280),c
  5692  00332A  0EFF               	movlw	255
  5693  00332C  6E1F               	movwf	(??_strtof+1)^(0+1280),c
  5694  00332E  0061  F468  F4D9   	movff	strtof@s,fsr2l
  5695  003334  0061  F46C  F4DA   	movff	strtof@s+1,fsr2h
  5696  00333A  50DF               	movf	indf2,w,c
  5697  00333C  6E20               	movwf	(??_strtof+2)^(0+1280),c
  5698  00333E  6A21               	clrf	(??_strtof+3)^(0+1280),c
  5699  003340  501E               	movf	??_strtof^(0+1280),w,c
  5700  003342  2620               	addwf	(??_strtof+2)^(0+1280),f,c
  5701  003344  501F               	movf	(??_strtof+1)^(0+1280),w,c
  5702  003346  2221               	addwfc	(??_strtof+3)^(0+1280),f,c
  5703  003348  5021               	movf	(??_strtof+3)^(0+1280),w,c
  5704  00334A  E10A               	bnz	i2u426_40
  5705  00334C  0E0A               	movlw	10
  5706  00334E  5C20               	subwf	(??_strtof+2)^(0+1280),w,c
  5707  003350  A0D8               	btfss	status,0,c
  5708  003352  EFAD  F019         	goto	i2u426_41
  5709  003356  EFB0  F019         	goto	i2u426_40
  5710  00335A                     i2u426_41:
  5711  00335A  0E01               	movlw	1
  5712  00335C  EFB1  F019         	goto	i2u427_40
  5713  003360                     i2u426_40:
  5714  003360  0E00               	movlw	0
  5715  003362                     i2u427_40:
  5716  003362  6E2E               	movwf	_strtof$1958^(0+1280),c
  5717  003364  6A2F               	clrf	(_strtof$1958+1)^(0+1280),c
  5718  003366  502E               	movf	_strtof$1958^(0+1280),w,c
  5719  003368  102F               	iorwf	(_strtof$1958+1)^(0+1280),w,c
  5720  00336A  B4D8               	btfsc	status,2,c
  5721  00336C  EFBA  F019         	goto	i2u428_41
  5722  003370  EFBC  F019         	goto	i2u428_40
  5723  003374                     i2u428_41:
  5724  003374  EF53  F01A         	goto	i2l4170
  5725  003378                     i2u428_40:
  5726  003378  0061  F468  F4D9   	movff	strtof@s,fsr2l
  5727  00337E  0061  F46C  F4DA   	movff	strtof@s+1,fsr2h
  5728  003384  50DF               	movf	indf2,w,c
  5729  003386  6E1E               	movwf	??_strtof^(0+1280),c
  5730  003388  0ED0               	movlw	208
  5731  00338A  261E               	addwf	??_strtof^(0+1280),f,c
  5732  00338C  501E               	movf	??_strtof^(0+1280),w,c
  5733  00338E  6E39               	movwf	strtof@eexp^(0+1280),c
  5734  003390  6A3A               	clrf	(strtof@eexp+1)^(0+1280),c
  5735  003392  4A1A               	infsnz	strtof@s^(0+1280),f,c
  5736  003394  2A1B               	incf	(strtof@s+1)^(0+1280),f,c
  5737  003396  0ED0               	movlw	208
  5738  003398  6E1E               	movwf	??_strtof^(0+1280),c
  5739  00339A  0EFF               	movlw	255
  5740  00339C  6E1F               	movwf	(??_strtof+1)^(0+1280),c
  5741  00339E  0061  F468  F4D9   	movff	strtof@s,fsr2l
  5742  0033A4  0061  F46C  F4DA   	movff	strtof@s+1,fsr2h
  5743  0033AA  50DF               	movf	indf2,w,c
  5744  0033AC  6E20               	movwf	(??_strtof+2)^(0+1280),c
  5745  0033AE  6A21               	clrf	(??_strtof+3)^(0+1280),c
  5746  0033B0  501E               	movf	??_strtof^(0+1280),w,c
  5747  0033B2  2620               	addwf	(??_strtof+2)^(0+1280),f,c
  5748  0033B4  501F               	movf	(??_strtof+1)^(0+1280),w,c
  5749  0033B6  2221               	addwfc	(??_strtof+3)^(0+1280),f,c
  5750  0033B8  5021               	movf	(??_strtof+3)^(0+1280),w,c
  5751  0033BA  E10A               	bnz	i2u429_40
  5752  0033BC  0E0A               	movlw	10
  5753  0033BE  5C20               	subwf	(??_strtof+2)^(0+1280),w,c
  5754  0033C0  A0D8               	btfss	status,0,c
  5755  0033C2  EFE5  F019         	goto	i2u429_41
  5756  0033C6  EFE8  F019         	goto	i2u429_40
  5757  0033CA                     i2u429_41:
  5758  0033CA  0E01               	movlw	1
  5759  0033CC  EFE9  F019         	goto	i2u430_40
  5760  0033D0                     i2u429_40:
  5761  0033D0  0E00               	movlw	0
  5762  0033D2                     i2u430_40:
  5763  0033D2  6E30               	movwf	_strtof$1959^(0+1280),c
  5764  0033D4  6A31               	clrf	(_strtof$1959+1)^(0+1280),c
  5765  0033D6  5030               	movf	_strtof$1959^(0+1280),w,c
  5766  0033D8  1031               	iorwf	(_strtof$1959+1)^(0+1280),w,c
  5767  0033DA  B4D8               	btfsc	status,2,c
  5768  0033DC  EFF2  F019         	goto	i2u431_41
  5769  0033E0  EFF4  F019         	goto	i2u431_40
  5770  0033E4                     i2u431_41:
  5771  0033E4  EF53  F01A         	goto	i2l4170
  5772  0033E8                     i2u431_40:
  5773  0033E8  0061  F468  F4D9   	movff	strtof@s,fsr2l
  5774  0033EE  0061  F46C  F4DA   	movff	strtof@s+1,fsr2h
  5775  0033F4  50DF               	movf	indf2,w,c
  5776  0033F6  6E1E               	movwf	??_strtof^(0+1280),c
  5777  0033F8  0ED0               	movlw	208
  5778  0033FA  261E               	addwf	??_strtof^(0+1280),f,c
  5779  0033FC  C539  F501         	movff	strtof@eexp,___wmul@multiplier
  5780  003400  C53A  F502         	movff	strtof@eexp+1,___wmul@multiplier+1
  5781  003404  0E00               	movlw	0
  5782  003406  6E04               	movwf	(___wmul@multiplicand+1)^(0+1280),c
  5783  003408  0E0A               	movlw	10
  5784  00340A  6E03               	movwf	___wmul@multiplicand^(0+1280),c
  5785  00340C  EC88  F029         	call	___wmul	;wreg free
  5786  003410  501E               	movf	??_strtof^(0+1280),w,c
  5787  003412  2401               	addwf	?___wmul^(0+1280),w,c
  5788  003414  6E39               	movwf	strtof@eexp^(0+1280),c
  5789  003416  0E00               	movlw	0
  5790  003418  2002               	addwfc	(?___wmul+1)^(0+1280),w,c
  5791  00341A  6E3A               	movwf	(strtof@eexp+1)^(0+1280),c
  5792  00341C  4A1A               	infsnz	strtof@s^(0+1280),f,c
  5793  00341E  2A1B               	incf	(strtof@s+1)^(0+1280),f,c
  5794  003420  0ED0               	movlw	208
  5795  003422  6E1E               	movwf	??_strtof^(0+1280),c
  5796  003424  0EFF               	movlw	255
  5797  003426  6E1F               	movwf	(??_strtof+1)^(0+1280),c
  5798  003428  0061  F468  F4D9   	movff	strtof@s,fsr2l
  5799  00342E  0061  F46C  F4DA   	movff	strtof@s+1,fsr2h
  5800  003434  50DF               	movf	indf2,w,c
  5801  003436  6E20               	movwf	(??_strtof+2)^(0+1280),c
  5802  003438  6A21               	clrf	(??_strtof+3)^(0+1280),c
  5803  00343A  501E               	movf	??_strtof^(0+1280),w,c
  5804  00343C  2620               	addwf	(??_strtof+2)^(0+1280),f,c
  5805  00343E  501F               	movf	(??_strtof+1)^(0+1280),w,c
  5806  003440  2221               	addwfc	(??_strtof+3)^(0+1280),f,c
  5807  003442  5021               	movf	(??_strtof+3)^(0+1280),w,c
  5808  003444  E10A               	bnz	i2u432_40
  5809  003446  0E0A               	movlw	10
  5810  003448  5C20               	subwf	(??_strtof+2)^(0+1280),w,c
  5811  00344A  A0D8               	btfss	status,0,c
  5812  00344C  EF2A  F01A         	goto	i2u432_41
  5813  003450  EF2D  F01A         	goto	i2u432_40
  5814  003454                     i2u432_41:
  5815  003454  0E01               	movlw	1
  5816  003456  EF2E  F01A         	goto	i2u433_40
  5817  00345A                     i2u432_40:
  5818  00345A  0E00               	movlw	0
  5819  00345C                     i2u433_40:
  5820  00345C  6E32               	movwf	_strtof$1960^(0+1280),c
  5821  00345E  6A33               	clrf	(_strtof$1960+1)^(0+1280),c
  5822  003460  5032               	movf	_strtof$1960^(0+1280),w,c
  5823  003462  1033               	iorwf	(_strtof$1960+1)^(0+1280),w,c
  5824  003464  B4D8               	btfsc	status,2,c
  5825  003466  EF37  F01A         	goto	i2u434_41
  5826  00346A  EF39  F01A         	goto	i2u434_40
  5827  00346E                     i2u434_41:
  5828  00346E  EF53  F01A         	goto	i2l4170
  5829  003472                     i2u434_40:
  5830  003472  0061  F468  F4D9   	movff	strtof@s,fsr2l
  5831  003478  0061  F46C  F4DA   	movff	strtof@s+1,fsr2h
  5832  00347E  50DF               	movf	indf2,w,c
  5833  003480  6E1E               	movwf	??_strtof^(0+1280),c
  5834  003482  0ED0               	movlw	208
  5835  003484  261E               	addwf	??_strtof^(0+1280),f,c
  5836  003486  C539  F501         	movff	strtof@eexp,___wmul@multiplier
  5837  00348A  C53A  F502         	movff	strtof@eexp+1,___wmul@multiplier+1
  5838  00348E  0E00               	movlw	0
  5839  003490  6E04               	movwf	(___wmul@multiplicand+1)^(0+1280),c
  5840  003492  0E0A               	movlw	10
  5841  003494  6E03               	movwf	___wmul@multiplicand^(0+1280),c
  5842  003496  EC88  F029         	call	___wmul	;wreg free
  5843  00349A  501E               	movf	??_strtof^(0+1280),w,c
  5844  00349C  2401               	addwf	?___wmul^(0+1280),w,c
  5845  00349E  6E39               	movwf	strtof@eexp^(0+1280),c
  5846  0034A0  0E00               	movlw	0
  5847  0034A2  2002               	addwfc	(?___wmul+1)^(0+1280),w,c
  5848  0034A4  6E3A               	movwf	(strtof@eexp+1)^(0+1280),c
  5849  0034A6                     i2l4170:
  5850  0034A6  A636               	btfss	strtof@flags^(0+1280),3,c
  5851  0034A8  EF58  F01A         	goto	i2u435_41
  5852  0034AC  EF5A  F01A         	goto	i2u435_40
  5853  0034B0                     i2u435_41:
  5854  0034B0  EF5E  F01A         	goto	i2l4174
  5855  0034B4                     i2u435_40:
  5856  0034B4  6C39               	negf	strtof@eexp^(0+1280),c
  5857  0034B6  1E3A               	comf	(strtof@eexp+1)^(0+1280),f,c
  5858  0034B8  B0D8               	btfsc	status,0,c
  5859  0034BA  2A3A               	incf	(strtof@eexp+1)^(0+1280),f,c
  5860  0034BC                     i2l4174:
  5861  0034BC  5039               	movf	strtof@eexp^(0+1280),w,c
  5862  0034BE  2637               	addwf	strtof@expon^(0+1280),f,c
  5863  0034C0  503A               	movf	(strtof@eexp+1)^(0+1280),w,c
  5864  0034C2  2238               	addwfc	(strtof@expon+1)^(0+1280),f,c
  5865  0034C4  501C               	movf	strtof@res^(0+1280),w,c
  5866  0034C6  101D               	iorwf	(strtof@res+1)^(0+1280),w,c
  5867  0034C8  B4D8               	btfsc	status,2,c
  5868  0034CA  EF69  F01A         	goto	i2u436_41
  5869  0034CE  EF6B  F01A         	goto	i2u436_40
  5870  0034D2                     i2u436_41:
  5871  0034D2  EF7E  F01A         	goto	i2l4182
  5872  0034D6                     i2u436_40:
  5873  0034D6  A236               	btfss	strtof@flags^(0+1280),1,c
  5874  0034D8  EF70  F01A         	goto	i2u437_41
  5875  0034DC  EF72  F01A         	goto	i2u437_40
  5876  0034E0                     i2u437_41:
  5877  0034E0  EF7E  F01A         	goto	i2l4182
  5878  0034E4                     i2u437_40:
  5879  0034E4  0061  F470  F4D9   	movff	strtof@res,fsr2l
  5880  0034EA  0061  F474  F4DA   	movff	strtof@res+1,fsr2h
  5881  0034F0  0061  F468  F4DE   	movff	strtof@s,postinc2
  5882  0034F6  0061  F46C  F4DD   	movff	strtof@s+1,postdec2
  5883  0034FC                     i2l4182:
  5884  0034FC  C53B  F501         	movff	strtof@_u,___xxtofl@val
  5885  003500  C53C  F502         	movff	strtof@_u+1,___xxtofl@val+1
  5886  003504  C53D  F503         	movff	strtof@_u+2,___xxtofl@val+2
  5887  003508  C53E  F504         	movff	strtof@_u+3,___xxtofl@val+3
  5888  00350C  0E00               	movlw	0
  5889  00350E  ECE3  F021         	call	___xxtofl
  5890  003512  C501  F53B         	movff	?___xxtofl,strtof@_u
  5891  003516  C502  F53C         	movff	?___xxtofl+1,strtof@_u+1
  5892  00351A  C503  F53D         	movff	?___xxtofl+2,strtof@_u+2
  5893  00351E  C504  F53E         	movff	?___xxtofl+3,strtof@_u+3
  5894  003522  C53B  F501         	movff	strtof@_u,___fleq@ff1
  5895  003526  C53C  F502         	movff	strtof@_u+1,___fleq@ff1+1
  5896  00352A  C53D  F503         	movff	strtof@_u+2,___fleq@ff1+2
  5897  00352E  C53E  F504         	movff	strtof@_u+3,___fleq@ff1+3
  5898  003532  0E00               	movlw	0
  5899  003534  6E05               	movwf	___fleq@ff2^(0+1280),c
  5900  003536  0E00               	movlw	0
  5901  003538  6E06               	movwf	(___fleq@ff2+1)^(0+1280),c
  5902  00353A  0E00               	movlw	0
  5903  00353C  6E07               	movwf	(___fleq@ff2+2)^(0+1280),c
  5904  00353E  0E00               	movlw	0
  5905  003540  6E08               	movwf	(___fleq@ff2+3)^(0+1280),c
  5906  003542  EC5E  F026         	call	___fleq	;wreg free
  5907  003546  A0D8               	btfss	status,0,c
  5908  003548  EFA8  F01A         	goto	i2u438_41
  5909  00354C  EFAA  F01A         	goto	i2u438_40
  5910  003550                     i2u438_41:
  5911  003550  EFB4  F01A         	goto	i2l4190
  5912  003554                     i2u438_40:
  5913  003554  0E00               	movlw	0
  5914  003556  6E1A               	movwf	?_strtof^(0+1280),c
  5915  003558  0E00               	movlw	0
  5916  00355A  6E1B               	movwf	(?_strtof+1)^(0+1280),c
  5917  00355C  0E00               	movlw	0
  5918  00355E  6E1C               	movwf	(?_strtof+2)^(0+1280),c
  5919  003560  0E00               	movlw	0
  5920  003562  6E1D               	movwf	(?_strtof+3)^(0+1280),c
  5921  003564  EFFE  F01B         	goto	i2l1479
  5922  003568                     i2l4190:
  5923  003568  BE38               	btfsc	(strtof@expon+1)^(0+1280),7,c
  5924  00356A  EFBB  F01A         	goto	i2u439_40
  5925  00356E  EFB9  F01A         	goto	i2u439_41
  5926  003572                     i2u439_41:
  5927  003572  EF49  F01B         	goto	i2l4218
  5928  003576                     i2u439_40:
  5929  003576  6C37               	negf	strtof@expon^(0+1280),c
  5930  003578  1E38               	comf	(strtof@expon+1)^(0+1280),f,c
  5931  00357A  B0D8               	btfsc	status,0,c
  5932  00357C  2A38               	incf	(strtof@expon+1)^(0+1280),f,c
  5933  00357E  EFDF  F01A         	goto	i2l4198
  5934  003582                     i2l4194:
  5935  003582  C53B  F501         	movff	strtof@_u,___fldiv@b
  5936  003586  C53C  F502         	movff	strtof@_u+1,___fldiv@b+1
  5937  00358A  C53D  F503         	movff	strtof@_u+2,___fldiv@b+2
  5938  00358E  C53E  F504         	movff	strtof@_u+3,___fldiv@b+3
  5939  003592  0EF9               	movlw	249
  5940  003594  6E05               	movwf	___fldiv@a^(0+1280),c
  5941  003596  0E02               	movlw	2
  5942  003598  6E06               	movwf	(___fldiv@a+1)^(0+1280),c
  5943  00359A  0E15               	movlw	21
  5944  00359C  6E07               	movwf	(___fldiv@a+2)^(0+1280),c
  5945  00359E  0E50               	movlw	80
  5946  0035A0  6E08               	movwf	(___fldiv@a+3)^(0+1280),c
  5947  0035A2  EC26  F01E         	call	___fldiv	;wreg free
  5948  0035A6  C501  F53B         	movff	?___fldiv,strtof@_u
  5949  0035AA  C502  F53C         	movff	?___fldiv+1,strtof@_u+1
  5950  0035AE  C503  F53D         	movff	?___fldiv+2,strtof@_u+2
  5951  0035B2  C504  F53E         	movff	?___fldiv+3,strtof@_u+3
  5952  0035B6  0EF6               	movlw	246
  5953  0035B8  2637               	addwf	strtof@expon^(0+1280),f,c
  5954  0035BA  0EFF               	movlw	255
  5955  0035BC  2238               	addwfc	(strtof@expon+1)^(0+1280),f,c
  5956  0035BE                     i2l4198:
  5957  0035BE  BE38               	btfsc	(strtof@expon+1)^(0+1280),7,c
  5958  0035C0  EFED  F01A         	goto	i2u440_40
  5959  0035C4  5038               	movf	(strtof@expon+1)^(0+1280),w,c
  5960  0035C6  E107               	bnz	i2u440_41
  5961  0035C8  0E0A               	movlw	10
  5962  0035CA  5C37               	subwf	strtof@expon^(0+1280),w,c
  5963  0035CC  B0D8               	btfsc	status,0,c
  5964  0035CE  EFEB  F01A         	goto	i2u440_41
  5965  0035D2  EFED  F01A         	goto	i2u440_40
  5966  0035D6                     i2u440_41:
  5967  0035D6  EFC1  F01A         	goto	i2l4194
  5968  0035DA                     i2u440_40:
  5969  0035DA  EF0C  F01B         	goto	i2l4204
  5970  0035DE                     i2l4200:
  5971  0035DE  C53B  F501         	movff	strtof@_u,___fldiv@b
  5972  0035E2  C53C  F502         	movff	strtof@_u+1,___fldiv@b+1
  5973  0035E6  C53D  F503         	movff	strtof@_u+2,___fldiv@b+2
  5974  0035EA  C53E  F504         	movff	strtof@_u+3,___fldiv@b+3
  5975  0035EE  0E00               	movlw	0
  5976  0035F0  6E05               	movwf	___fldiv@a^(0+1280),c
  5977  0035F2  0E00               	movlw	0
  5978  0035F4  6E06               	movwf	(___fldiv@a+1)^(0+1280),c
  5979  0035F6  0E20               	movlw	32
  5980  0035F8  6E07               	movwf	(___fldiv@a+2)^(0+1280),c
  5981  0035FA  0E41               	movlw	65
  5982  0035FC  6E08               	movwf	(___fldiv@a+3)^(0+1280),c
  5983  0035FE  EC26  F01E         	call	___fldiv	;wreg free
  5984  003602  C501  F53B         	movff	?___fldiv,strtof@_u
  5985  003606  C502  F53C         	movff	?___fldiv+1,strtof@_u+1
  5986  00360A  C503  F53D         	movff	?___fldiv+2,strtof@_u+2
  5987  00360E  C504  F53E         	movff	?___fldiv+3,strtof@_u+3
  5988  003612  0637               	decf	strtof@expon^(0+1280),f,c
  5989  003614  A0D8               	btfss	status,0,c
  5990  003616  0638               	decf	(strtof@expon+1)^(0+1280),f,c
  5991  003618                     i2l4204:
  5992  003618  5037               	movf	strtof@expon^(0+1280),w,c
  5993  00361A  1038               	iorwf	(strtof@expon+1)^(0+1280),w,c
  5994  00361C  A4D8               	btfss	status,2,c
  5995  00361E  EF13  F01B         	goto	i2u441_41
  5996  003622  EF15  F01B         	goto	i2u441_40
  5997  003626                     i2u441_41:
  5998  003626  EFEF  F01A         	goto	i2l4200
  5999  00362A                     i2u441_40:
  6000  00362A  C53B  F501         	movff	strtof@_u,___flge@ff1
  6001  00362E  C53C  F502         	movff	strtof@_u+1,___flge@ff1+1
  6002  003632  C53D  F503         	movff	strtof@_u+2,___flge@ff1+2
  6003  003636  C53E  F504         	movff	strtof@_u+3,___flge@ff1+3
  6004  00363A  0E00               	movlw	0
  6005  00363C  6E05               	movwf	___flge@ff2^(0+1280),c
  6006  00363E  0E00               	movlw	0
  6007  003640  6E06               	movwf	(___flge@ff2+1)^(0+1280),c
  6008  003642  0E80               	movlw	128
  6009  003644  6E07               	movwf	(___flge@ff2+2)^(0+1280),c
  6010  003646  0E00               	movlw	0
  6011  003648  6E08               	movwf	(___flge@ff2+3)^(0+1280),c
  6012  00364A  ECDB  F023         	call	___flge	;wreg free
  6013  00364E  B0D8               	btfsc	status,0,c
  6014  003650  EF2C  F01B         	goto	i2u442_41
  6015  003654  EF2E  F01B         	goto	i2u442_40
  6016  003658                     i2u442_41:
  6017  003658  EFDD  F01B         	goto	i2l1433
  6018  00365C                     i2u442_40:
  6019  00365C  A036               	btfss	strtof@flags^(0+1280),0,c
  6020  00365E  EF33  F01B         	goto	i2u443_41
  6021  003662  EF35  F01B         	goto	i2u443_40
  6022  003666                     i2u443_41:
  6023  003666  EF3F  F01B         	goto	i2l4214
  6024  00366A                     i2u443_40:
  6025  00366A  0E00               	movlw	0
  6026  00366C  6E1A               	movwf	?_strtof^(0+1280),c
  6027  00366E  0E00               	movlw	0
  6028  003670  6E1B               	movwf	(?_strtof+1)^(0+1280),c
  6029  003672  0E80               	movlw	128
  6030  003674  6E1C               	movwf	(?_strtof+2)^(0+1280),c
  6031  003676  0E80               	movlw	128
  6032  003678  6E1D               	movwf	(?_strtof+3)^(0+1280),c
  6033  00367A  EFFE  F01B         	goto	i2l1479
  6034  00367E                     i2l4214:
  6035  00367E  0E00               	movlw	0
  6036  003680  6E1A               	movwf	?_strtof^(0+1280),c
  6037  003682  0E00               	movlw	0
  6038  003684  6E1B               	movwf	(?_strtof+1)^(0+1280),c
  6039  003686  0E80               	movlw	128
  6040  003688  6E1C               	movwf	(?_strtof+2)^(0+1280),c
  6041  00368A  0E00               	movlw	0
  6042  00368C  6E1D               	movwf	(?_strtof+3)^(0+1280),c
  6043  00368E  EFFE  F01B         	goto	i2l1479
  6044  003692                     i2l4218:
  6045  003692  BE38               	btfsc	(strtof@expon+1)^(0+1280),7,c
  6046  003694  EF54  F01B         	goto	i2u444_41
  6047  003698  5038               	movf	(strtof@expon+1)^(0+1280),w,c
  6048  00369A  E108               	bnz	i2u444_40
  6049  00369C  0437               	decf	strtof@expon^(0+1280),w,c
  6050  00369E  A0D8               	btfss	status,0,c
  6051  0036A0  EF54  F01B         	goto	i2u444_41
  6052  0036A4  EF56  F01B         	goto	i2u444_40
  6053  0036A8                     i2u444_41:
  6054  0036A8  EFDD  F01B         	goto	i2l1433
  6055  0036AC                     i2u444_40:
  6056  0036AC  EF76  F01B         	goto	i2l4226
  6057  0036B0                     i2l4222:
  6058  0036B0  C53B  F501         	movff	strtof@_u,___flmul@b
  6059  0036B4  C53C  F502         	movff	strtof@_u+1,___flmul@b+1
  6060  0036B8  C53D  F503         	movff	strtof@_u+2,___flmul@b+2
  6061  0036BC  C53E  F504         	movff	strtof@_u+3,___flmul@b+3
  6062  0036C0  0EF9               	movlw	249
  6063  0036C2  6E05               	movwf	___flmul@a^(0+1280),c
  6064  0036C4  0E02               	movlw	2
  6065  0036C6  6E06               	movwf	(___flmul@a+1)^(0+1280),c
  6066  0036C8  0E15               	movlw	21
  6067  0036CA  6E07               	movwf	(___flmul@a+2)^(0+1280),c
  6068  0036CC  0E50               	movlw	80
  6069  0036CE  6E08               	movwf	(___flmul@a+3)^(0+1280),c
  6070  0036D0  ECFF  F01B         	call	___flmul	;wreg free
  6071  0036D4  C501  F53B         	movff	?___flmul,strtof@_u
  6072  0036D8  C502  F53C         	movff	?___flmul+1,strtof@_u+1
  6073  0036DC  C503  F53D         	movff	?___flmul+2,strtof@_u+2
  6074  0036E0  C504  F53E         	movff	?___flmul+3,strtof@_u+3
  6075  0036E4  0EF6               	movlw	246
  6076  0036E6  2637               	addwf	strtof@expon^(0+1280),f,c
  6077  0036E8  0EFF               	movlw	255
  6078  0036EA  2238               	addwfc	(strtof@expon+1)^(0+1280),f,c
  6079  0036EC                     i2l4226:
  6080  0036EC  5038               	movf	(strtof@expon+1)^(0+1280),w,c
  6081  0036EE  E107               	bnz	i2u445_41
  6082  0036F0  0E0A               	movlw	10
  6083  0036F2  5C37               	subwf	strtof@expon^(0+1280),w,c
  6084  0036F4  B0D8               	btfsc	status,0,c
  6085  0036F6  EF7F  F01B         	goto	i2u445_41
  6086  0036FA  EF81  F01B         	goto	i2u445_40
  6087  0036FE                     i2u445_41:
  6088  0036FE  EF58  F01B         	goto	i2l4222
  6089  003702                     i2u445_40:
  6090  003702  EFA0  F01B         	goto	i2l4232
  6091  003706                     i2l4228:
  6092  003706  C53B  F501         	movff	strtof@_u,___flmul@b
  6093  00370A  C53C  F502         	movff	strtof@_u+1,___flmul@b+1
  6094  00370E  C53D  F503         	movff	strtof@_u+2,___flmul@b+2
  6095  003712  C53E  F504         	movff	strtof@_u+3,___flmul@b+3
  6096  003716  0E00               	movlw	0
  6097  003718  6E05               	movwf	___flmul@a^(0+1280),c
  6098  00371A  0E00               	movlw	0
  6099  00371C  6E06               	movwf	(___flmul@a+1)^(0+1280),c
  6100  00371E  0E20               	movlw	32
  6101  003720  6E07               	movwf	(___flmul@a+2)^(0+1280),c
  6102  003722  0E41               	movlw	65
  6103  003724  6E08               	movwf	(___flmul@a+3)^(0+1280),c
  6104  003726  ECFF  F01B         	call	___flmul	;wreg free
  6105  00372A  C501  F53B         	movff	?___flmul,strtof@_u
  6106  00372E  C502  F53C         	movff	?___flmul+1,strtof@_u+1
  6107  003732  C503  F53D         	movff	?___flmul+2,strtof@_u+2
  6108  003736  C504  F53E         	movff	?___flmul+3,strtof@_u+3
  6109  00373A  0637               	decf	strtof@expon^(0+1280),f,c
  6110  00373C  A0D8               	btfss	status,0,c
  6111  00373E  0638               	decf	(strtof@expon+1)^(0+1280),f,c
  6112  003740                     i2l4232:
  6113  003740  5037               	movf	strtof@expon^(0+1280),w,c
  6114  003742  1038               	iorwf	(strtof@expon+1)^(0+1280),w,c
  6115  003744  A4D8               	btfss	status,2,c
  6116  003746  EFA7  F01B         	goto	i2u446_41
  6117  00374A  EFA9  F01B         	goto	i2u446_40
  6118  00374E                     i2u446_41:
  6119  00374E  EF83  F01B         	goto	i2l4228
  6120  003752                     i2u446_40:
  6121  003752  0EFF               	movlw	255
  6122  003754  6E01               	movwf	___flge@ff1^(0+1280),c
  6123  003756  0EFF               	movlw	255
  6124  003758  6E02               	movwf	(___flge@ff1+1)^(0+1280),c
  6125  00375A  0E7F               	movlw	127
  6126  00375C  6E03               	movwf	(___flge@ff1+2)^(0+1280),c
  6127  00375E  0E7F               	movlw	127
  6128  003760  6E04               	movwf	(___flge@ff1+3)^(0+1280),c
  6129  003762  C53B  F505         	movff	strtof@_u,___flge@ff2
  6130  003766  C53C  F506         	movff	strtof@_u+1,___flge@ff2+1
  6131  00376A  C53D  F507         	movff	strtof@_u+2,___flge@ff2+2
  6132  00376E  C53E  F508         	movff	strtof@_u+3,___flge@ff2+3
  6133  003772  ECDB  F023         	call	___flge	;wreg free
  6134  003776  B0D8               	btfsc	status,0,c
  6135  003778  EFC0  F01B         	goto	i2u447_41
  6136  00377C  EFC2  F01B         	goto	i2u447_40
  6137  003780                     i2u447_41:
  6138  003780  EFDD  F01B         	goto	i2l1433
  6139  003784                     i2u447_40:
  6140  003784  A036               	btfss	strtof@flags^(0+1280),0,c
  6141  003786  EFC7  F01B         	goto	i2u448_41
  6142  00378A  EFC9  F01B         	goto	i2u448_40
  6143  00378E                     i2u448_41:
  6144  00378E  EFD3  F01B         	goto	i2l4242
  6145  003792                     i2u448_40:
  6146  003792  0E00               	movlw	0
  6147  003794  6E1A               	movwf	?_strtof^(0+1280),c
  6148  003796  0E00               	movlw	0
  6149  003798  6E1B               	movwf	(?_strtof+1)^(0+1280),c
  6150  00379A  0E80               	movlw	128
  6151  00379C  6E1C               	movwf	(?_strtof+2)^(0+1280),c
  6152  00379E  0E80               	movlw	128
  6153  0037A0  6E1D               	movwf	(?_strtof+3)^(0+1280),c
  6154  0037A2  EFFE  F01B         	goto	i2l1479
  6155  0037A6                     i2l4242:
  6156  0037A6  0E00               	movlw	0
  6157  0037A8  6E1A               	movwf	?_strtof^(0+1280),c
  6158  0037AA  0E00               	movlw	0
  6159  0037AC  6E1B               	movwf	(?_strtof+1)^(0+1280),c
  6160  0037AE  0E80               	movlw	128
  6161  0037B0  6E1C               	movwf	(?_strtof+2)^(0+1280),c
  6162  0037B2  0E00               	movlw	0
  6163  0037B4  6E1D               	movwf	(?_strtof+3)^(0+1280),c
  6164  0037B6  EFFE  F01B         	goto	i2l1479
  6165  0037BA                     i2l1433:
  6166  0037BA  A036               	btfss	strtof@flags^(0+1280),0,c
  6167  0037BC  EFE2  F01B         	goto	i2u449_41
  6168  0037C0  EFE4  F01B         	goto	i2u449_40
  6169  0037C4                     i2u449_41:
  6170  0037C4  EFF6  F01B         	goto	i2l4248
  6171  0037C8                     i2u449_40:
  6172  0037C8  C53B  F501         	movff	strtof@_u,___flneg@f1
  6173  0037CC  C53C  F502         	movff	strtof@_u+1,___flneg@f1+1
  6174  0037D0  C53D  F503         	movff	strtof@_u+2,___flneg@f1+2
  6175  0037D4  C53E  F504         	movff	strtof@_u+3,___flneg@f1+3
  6176  0037D8  EC3D  F029         	call	___flneg	;wreg free
  6177  0037DC  C501  F53B         	movff	?___flneg,strtof@_u
  6178  0037E0  C502  F53C         	movff	?___flneg+1,strtof@_u+1
  6179  0037E4  C503  F53D         	movff	?___flneg+2,strtof@_u+2
  6180  0037E8  C504  F53E         	movff	?___flneg+3,strtof@_u+3
  6181  0037EC                     i2l4248:
  6182  0037EC  C53B  F51A         	movff	strtof@_u,?_strtof
  6183  0037F0  C53C  F51B         	movff	strtof@_u+1,?_strtof+1
  6184  0037F4  C53D  F51C         	movff	strtof@_u+2,?_strtof+2
  6185  0037F8  C53E  F51D         	movff	strtof@_u+3,?_strtof+3
  6186  0037FC                     i2l1479:
  6187  0037FC  0012               	return		;funcret
  6188  0037FE                     __end_of_strtof:
  6189                           	callstack 0
  6190                           
  6191 ;; *************** function _toupper *****************
  6192 ;; Defined at:
  6193 ;;		line 4 in file "C:\Program Files\Microchip\xc8\v2.32\pic\sources\c99\common\toupper.c"
  6194 ;; Parameters:    Size  Location     Type
  6195 ;;  c               2    6[COMRAM] int 
  6196 ;; Auto vars:     Size  Location     Type
  6197 ;;		None
  6198 ;; Return value:  Size  Location     Type
  6199 ;;                  2    6[COMRAM] int 
  6200 ;; Registers used:
  6201 ;;		wreg, status,2, status,0
  6202 ;; Tracked objects:
  6203 ;;		On entry : 0/0
  6204 ;;		On exit  : 0/0
  6205 ;;		Unchanged: 0/0
  6206 ;; Data sizes:     COMRAM   BANK5   BANK6   BANK7   BANK8   BANK9  BANK10  BANK11  BANK12  BANK13  BANK14  BANK15  BANK1
      +6  BANK17  BANK18  BANK19  BANK20  BANK21  BANK22  BANK23  BANK24  BANK25  BANK26  BANK27  BANK28  BANK29  BANK30  BANK3
      +1  BANK32  BANK33  BANK34  BANK35  BANK36  BANK37
  6207 ;;      Params:         2       0       0       0       0       0       0       0       0       0       0       0       
      +0       0       0       0       0       0       0       0       0       0       0       0       0       0       0       
      +0       0       0       0       0       0       0
  6208 ;;      Locals:         2       0       0       0       0       0       0       0       0       0       0       0       
      +0       0       0       0       0       0       0       0       0       0       0       0       0       0       0       
      +0       0       0       0       0       0       0
  6209 ;;      Temps:          4       0       0       0       0       0       0       0       0       0       0       0       
      +0       0       0       0       0       0       0       0       0       0       0       0       0       0       0       
      +0       0       0       0       0       0       0
  6210 ;;      Totals:         8       0       0       0       0       0       0       0       0       0       0       0       
      +0       0       0       0       0       0       0       0       0       0       0       0       0       0       0       
      +0       0       0       0       0       0       0
  6211 ;;Total ram usage:        8 bytes
  6212 ;; Hardware stack levels used: 1
  6213 ;; Hardware stack levels required when called: 1
  6214 ;; This function calls:
  6215 ;;		_islower
  6216 ;; This function is called by:
  6217 ;;		_strtof
  6218 ;; This function uses a non-reentrant model
  6219 ;;
  6220                           
  6221                           	psect	text31
  6222  005040                     __ptext31:
  6223                           	callstack 0
  6224  005040                     _toupper:
  6225                           	callstack 114
  6226  005040  0E9F               	movlw	159
  6227  005042  6E09               	movwf	??_toupper^(0+1280),c
  6228  005044  0EFF               	movlw	255
  6229  005046  6E0A               	movwf	(??_toupper+1)^(0+1280),c
  6230  005048  C507  F50B         	movff	toupper@c,??_toupper+2
  6231  00504C  C508  F50C         	movff	toupper@c+1,??_toupper+3
  6232  005050  5009               	movf	??_toupper^(0+1280),w,c
  6233  005052  260B               	addwf	(??_toupper+2)^(0+1280),f,c
  6234  005054  500A               	movf	(??_toupper+1)^(0+1280),w,c
  6235  005056  220C               	addwfc	(??_toupper+3)^(0+1280),f,c
  6236  005058  500C               	movf	(??_toupper+3)^(0+1280),w,c
  6237  00505A  E10A               	bnz	i2u341_40
  6238  00505C  0E1A               	movlw	26
  6239  00505E  5C0B               	subwf	(??_toupper+2)^(0+1280),w,c
  6240  005060  A0D8               	btfss	status,0,c
  6241  005062  EF35  F028         	goto	i2u341_41
  6242  005066  EF38  F028         	goto	i2u341_40
  6243  00506A                     i2u341_41:
  6244  00506A  0E01               	movlw	1
  6245  00506C  EF39  F028         	goto	i2u342_40
  6246  005070                     i2u341_40:
  6247  005070  0E00               	movlw	0
  6248  005072                     i2u342_40:
  6249  005072  6E0D               	movwf	_toupper$2023^(0+1280),c
  6250  005074  6A0E               	clrf	(_toupper$2023+1)^(0+1280),c
  6251  005076  500D               	movf	_toupper$2023^(0+1280),w,c
  6252  005078  100E               	iorwf	(_toupper$2023+1)^(0+1280),w,c
  6253  00507A  B4D8               	btfsc	status,2,c
  6254  00507C  EF42  F028         	goto	i2u343_41
  6255  005080  EF44  F028         	goto	i2u343_40
  6256  005084                     i2u343_41:
  6257  005084  EF4A  F028         	goto	i2l1624
  6258  005088                     i2u343_40:
  6259  005088  0E5F               	movlw	95
  6260  00508A  1407               	andwf	toupper@c^(0+1280),w,c
  6261  00508C  6E07               	movwf	?_toupper^(0+1280),c
  6262  00508E  6A08               	clrf	(?_toupper+1)^(0+1280),c
  6263  005090  EF4E  F028         	goto	i2l1629
  6264  005094                     i2l1624:
  6265  005094  C507  F507         	movff	toupper@c,?_toupper
  6266  005098  C508  F508         	movff	toupper@c+1,?_toupper+1
  6267  00509C                     i2l1629:
  6268  00509C  0012               	return		;funcret
  6269  00509E                     __end_of_toupper:
  6270                           	callstack 0
  6271                           
  6272 ;; *************** function _islower *****************
  6273 ;; Defined at:
  6274 ;;		line 5 in file "C:\Program Files\Microchip\xc8\v2.32\pic\sources\c99\common\islower.c"
  6275 ;; Parameters:    Size  Location     Type
  6276 ;;  c               2    0[COMRAM] int 
  6277 ;; Auto vars:     Size  Location     Type
  6278 ;;		None
  6279 ;; Return value:  Size  Location     Type
  6280 ;;                  2    0[COMRAM] int 
  6281 ;; Registers used:
  6282 ;;		wreg, status,2, status,0
  6283 ;; Tracked objects:
  6284 ;;		On entry : 0/0
  6285 ;;		On exit  : 0/0
  6286 ;;		Unchanged: 0/0
  6287 ;; Data sizes:     COMRAM   BANK5   BANK6   BANK7   BANK8   BANK9  BANK10  BANK11  BANK12  BANK13  BANK14  BANK15  BANK1
      +6  BANK17  BANK18  BANK19  BANK20  BANK21  BANK22  BANK23  BANK24  BANK25  BANK26  BANK27  BANK28  BANK29  BANK30  BANK3
      +1  BANK32  BANK33  BANK34  BANK35  BANK36  BANK37
  6288 ;;      Params:         2       0       0       0       0       0       0       0       0       0       0       0       
      +0       0       0       0       0       0       0       0       0       0       0       0       0       0       0       
      +0       0       0       0       0       0       0
  6289 ;;      Locals:         0       0       0       0       0       0       0       0       0       0       0       0       
      +0       0       0       0       0       0       0       0       0       0       0       0       0       0       0       
      +0       0       0       0       0       0       0
  6290 ;;      Temps:          4       0       0       0       0       0       0       0       0       0       0       0       
      +0       0       0       0       0       0       0       0       0       0       0       0       0       0       0       
      +0       0       0       0       0       0       0
  6291 ;;      Totals:         6       0       0       0       0       0       0       0       0       0       0       0       
      +0       0       0       0       0       0       0       0       0       0       0       0       0       0       0       
      +0       0       0       0       0       0       0
  6292 ;;Total ram usage:        6 bytes
  6293 ;; Hardware stack levels used: 1
  6294 ;; This function calls:
  6295 ;;		Nothing
  6296 ;; This function is called by:
  6297 ;;		_toupper
  6298 ;; This function uses a non-reentrant model
  6299 ;;
  6300                           
  6301                           	psect	text32
  6302  00520A                     __ptext32:
  6303                           	callstack 0
  6304  00520A                     _islower:
  6305                           	callstack 114
  6306  00520A  0E9F               	movlw	159
  6307  00520C  6E03               	movwf	??_islower^(0+1280),c
  6308  00520E  0EFF               	movlw	255
  6309  005210  6E04               	movwf	(??_islower+1)^(0+1280),c
  6310  005212  C501  F505         	movff	islower@c,??_islower+2
  6311  005216  C502  F506         	movff	islower@c+1,??_islower+3
  6312  00521A  5003               	movf	??_islower^(0+1280),w,c
  6313  00521C  2605               	addwf	(??_islower+2)^(0+1280),f,c
  6314  00521E  5004               	movf	(??_islower+1)^(0+1280),w,c
  6315  005220  2206               	addwfc	(??_islower+3)^(0+1280),f,c
  6316  005222  5006               	movf	(??_islower+3)^(0+1280),w,c
  6317  005224  E10A               	bnz	i2u266_40
  6318  005226  0E1A               	movlw	26
  6319  005228  5C05               	subwf	(??_islower+2)^(0+1280),w,c
  6320  00522A  A0D8               	btfss	status,0,c
  6321  00522C  EF1A  F029         	goto	i2u266_41
  6322  005230  EF1D  F029         	goto	i2u266_40
  6323  005234                     i2u266_41:
  6324  005234  0E01               	movlw	1
  6325  005236  EF1E  F029         	goto	i2u267_40
  6326  00523A                     i2u266_40:
  6327  00523A  0E00               	movlw	0
  6328  00523C                     i2u267_40:
  6329  00523C  6E01               	movwf	?_islower^(0+1280),c
  6330  00523E  6A02               	clrf	(?_islower+1)^(0+1280),c
  6331  005240  0012               	return		;funcret
  6332  005242                     __end_of_islower:
  6333                           	callstack 0
  6334                           
  6335 ;; *************** function _nanf *****************
  6336 ;; Defined at:
  6337 ;;		line 4 in file "C:\Program Files\Microchip\xc8\v2.32\pic\sources\c99\common\nanf.c"
  6338 ;; Parameters:    Size  Location     Type
  6339 ;;  s               2    0[COMRAM] PTR const unsigned char 
  6340 ;;		 -> STR_10(1), 
  6341 ;; Auto vars:     Size  Location     Type
  6342 ;;  u               4    4[COMRAM] struct .
  6343 ;; Return value:  Size  Location     Type
  6344 ;;                  4    0[COMRAM] float 
  6345 ;; Registers used:
  6346 ;;		wreg, status,2
  6347 ;; Tracked objects:
  6348 ;;		On entry : 0/0
  6349 ;;		On exit  : 0/0
  6350 ;;		Unchanged: 0/0
  6351 ;; Data sizes:     COMRAM   BANK5   BANK6   BANK7   BANK8   BANK9  BANK10  BANK11  BANK12  BANK13  BANK14  BANK15  BANK1
      +6  BANK17  BANK18  BANK19  BANK20  BANK21  BANK22  BANK23  BANK24  BANK25  BANK26  BANK27  BANK28  BANK29  BANK30  BANK3
      +1  BANK32  BANK33  BANK34  BANK35  BANK36  BANK37
  6352 ;;      Params:         4       0       0       0       0       0       0       0       0       0       0       0       
      +0       0       0       0       0       0       0       0       0       0       0       0       0       0       0       
      +0       0       0       0       0       0       0
  6353 ;;      Locals:         4       0       0       0       0       0       0       0       0       0       0       0       
      +0       0       0       0       0       0       0       0       0       0       0       0       0       0       0       
      +0       0       0       0       0       0       0
  6354 ;;      Temps:          0       0       0       0       0       0       0       0       0       0       0       0       
      +0       0       0       0       0       0       0       0       0       0       0       0       0       0       0       
      +0       0       0       0       0       0       0
  6355 ;;      Totals:         8       0       0       0       0       0       0       0       0       0       0       0       
      +0       0       0       0       0       0       0       0       0       0       0       0       0       0       0       
      +0       0       0       0       0       0       0
  6356 ;;Total ram usage:        8 bytes
  6357 ;; Hardware stack levels used: 1
  6358 ;; This function calls:
  6359 ;;		Nothing
  6360 ;; This function is called by:
  6361 ;;		_strtof
  6362 ;; This function uses a non-reentrant model
  6363 ;;
  6364                           
  6365                           	psect	text33
  6366  0053CE                     __ptext33:
  6367                           	callstack 0
  6368  0053CE                     _nanf:
  6369                           	callstack 115
  6370  0053CE  0EFF               	movlw	255
  6371  0053D0  6E05               	movwf	nanf@u^(0+1280),c
  6372  0053D2  0EFF               	movlw	255
  6373  0053D4  6E06               	movwf	(nanf@u+1)^(0+1280),c
  6374  0053D6  0EFF               	movlw	255
  6375  0053D8  6E07               	movwf	(nanf@u+2)^(0+1280),c
  6376  0053DA  0E7F               	movlw	127
  6377  0053DC  6E08               	movwf	(nanf@u+3)^(0+1280),c
  6378  0053DE  C505  F501         	movff	nanf@u,?_nanf
  6379  0053E2  C506  F502         	movff	nanf@u+1,?_nanf+1
  6380  0053E6  C507  F503         	movff	nanf@u+2,?_nanf+2
  6381  0053EA  C508  F504         	movff	nanf@u+3,?_nanf+3
  6382  0053EE  0012               	return		;funcret
  6383  0053F0                     __end_of_nanf:
  6384                           	callstack 0
  6385                           
  6386 ;; *************** function _isxdigit *****************
  6387 ;; Defined at:
  6388 ;;		line 4 in file "C:\Program Files\Microchip\xc8\v2.32\pic\sources\c99\common\isxdigit.c"
  6389 ;; Parameters:    Size  Location     Type
  6390 ;;  c               2    0[COMRAM] int 
  6391 ;; Auto vars:     Size  Location     Type
  6392 ;;		None
  6393 ;; Return value:  Size  Location     Type
  6394 ;;                  2    0[COMRAM] int 
  6395 ;; Registers used:
  6396 ;;		wreg, status,2, status,0
  6397 ;; Tracked objects:
  6398 ;;		On entry : 0/0
  6399 ;;		On exit  : 0/0
  6400 ;;		Unchanged: 0/0
  6401 ;; Data sizes:     COMRAM   BANK5   BANK6   BANK7   BANK8   BANK9  BANK10  BANK11  BANK12  BANK13  BANK14  BANK15  BANK1
      +6  BANK17  BANK18  BANK19  BANK20  BANK21  BANK22  BANK23  BANK24  BANK25  BANK26  BANK27  BANK28  BANK29  BANK30  BANK3
      +1  BANK32  BANK33  BANK34  BANK35  BANK36  BANK37
  6402 ;;      Params:         2       0       0       0       0       0       0       0       0       0       0       0       
      +0       0       0       0       0       0       0       0       0       0       0       0       0       0       0       
      +0       0       0       0       0       0       0
  6403 ;;      Locals:         1       0       0       0       0       0       0       0       0       0       0       0       
      +0       0       0       0       0       0       0       0       0       0       0       0       0       0       0       
      +0       0       0       0       0       0       0
  6404 ;;      Temps:          4       0       0       0       0       0       0       0       0       0       0       0       
      +0       0       0       0       0       0       0       0       0       0       0       0       0       0       0       
      +0       0       0       0       0       0       0
  6405 ;;      Totals:         7       0       0       0       0       0       0       0       0       0       0       0       
      +0       0       0       0       0       0       0       0       0       0       0       0       0       0       0       
      +0       0       0       0       0       0       0
  6406 ;;Total ram usage:        7 bytes
  6407 ;; Hardware stack levels used: 1
  6408 ;; This function calls:
  6409 ;;		Nothing
  6410 ;; This function is called by:
  6411 ;;		_strtof
  6412 ;; This function uses a non-reentrant model
  6413 ;;
  6414                           
  6415                           	psect	text34
  6416  004E9C                     __ptext34:
  6417                           	callstack 0
  6418  004E9C                     _isxdigit:
  6419                           	callstack 115
  6420  004E9C  0E01               	movlw	1
  6421  004E9E  6E07               	movwf	_isxdigit$2000^(0+1280),c
  6422  004EA0  0ED0               	movlw	208
  6423  004EA2  6E03               	movwf	??_isxdigit^(0+1280),c
  6424  004EA4  0EFF               	movlw	255
  6425  004EA6  6E04               	movwf	(??_isxdigit+1)^(0+1280),c
  6426  004EA8  C501  F505         	movff	isxdigit@c,??_isxdigit+2
  6427  004EAC  C502  F506         	movff	isxdigit@c+1,??_isxdigit+3
  6428  004EB0  5003               	movf	??_isxdigit^(0+1280),w,c
  6429  004EB2  2605               	addwf	(??_isxdigit+2)^(0+1280),f,c
  6430  004EB4  5004               	movf	(??_isxdigit+1)^(0+1280),w,c
  6431  004EB6  2206               	addwfc	(??_isxdigit+3)^(0+1280),f,c
  6432  004EB8  5006               	movf	(??_isxdigit+3)^(0+1280),w,c
  6433  004EBA  E109               	bnz	i2u337_40
  6434  004EBC  0E0A               	movlw	10
  6435  004EBE  5C05               	subwf	(??_isxdigit+2)^(0+1280),w,c
  6436  004EC0  A0D8               	btfss	status,0,c
  6437  004EC2  EF65  F027         	goto	i2u337_41
  6438  004EC6  EF67  F027         	goto	i2u337_40
  6439  004ECA                     i2u337_41:
  6440  004ECA  EF82  F027         	goto	i2l3702
  6441  004ECE                     i2u337_40:
  6442  004ECE  0E9F               	movlw	159
  6443  004ED0  6E03               	movwf	??_isxdigit^(0+1280),c
  6444  004ED2  0EFF               	movlw	255
  6445  004ED4  6E04               	movwf	(??_isxdigit+1)^(0+1280),c
  6446  004ED6  0E20               	movlw	32
  6447  004ED8  1001               	iorwf	isxdigit@c^(0+1280),w,c
  6448  004EDA  6E05               	movwf	(??_isxdigit+2)^(0+1280),c
  6449  004EDC  0E00               	movlw	0
  6450  004EDE  1002               	iorwf	(isxdigit@c+1)^(0+1280),w,c
  6451  004EE0  6E06               	movwf	(??_isxdigit+3)^(0+1280),c
  6452  004EE2  5003               	movf	??_isxdigit^(0+1280),w,c
  6453  004EE4  2605               	addwf	(??_isxdigit+2)^(0+1280),f,c
  6454  004EE6  5004               	movf	(??_isxdigit+1)^(0+1280),w,c
  6455  004EE8  2206               	addwfc	(??_isxdigit+3)^(0+1280),f,c
  6456  004EEA  5006               	movf	(??_isxdigit+3)^(0+1280),w,c
  6457  004EEC  E109               	bnz	i2u338_40
  6458  004EEE  0E06               	movlw	6
  6459  004EF0  5C05               	subwf	(??_isxdigit+2)^(0+1280),w,c
  6460  004EF2  A0D8               	btfss	status,0,c
  6461  004EF4  EF7E  F027         	goto	i2u338_41
  6462  004EF8  EF80  F027         	goto	i2u338_40
  6463  004EFC                     i2u338_41:
  6464  004EFC  EF82  F027         	goto	i2l3702
  6465  004F00                     i2u338_40:
  6466  004F00  0E00               	movlw	0
  6467  004F02  6E07               	movwf	_isxdigit$2000^(0+1280),c
  6468  004F04                     i2l3702:
  6469  004F04  C507  F501         	movff	_isxdigit$2000,?_isxdigit
  6470  004F08  6A02               	clrf	(?_isxdigit+1)^(0+1280),c
  6471  004F0A  0012               	return		;funcret
  6472  004F0C                     __end_of_isxdigit:
  6473                           	callstack 0
  6474                           
  6475 ;; *************** function _isspace *****************
  6476 ;; Defined at:
  6477 ;;		line 5 in file "C:\Program Files\Microchip\xc8\v2.32\pic\sources\c99\common\isspace.c"
  6478 ;; Parameters:    Size  Location     Type
  6479 ;;  c               2    0[COMRAM] int 
  6480 ;; Auto vars:     Size  Location     Type
  6481 ;;		None
  6482 ;; Return value:  Size  Location     Type
  6483 ;;                  2    0[COMRAM] int 
  6484 ;; Registers used:
  6485 ;;		wreg, status,2, status,0
  6486 ;; Tracked objects:
  6487 ;;		On entry : 0/0
  6488 ;;		On exit  : 0/0
  6489 ;;		Unchanged: 0/0
  6490 ;; Data sizes:     COMRAM   BANK5   BANK6   BANK7   BANK8   BANK9  BANK10  BANK11  BANK12  BANK13  BANK14  BANK15  BANK1
      +6  BANK17  BANK18  BANK19  BANK20  BANK21  BANK22  BANK23  BANK24  BANK25  BANK26  BANK27  BANK28  BANK29  BANK30  BANK3
      +1  BANK32  BANK33  BANK34  BANK35  BANK36  BANK37
  6491 ;;      Params:         2       0       0       0       0       0       0       0       0       0       0       0       
      +0       0       0       0       0       0       0       0       0       0       0       0       0       0       0       
      +0       0       0       0       0       0       0
  6492 ;;      Locals:         1       0       0       0       0       0       0       0       0       0       0       0       
      +0       0       0       0       0       0       0       0       0       0       0       0       0       0       0       
      +0       0       0       0       0       0       0
  6493 ;;      Temps:          4       0       0       0       0       0       0       0       0       0       0       0       
      +0       0       0       0       0       0       0       0       0       0       0       0       0       0       0       
      +0       0       0       0       0       0       0
  6494 ;;      Totals:         7       0       0       0       0       0       0       0       0       0       0       0       
      +0       0       0       0       0       0       0       0       0       0       0       0       0       0       0       
      +0       0       0       0       0       0       0
  6495 ;;Total ram usage:        7 bytes
  6496 ;; Hardware stack levels used: 1
  6497 ;; This function calls:
  6498 ;;		Nothing
  6499 ;; This function is called by:
  6500 ;;		_strtof
  6501 ;; This function uses a non-reentrant model
  6502 ;;
  6503                           
  6504                           	psect	text35
  6505  0050FA                     __ptext35:
  6506                           	callstack 0
  6507  0050FA                     _isspace:
  6508                           	callstack 115
  6509  0050FA  0E01               	movlw	1
  6510  0050FC  6E07               	movwf	_isspace$1989^(0+1280),c
  6511  0050FE  0E20               	movlw	32
  6512  005100  1801               	xorwf	isspace@c^(0+1280),w,c
  6513  005102  1002               	iorwf	(isspace@c+1)^(0+1280),w,c
  6514  005104  B4D8               	btfsc	status,2,c
  6515  005106  EF87  F028         	goto	i2u335_41
  6516  00510A  EF89  F028         	goto	i2u335_40
  6517  00510E                     i2u335_41:
  6518  00510E  EFA2  F028         	goto	i2l3684
  6519  005112                     i2u335_40:
  6520  005112  0EF7               	movlw	247
  6521  005114  6E03               	movwf	??_isspace^(0+1280),c
  6522  005116  0EFF               	movlw	255
  6523  005118  6E04               	movwf	(??_isspace+1)^(0+1280),c
  6524  00511A  C501  F505         	movff	isspace@c,??_isspace+2
  6525  00511E  C502  F506         	movff	isspace@c+1,??_isspace+3
  6526  005122  5003               	movf	??_isspace^(0+1280),w,c
  6527  005124  2605               	addwf	(??_isspace+2)^(0+1280),f,c
  6528  005126  5004               	movf	(??_isspace+1)^(0+1280),w,c
  6529  005128  2206               	addwfc	(??_isspace+3)^(0+1280),f,c
  6530  00512A  5006               	movf	(??_isspace+3)^(0+1280),w,c
  6531  00512C  E109               	bnz	i2u336_40
  6532  00512E  0E05               	movlw	5
  6533  005130  5C05               	subwf	(??_isspace+2)^(0+1280),w,c
  6534  005132  A0D8               	btfss	status,0,c
  6535  005134  EF9E  F028         	goto	i2u336_41
  6536  005138  EFA0  F028         	goto	i2u336_40
  6537  00513C                     i2u336_41:
  6538  00513C  EFA2  F028         	goto	i2l3684
  6539  005140                     i2u336_40:
  6540  005140  0E00               	movlw	0
  6541  005142  6E07               	movwf	_isspace$1989^(0+1280),c
  6542  005144                     i2l3684:
  6543  005144  C507  F501         	movff	_isspace$1989,?_isspace
  6544  005148  6A02               	clrf	(?_isspace+1)^(0+1280),c
  6545  00514A  0012               	return		;funcret
  6546  00514C                     __end_of_isspace:
  6547                           	callstack 0
  6548                           
  6549 ;; *************** function _isdigit *****************
  6550 ;; Defined at:
  6551 ;;		line 5 in file "C:\Program Files\Microchip\xc8\v2.32\pic\sources\c99\common\isdigit.c"
  6552 ;; Parameters:    Size  Location     Type
  6553 ;;  c               2    0[COMRAM] int 
  6554 ;; Auto vars:     Size  Location     Type
  6555 ;;		None
  6556 ;; Return value:  Size  Location     Type
  6557 ;;                  2    0[COMRAM] int 
  6558 ;; Registers used:
  6559 ;;		wreg, status,2, status,0
  6560 ;; Tracked objects:
  6561 ;;		On entry : 0/0
  6562 ;;		On exit  : 0/0
  6563 ;;		Unchanged: 0/0
  6564 ;; Data sizes:     COMRAM   BANK5   BANK6   BANK7   BANK8   BANK9  BANK10  BANK11  BANK12  BANK13  BANK14  BANK15  BANK1
      +6  BANK17  BANK18  BANK19  BANK20  BANK21  BANK22  BANK23  BANK24  BANK25  BANK26  BANK27  BANK28  BANK29  BANK30  BANK3
      +1  BANK32  BANK33  BANK34  BANK35  BANK36  BANK37
  6565 ;;      Params:         2       0       0       0       0       0       0       0       0       0       0       0       
      +0       0       0       0       0       0       0       0       0       0       0       0       0       0       0       
      +0       0       0       0       0       0       0
  6566 ;;      Locals:         0       0       0       0       0       0       0       0       0       0       0       0       
      +0       0       0       0       0       0       0       0       0       0       0       0       0       0       0       
      +0       0       0       0       0       0       0
  6567 ;;      Temps:          4       0       0       0       0       0       0       0       0       0       0       0       
      +0       0       0       0       0       0       0       0       0       0       0       0       0       0       0       
      +0       0       0       0       0       0       0
  6568 ;;      Totals:         6       0       0       0       0       0       0       0       0       0       0       0       
      +0       0       0       0       0       0       0       0       0       0       0       0       0       0       0       
      +0       0       0       0       0       0       0
  6569 ;;Total ram usage:        6 bytes
  6570 ;; Hardware stack levels used: 1
  6571 ;; This function calls:
  6572 ;;		Nothing
  6573 ;; This function is called by:
  6574 ;;		_strtof
  6575 ;; This function uses a non-reentrant model
  6576 ;;
  6577                           
  6578                           	psect	text36
  6579  005242                     __ptext36:
  6580                           	callstack 0
  6581  005242                     _isdigit:
  6582                           	callstack 115
  6583  005242  0ED0               	movlw	208
  6584  005244  6E03               	movwf	??_isdigit^(0+1280),c
  6585  005246  0EFF               	movlw	255
  6586  005248  6E04               	movwf	(??_isdigit+1)^(0+1280),c
  6587  00524A  C501  F505         	movff	isdigit@c,??_isdigit+2
  6588  00524E  C502  F506         	movff	isdigit@c+1,??_isdigit+3
  6589  005252  5003               	movf	??_isdigit^(0+1280),w,c
  6590  005254  2605               	addwf	(??_isdigit+2)^(0+1280),f,c
  6591  005256  5004               	movf	(??_isdigit+1)^(0+1280),w,c
  6592  005258  2206               	addwfc	(??_isdigit+3)^(0+1280),f,c
  6593  00525A  5006               	movf	(??_isdigit+3)^(0+1280),w,c
  6594  00525C  E10A               	bnz	i2u339_40
  6595  00525E  0E0A               	movlw	10
  6596  005260  5C05               	subwf	(??_isdigit+2)^(0+1280),w,c
  6597  005262  A0D8               	btfss	status,0,c
  6598  005264  EF36  F029         	goto	i2u339_41
  6599  005268  EF39  F029         	goto	i2u339_40
  6600  00526C                     i2u339_41:
  6601  00526C  0E01               	movlw	1
  6602  00526E  EF3A  F029         	goto	i2u340_40
  6603  005272                     i2u339_40:
  6604  005272  0E00               	movlw	0
  6605  005274                     i2u340_40:
  6606  005274  6E01               	movwf	?_isdigit^(0+1280),c
  6607  005276  6A02               	clrf	(?_isdigit+1)^(0+1280),c
  6608  005278  0012               	return		;funcret
  6609  00527A                     __end_of_isdigit:
  6610                           	callstack 0
  6611                           
  6612 ;; *************** function ___xxtofl *****************
  6613 ;; Defined at:
  6614 ;;		line 10 in file "C:\Program Files\Microchip\xc8\v2.32\pic\sources\c99\common\xxtofl.c"
  6615 ;; Parameters:    Size  Location     Type
  6616 ;;  sign            1    wreg     unsigned char 
  6617 ;;  val             4    0[COMRAM] long 
  6618 ;; Auto vars:     Size  Location     Type
  6619 ;;  sign            1    8[COMRAM] unsigned char 
  6620 ;;  arg             4   10[COMRAM] unsigned long 
  6621 ;;  exp             1    9[COMRAM] unsigned char 
  6622 ;; Return value:  Size  Location     Type
  6623 ;;                  4    0[COMRAM] unsigned char 
  6624 ;; Registers used:
  6625 ;;		wreg, status,2, status,0
  6626 ;; Tracked objects:
  6627 ;;		On entry : 0/0
  6628 ;;		On exit  : 0/0
  6629 ;;		Unchanged: 0/0
  6630 ;; Data sizes:     COMRAM   BANK5   BANK6   BANK7   BANK8   BANK9  BANK10  BANK11  BANK12  BANK13  BANK14  BANK15  BANK1
      +6  BANK17  BANK18  BANK19  BANK20  BANK21  BANK22  BANK23  BANK24  BANK25  BANK26  BANK27  BANK28  BANK29  BANK30  BANK3
      +1  BANK32  BANK33  BANK34  BANK35  BANK36  BANK37
  6631 ;;      Params:         4       0       0       0       0       0       0       0       0       0       0       0       
      +0       0       0       0       0       0       0       0       0       0       0       0       0       0       0       
      +0       0       0       0       0       0       0
  6632 ;;      Locals:         6       0       0       0       0       0       0       0       0       0       0       0       
      +0       0       0       0       0       0       0       0       0       0       0       0       0       0       0       
      +0       0       0       0       0       0       0
  6633 ;;      Temps:          4       0       0       0       0       0       0       0       0       0       0       0       
      +0       0       0       0       0       0       0       0       0       0       0       0       0       0       0       
      +0       0       0       0       0       0       0
  6634 ;;      Totals:        14       0       0       0       0       0       0       0       0       0       0       0       
      +0       0       0       0       0       0       0       0       0       0       0       0       0       0       0       
      +0       0       0       0       0       0       0
  6635 ;;Total ram usage:       14 bytes
  6636 ;; Hardware stack levels used: 1
  6637 ;; This function calls:
  6638 ;;		Nothing
  6639 ;; This function is called by:
  6640 ;;		_strtof
  6641 ;; This function uses a non-reentrant model
  6642 ;;
  6643                           
  6644                           	psect	text37
  6645  0043C6                     __ptext37:
  6646                           	callstack 0
  6647  0043C6                     ___xxtofl:
  6648                           	callstack 115
  6649                           
  6650                           ;incstack = 0
  6651                           ;___xxtofl@sign stored from wreg
  6652  0043C6  6E09               	movwf	___xxtofl@sign^(0+1280),c
  6653  0043C8  5009               	movf	___xxtofl@sign^(0+1280),w,c
  6654  0043CA  B4D8               	btfsc	status,2,c
  6655  0043CC  EFEA  F021         	goto	i2u322_41
  6656  0043D0  EFEC  F021         	goto	i2u322_40
  6657  0043D4                     i2u322_41:
  6658  0043D4  EF0E  F022         	goto	i2l1292
  6659  0043D8                     i2u322_40:
  6660  0043D8  BE04               	btfsc	(___xxtofl@val+3)^(0+1280),7,c
  6661  0043DA  EFF3  F021         	goto	i2u323_40
  6662  0043DE  EFF1  F021         	goto	i2u323_41
  6663  0043E2                     i2u323_41:
  6664  0043E2  EF0E  F022         	goto	i2l1292
  6665  0043E6                     i2u323_40:
  6666  0043E6  C501  F505         	movff	___xxtofl@val,??___xxtofl
  6667  0043EA  C502  F506         	movff	___xxtofl@val+1,??___xxtofl+1
  6668  0043EE  C503  F507         	movff	___xxtofl@val+2,??___xxtofl+2
  6669  0043F2  C504  F508         	movff	___xxtofl@val+3,??___xxtofl+3
  6670  0043F6  1E05               	comf	??___xxtofl^(0+1280),f,c
  6671  0043F8  1E06               	comf	(??___xxtofl+1)^(0+1280),f,c
  6672  0043FA  1E07               	comf	(??___xxtofl+2)^(0+1280),f,c
  6673  0043FC  1E08               	comf	(??___xxtofl+3)^(0+1280),f,c
  6674  0043FE  2A05               	incf	??___xxtofl^(0+1280),f,c
  6675  004400  0E00               	movlw	0
  6676  004402  2206               	addwfc	(??___xxtofl+1)^(0+1280),f,c
  6677  004404  2207               	addwfc	(??___xxtofl+2)^(0+1280),f,c
  6678  004406  2208               	addwfc	(??___xxtofl+3)^(0+1280),f,c
  6679  004408  C505  F50B         	movff	??___xxtofl,___xxtofl@arg
  6680  00440C  C506  F50C         	movff	??___xxtofl+1,___xxtofl@arg+1
  6681  004410  C507  F50D         	movff	??___xxtofl+2,___xxtofl@arg+2
  6682  004414  C508  F50E         	movff	??___xxtofl+3,___xxtofl@arg+3
  6683  004418  EF16  F022         	goto	i2l3596
  6684  00441C                     i2l1292:
  6685  00441C  C501  F50B         	movff	___xxtofl@val,___xxtofl@arg
  6686  004420  C502  F50C         	movff	___xxtofl@val+1,___xxtofl@arg+1
  6687  004424  C503  F50D         	movff	___xxtofl@val+2,___xxtofl@arg+2
  6688  004428  C504  F50E         	movff	___xxtofl@val+3,___xxtofl@arg+3
  6689  00442C                     i2l3596:
  6690  00442C  5001               	movf	___xxtofl@val^(0+1280),w,c
  6691  00442E  1002               	iorwf	(___xxtofl@val+1)^(0+1280),w,c
  6692  004430  1003               	iorwf	(___xxtofl@val+2)^(0+1280),w,c
  6693  004432  1004               	iorwf	(___xxtofl@val+3)^(0+1280),w,c
  6694  004434  A4D8               	btfss	status,2,c
  6695  004436  EF1F  F022         	goto	i2u324_41
  6696  00443A  EF21  F022         	goto	i2u324_40
  6697  00443E                     i2u324_41:
  6698  00443E  EF2B  F022         	goto	i2l3602
  6699  004442                     i2u324_40:
  6700  004442  0E00               	movlw	0
  6701  004444  6E01               	movwf	?___xxtofl^(0+1280),c
  6702  004446  0E00               	movlw	0
  6703  004448  6E02               	movwf	(?___xxtofl+1)^(0+1280),c
  6704  00444A  0E00               	movlw	0
  6705  00444C  6E03               	movwf	(?___xxtofl+2)^(0+1280),c
  6706  00444E  0E00               	movlw	0
  6707  004450  6E04               	movwf	(?___xxtofl+3)^(0+1280),c
  6708  004452  EFBC  F022         	goto	i2l1295
  6709  004456                     i2l3602:
  6710  004456  0E96               	movlw	150
  6711  004458  6E0A               	movwf	___xxtofl@exp^(0+1280),c
  6712  00445A  EF35  F022         	goto	i2l3606
  6713  00445E                     i2l3604:
  6714  00445E  2A0A               	incf	___xxtofl@exp^(0+1280),f,c
  6715  004460  90D8               	bcf	status,0,c
  6716  004462  320E               	rrcf	(___xxtofl@arg+3)^(0+1280),f,c
  6717  004464  320D               	rrcf	(___xxtofl@arg+2)^(0+1280),f,c
  6718  004466  320C               	rrcf	(___xxtofl@arg+1)^(0+1280),f,c
  6719  004468  320B               	rrcf	___xxtofl@arg^(0+1280),f,c
  6720  00446A                     i2l3606:
  6721  00446A  0E00               	movlw	0
  6722  00446C  140B               	andwf	___xxtofl@arg^(0+1280),w,c
  6723  00446E  6E05               	movwf	??___xxtofl^(0+1280),c
  6724  004470  0E00               	movlw	0
  6725  004472  140C               	andwf	(___xxtofl@arg+1)^(0+1280),w,c
  6726  004474  6E06               	movwf	(??___xxtofl+1)^(0+1280),c
  6727  004476  0E00               	movlw	0
  6728  004478  140D               	andwf	(___xxtofl@arg+2)^(0+1280),w,c
  6729  00447A  6E07               	movwf	(??___xxtofl+2)^(0+1280),c
  6730  00447C  0EFE               	movlw	254
  6731  00447E  140E               	andwf	(___xxtofl@arg+3)^(0+1280),w,c
  6732  004480  6E08               	movwf	(??___xxtofl+3)^(0+1280),c
  6733  004482  5005               	movf	??___xxtofl^(0+1280),w,c
  6734  004484  1006               	iorwf	(??___xxtofl+1)^(0+1280),w,c
  6735  004486  1007               	iorwf	(??___xxtofl+2)^(0+1280),w,c
  6736  004488  1008               	iorwf	(??___xxtofl+3)^(0+1280),w,c
  6737  00448A  A4D8               	btfss	status,2,c
  6738  00448C  EF4A  F022         	goto	i2u325_41
  6739  004490  EF4C  F022         	goto	i2u325_40
  6740  004494                     i2u325_41:
  6741  004494  EF2F  F022         	goto	i2l3604
  6742  004498                     i2u325_40:
  6743  004498  EF5A  F022         	goto	i2l1299
  6744  00449C                     i2l3608:
  6745  00449C  2A0A               	incf	___xxtofl@exp^(0+1280),f,c
  6746  00449E  0E01               	movlw	1
  6747  0044A0  260B               	addwf	___xxtofl@arg^(0+1280),f,c
  6748  0044A2  0E00               	movlw	0
  6749  0044A4  220C               	addwfc	(___xxtofl@arg+1)^(0+1280),f,c
  6750  0044A6  220D               	addwfc	(___xxtofl@arg+2)^(0+1280),f,c
  6751  0044A8  220E               	addwfc	(___xxtofl@arg+3)^(0+1280),f,c
  6752  0044AA  90D8               	bcf	status,0,c
  6753  0044AC  320E               	rrcf	(___xxtofl@arg+3)^(0+1280),f,c
  6754  0044AE  320D               	rrcf	(___xxtofl@arg+2)^(0+1280),f,c
  6755  0044B0  320C               	rrcf	(___xxtofl@arg+1)^(0+1280),f,c
  6756  0044B2  320B               	rrcf	___xxtofl@arg^(0+1280),f,c
  6757  0044B4                     i2l1299:
  6758  0044B4  0E00               	movlw	0
  6759  0044B6  140B               	andwf	___xxtofl@arg^(0+1280),w,c
  6760  0044B8  6E05               	movwf	??___xxtofl^(0+1280),c
  6761  0044BA  0E00               	movlw	0
  6762  0044BC  140C               	andwf	(___xxtofl@arg+1)^(0+1280),w,c
  6763  0044BE  6E06               	movwf	(??___xxtofl+1)^(0+1280),c
  6764  0044C0  0E00               	movlw	0
  6765  0044C2  140D               	andwf	(___xxtofl@arg+2)^(0+1280),w,c
  6766  0044C4  6E07               	movwf	(??___xxtofl+2)^(0+1280),c
  6767  0044C6  0EFF               	movlw	255
  6768  0044C8  140E               	andwf	(___xxtofl@arg+3)^(0+1280),w,c
  6769  0044CA  6E08               	movwf	(??___xxtofl+3)^(0+1280),c
  6770  0044CC  5005               	movf	??___xxtofl^(0+1280),w,c
  6771  0044CE  1006               	iorwf	(??___xxtofl+1)^(0+1280),w,c
  6772  0044D0  1007               	iorwf	(??___xxtofl+2)^(0+1280),w,c
  6773  0044D2  1008               	iorwf	(??___xxtofl+3)^(0+1280),w,c
  6774  0044D4  A4D8               	btfss	status,2,c
  6775  0044D6  EF6F  F022         	goto	i2u326_41
  6776  0044DA  EF71  F022         	goto	i2u326_40
  6777  0044DE                     i2u326_41:
  6778  0044DE  EF4E  F022         	goto	i2l3608
  6779  0044E2                     i2u326_40:
  6780  0044E2  EF79  F022         	goto	i2l3616
  6781  0044E6                     i2l3614:
  6782  0044E6  060A               	decf	___xxtofl@exp^(0+1280),f,c
  6783  0044E8  90D8               	bcf	status,0,c
  6784  0044EA  360B               	rlcf	___xxtofl@arg^(0+1280),f,c
  6785  0044EC  360C               	rlcf	(___xxtofl@arg+1)^(0+1280),f,c
  6786  0044EE  360D               	rlcf	(___xxtofl@arg+2)^(0+1280),f,c
  6787  0044F0  360E               	rlcf	(___xxtofl@arg+3)^(0+1280),f,c
  6788  0044F2                     i2l3616:
  6789  0044F2  BE0D               	btfsc	(___xxtofl@arg+2)^(0+1280),7,c
  6790  0044F4  EF7E  F022         	goto	i2u327_41
  6791  0044F8  EF80  F022         	goto	i2u327_40
  6792  0044FC                     i2u327_41:
  6793  0044FC  EF88  F022         	goto	i2l1306
  6794  004500                     i2u327_40:
  6795  004500  0E02               	movlw	2
  6796  004502  600A               	cpfslt	___xxtofl@exp^(0+1280),c
  6797  004504  EF86  F022         	goto	i2u328_41
  6798  004508  EF88  F022         	goto	i2u328_40
  6799  00450C                     i2u328_41:
  6800  00450C  EF73  F022         	goto	i2l3614
  6801  004510                     i2u328_40:
  6802  004510                     i2l1306:
  6803  004510  B00A               	btfsc	___xxtofl@exp^(0+1280),0,c
  6804  004512  EF8D  F022         	goto	i2u329_41
  6805  004516  EF8F  F022         	goto	i2u329_40
  6806  00451A                     i2u329_41:
  6807  00451A  EF90  F022         	goto	i2l3622
  6808  00451E                     i2u329_40:
  6809  00451E  9E0D               	bcf	(___xxtofl@arg+2)^(0+1280),7,c
  6810  004520                     i2l3622:
  6811  004520  90D8               	bcf	status,0,c
  6812  004522  320A               	rrcf	___xxtofl@exp^(0+1280),f,c
  6813  004524  C50A  F505         	movff	___xxtofl@exp,??___xxtofl
  6814  004528  6A06               	clrf	(??___xxtofl+1)^(0+1280),c
  6815  00452A  6A07               	clrf	(??___xxtofl+2)^(0+1280),c
  6816  00452C  6A08               	clrf	(??___xxtofl+3)^(0+1280),c
  6817  00452E  C505  F508         	movff	??___xxtofl,??___xxtofl+3
  6818  004532  6A07               	clrf	(??___xxtofl+2)^(0+1280),c
  6819  004534  6A06               	clrf	(??___xxtofl+1)^(0+1280),c
  6820  004536  6A05               	clrf	??___xxtofl^(0+1280),c
  6821  004538  5005               	movf	??___xxtofl^(0+1280),w,c
  6822  00453A  120B               	iorwf	___xxtofl@arg^(0+1280),f,c
  6823  00453C  5006               	movf	(??___xxtofl+1)^(0+1280),w,c
  6824  00453E  120C               	iorwf	(___xxtofl@arg+1)^(0+1280),f,c
  6825  004540  5007               	movf	(??___xxtofl+2)^(0+1280),w,c
  6826  004542  120D               	iorwf	(___xxtofl@arg+2)^(0+1280),f,c
  6827  004544  5008               	movf	(??___xxtofl+3)^(0+1280),w,c
  6828  004546  120E               	iorwf	(___xxtofl@arg+3)^(0+1280),f,c
  6829  004548  5009               	movf	___xxtofl@sign^(0+1280),w,c
  6830  00454A  B4D8               	btfsc	status,2,c
  6831  00454C  EFAA  F022         	goto	i2u330_41
  6832  004550  EFAC  F022         	goto	i2u330_40
  6833  004554                     i2u330_41:
  6834  004554  EFB4  F022         	goto	i2l3632
  6835  004558                     i2u330_40:
  6836  004558  BE04               	btfsc	(___xxtofl@val+3)^(0+1280),7,c
  6837  00455A  EFB3  F022         	goto	i2u331_40
  6838  00455E  EFB1  F022         	goto	i2u331_41
  6839  004562                     i2u331_41:
  6840  004562  EFB4  F022         	goto	i2l3632
  6841  004566                     i2u331_40:
  6842  004566  8E0E               	bsf	(___xxtofl@arg+3)^(0+1280),7,c
  6843  004568                     i2l3632:
  6844  004568  C50B  F501         	movff	___xxtofl@arg,?___xxtofl
  6845  00456C  C50C  F502         	movff	___xxtofl@arg+1,?___xxtofl+1
  6846  004570  C50D  F503         	movff	___xxtofl@arg+2,?___xxtofl+2
  6847  004574  C50E  F504         	movff	___xxtofl@arg+3,?___xxtofl+3
  6848  004578                     i2l1295:
  6849  004578  0012               	return		;funcret
  6850  00457A                     __end_of___xxtofl:
  6851                           	callstack 0
  6852                           
  6853 ;; *************** function ___wmul *****************
  6854 ;; Defined at:
  6855 ;;		line 15 in file "C:\Program Files\Microchip\xc8\v2.32\pic\sources\c99\common\Umul16.c"
  6856 ;; Parameters:    Size  Location     Type
  6857 ;;  multiplier      2    0[COMRAM] unsigned int 
  6858 ;;  multiplicand    2    2[COMRAM] unsigned int 
  6859 ;; Auto vars:     Size  Location     Type
  6860 ;;  product         2    4[COMRAM] unsigned int 
  6861 ;; Return value:  Size  Location     Type
  6862 ;;                  2    0[COMRAM] unsigned int 
  6863 ;; Registers used:
  6864 ;;		wreg, status,2, status,0, prodl, prodh
  6865 ;; Tracked objects:
  6866 ;;		On entry : 0/0
  6867 ;;		On exit  : 0/0
  6868 ;;		Unchanged: 0/0
  6869 ;; Data sizes:     COMRAM   BANK5   BANK6   BANK7   BANK8   BANK9  BANK10  BANK11  BANK12  BANK13  BANK14  BANK15  BANK1
      +6  BANK17  BANK18  BANK19  BANK20  BANK21  BANK22  BANK23  BANK24  BANK25  BANK26  BANK27  BANK28  BANK29  BANK30  BANK3
      +1  BANK32  BANK33  BANK34  BANK35  BANK36  BANK37
  6870 ;;      Params:         4       0       0       0       0       0       0       0       0       0       0       0       
      +0       0       0       0       0       0       0       0       0       0       0       0       0       0       0       
      +0       0       0       0       0       0       0
  6871 ;;      Locals:         2       0       0       0       0       0       0       0       0       0       0       0       
      +0       0       0       0       0       0       0       0       0       0       0       0       0       0       0       
      +0       0       0       0       0       0       0
  6872 ;;      Temps:          0       0       0       0       0       0       0       0       0       0       0       0       
      +0       0       0       0       0       0       0       0       0       0       0       0       0       0       0       
      +0       0       0       0       0       0       0
  6873 ;;      Totals:         6       0       0       0       0       0       0       0       0       0       0       0       
      +0       0       0       0       0       0       0       0       0       0       0       0       0       0       0       
      +0       0       0       0       0       0       0
  6874 ;;Total ram usage:        6 bytes
  6875 ;; Hardware stack levels used: 1
  6876 ;; This function calls:
  6877 ;;		Nothing
  6878 ;; This function is called by:
  6879 ;;		_strtof
  6880 ;; This function uses a non-reentrant model
  6881 ;;
  6882                           
  6883                           	psect	text38
  6884  005310                     __ptext38:
  6885                           	callstack 0
  6886  005310                     ___wmul:
  6887                           	callstack 115
  6888  005310  5001               	movf	___wmul@multiplier^(0+1280),w,c
  6889  005312  0203               	mulwf	___wmul@multiplicand^(0+1280),c
  6890  005314  0061 F3CC  F505    	movff	prodl,___wmul@product
  6891  00531A  0061 F3D0  F506    	movff	prodh,___wmul@product+1
  6892  005320  5001               	movf	___wmul@multiplier^(0+1280),w,c
  6893  005322  0204               	mulwf	(___wmul@multiplicand+1)^(0+1280),c
  6894  005324  50F3               	movf	243,w,c
  6895  005326  2606               	addwf	(___wmul@product+1)^(0+1280),f,c
  6896  005328  5002               	movf	(___wmul@multiplier+1)^(0+1280),w,c
  6897  00532A  0203               	mulwf	___wmul@multiplicand^(0+1280),c
  6898  00532C  50F3               	movf	243,w,c
  6899  00532E  2606               	addwf	(___wmul@product+1)^(0+1280),f,c
  6900  005330  C505  F501         	movff	___wmul@product,?___wmul
  6901  005334  C506  F502         	movff	___wmul@product+1,?___wmul+1
  6902  005338  0012               	return		;funcret
  6903  00533A                     __end_of___wmul:
  6904                           	callstack 0
  6905                           
  6906 ;; *************** function ___lmul *****************
  6907 ;; Defined at:
  6908 ;;		line 15 in file "C:\Program Files\Microchip\xc8\v2.32\pic\sources\c99\common\Umul32.c"
  6909 ;; Parameters:    Size  Location     Type
  6910 ;;  multiplier      4    0[COMRAM] unsigned long 
  6911 ;;  multiplicand    4    4[COMRAM] unsigned long 
  6912 ;; Auto vars:     Size  Location     Type
  6913 ;;  product         4    8[COMRAM] unsigned long 
  6914 ;; Return value:  Size  Location     Type
  6915 ;;                  4    0[COMRAM] unsigned long 
  6916 ;; Registers used:
  6917 ;;		wreg, status,2, status,0
  6918 ;; Tracked objects:
  6919 ;;		On entry : 0/0
  6920 ;;		On exit  : 0/0
  6921 ;;		Unchanged: 0/0
  6922 ;; Data sizes:     COMRAM   BANK5   BANK6   BANK7   BANK8   BANK9  BANK10  BANK11  BANK12  BANK13  BANK14  BANK15  BANK1
      +6  BANK17  BANK18  BANK19  BANK20  BANK21  BANK22  BANK23  BANK24  BANK25  BANK26  BANK27  BANK28  BANK29  BANK30  BANK3
      +1  BANK32  BANK33  BANK34  BANK35  BANK36  BANK37
  6923 ;;      Params:         8       0       0       0       0       0       0       0       0       0       0       0       
      +0       0       0       0       0       0       0       0       0       0       0       0       0       0       0       
      +0       0       0       0       0       0       0
  6924 ;;      Locals:         4       0       0       0       0       0       0       0       0       0       0       0       
      +0       0       0       0       0       0       0       0       0       0       0       0       0       0       0       
      +0       0       0       0       0       0       0
  6925 ;;      Temps:          0       0       0       0       0       0       0       0       0       0       0       0       
      +0       0       0       0       0       0       0       0       0       0       0       0       0       0       0       
      +0       0       0       0       0       0       0
  6926 ;;      Totals:        12       0       0       0       0       0       0       0       0       0       0       0       
      +0       0       0       0       0       0       0       0       0       0       0       0       0       0       0       
      +0       0       0       0       0       0       0
  6927 ;;Total ram usage:       12 bytes
  6928 ;; Hardware stack levels used: 1
  6929 ;; This function calls:
  6930 ;;		Nothing
  6931 ;; This function is called by:
  6932 ;;		_strtof
  6933 ;; This function uses a non-reentrant model
  6934 ;;
  6935                           
  6936                           	psect	text39
  6937  004F76                     __ptext39:
  6938                           	callstack 0
  6939  004F76                     ___lmul:
  6940                           	callstack 115
  6941  004F76  0E00               	movlw	0
  6942  004F78  6E09               	movwf	___lmul@product^(0+1280),c
  6943  004F7A  0E00               	movlw	0
  6944  004F7C  6E0A               	movwf	(___lmul@product+1)^(0+1280),c
  6945  004F7E  0E00               	movlw	0
  6946  004F80  6E0B               	movwf	(___lmul@product+2)^(0+1280),c
  6947  004F82  0E00               	movlw	0
  6948  004F84  6E0C               	movwf	(___lmul@product+3)^(0+1280),c
  6949  004F86                     i2l3268:
  6950  004F86  A001               	btfss	___lmul@multiplier^(0+1280),0,c
  6951  004F88  EFC8  F027         	goto	i2u269_41
  6952  004F8C  EFCA  F027         	goto	i2u269_40
  6953  004F90                     i2u269_41:
  6954  004F90  EFD2  F027         	goto	i2l3272
  6955  004F94                     i2u269_40:
  6956  004F94  5005               	movf	___lmul@multiplicand^(0+1280),w,c
  6957  004F96  2609               	addwf	___lmul@product^(0+1280),f,c
  6958  004F98  5006               	movf	(___lmul@multiplicand+1)^(0+1280),w,c
  6959  004F9A  220A               	addwfc	(___lmul@product+1)^(0+1280),f,c
  6960  004F9C  5007               	movf	(___lmul@multiplicand+2)^(0+1280),w,c
  6961  004F9E  220B               	addwfc	(___lmul@product+2)^(0+1280),f,c
  6962  004FA0  5008               	movf	(___lmul@multiplicand+3)^(0+1280),w,c
  6963  004FA2  220C               	addwfc	(___lmul@product+3)^(0+1280),f,c
  6964  004FA4                     i2l3272:
  6965  004FA4  90D8               	bcf	status,0,c
  6966  004FA6  3605               	rlcf	___lmul@multiplicand^(0+1280),f,c
  6967  004FA8  3606               	rlcf	(___lmul@multiplicand+1)^(0+1280),f,c
  6968  004FAA  3607               	rlcf	(___lmul@multiplicand+2)^(0+1280),f,c
  6969  004FAC  3608               	rlcf	(___lmul@multiplicand+3)^(0+1280),f,c
  6970  004FAE  90D8               	bcf	status,0,c
  6971  004FB0  3204               	rrcf	(___lmul@multiplier+3)^(0+1280),f,c
  6972  004FB2  3203               	rrcf	(___lmul@multiplier+2)^(0+1280),f,c
  6973  004FB4  3202               	rrcf	(___lmul@multiplier+1)^(0+1280),f,c
  6974  004FB6  3201               	rrcf	___lmul@multiplier^(0+1280),f,c
  6975  004FB8  5001               	movf	___lmul@multiplier^(0+1280),w,c
  6976  004FBA  1002               	iorwf	(___lmul@multiplier+1)^(0+1280),w,c
  6977  004FBC  1003               	iorwf	(___lmul@multiplier+2)^(0+1280),w,c
  6978  004FBE  1004               	iorwf	(___lmul@multiplier+3)^(0+1280),w,c
  6979  004FC0  A4D8               	btfss	status,2,c
  6980  004FC2  EFE5  F027         	goto	i2u270_41
  6981  004FC6  EFE7  F027         	goto	i2u270_40
  6982  004FCA                     i2u270_41:
  6983  004FCA  EFC3  F027         	goto	i2l3268
  6984  004FCE                     i2u270_40:
  6985  004FCE  C509  F501         	movff	___lmul@product,?___lmul
  6986  004FD2  C50A  F502         	movff	___lmul@product+1,?___lmul+1
  6987  004FD6  C50B  F503         	movff	___lmul@product+2,?___lmul+2
  6988  004FDA  C50C  F504         	movff	___lmul@product+3,?___lmul+3
  6989  004FDE  0012               	return		;funcret
  6990  004FE0                     __end_of___lmul:
  6991                           	callstack 0
  6992                           
  6993 ;; *************** function ___flneg *****************
  6994 ;; Defined at:
  6995 ;;		line 15 in file "C:\Program Files\Microchip\xc8\v2.32\pic\sources\c99\common\flneg.c"
  6996 ;; Parameters:    Size  Location     Type
  6997 ;;  f1              4    0[COMRAM] unsigned long 
  6998 ;; Auto vars:     Size  Location     Type
  6999 ;;		None
  7000 ;; Return value:  Size  Location     Type
  7001 ;;                  4    0[COMRAM] unsigned long 
  7002 ;; Registers used:
  7003 ;;		wreg, status,2, status,0
  7004 ;; Tracked objects:
  7005 ;;		On entry : 0/0
  7006 ;;		On exit  : 0/0
  7007 ;;		Unchanged: 0/0
  7008 ;; Data sizes:     COMRAM   BANK5   BANK6   BANK7   BANK8   BANK9  BANK10  BANK11  BANK12  BANK13  BANK14  BANK15  BANK1
      +6  BANK17  BANK18  BANK19  BANK20  BANK21  BANK22  BANK23  BANK24  BANK25  BANK26  BANK27  BANK28  BANK29  BANK30  BANK3
      +1  BANK32  BANK33  BANK34  BANK35  BANK36  BANK37
  7009 ;;      Params:         4       0       0       0       0       0       0       0       0       0       0       0       
      +0       0       0       0       0       0       0       0       0       0       0       0       0       0       0       
      +0       0       0       0       0       0       0
  7010 ;;      Locals:         0       0       0       0       0       0       0       0       0       0       0       0       
      +0       0       0       0       0       0       0       0       0       0       0       0       0       0       0       
      +0       0       0       0       0       0       0
  7011 ;;      Temps:          0       0       0       0       0       0       0       0       0       0       0       0       
      +0       0       0       0       0       0       0       0       0       0       0       0       0       0       0       
      +0       0       0       0       0       0       0
  7012 ;;      Totals:         4       0       0       0       0       0       0       0       0       0       0       0       
      +0       0       0       0       0       0       0       0       0       0       0       0       0       0       0       
      +0       0       0       0       0       0       0
  7013 ;;Total ram usage:        4 bytes
  7014 ;; Hardware stack levels used: 1
  7015 ;; This function calls:
  7016 ;;		Nothing
  7017 ;; This function is called by:
  7018 ;;		_strtof
  7019 ;; This function uses a non-reentrant model
  7020 ;;
  7021                           
  7022                           	psect	text40
  7023  00527A                     __ptext40:
  7024                           	callstack 0
  7025  00527A                     ___flneg:
  7026                           	callstack 115
  7027  00527A  5001               	movf	___flneg@f1^(0+1280),w,c
  7028  00527C  1002               	iorwf	(___flneg@f1+1)^(0+1280),w,c
  7029  00527E  1003               	iorwf	(___flneg@f1+2)^(0+1280),w,c
  7030  005280  1004               	iorwf	(___flneg@f1+3)^(0+1280),w,c
  7031  005282  B4D8               	btfsc	status,2,c
  7032  005284  EF46  F029         	goto	i2u321_41
  7033  005288  EF48  F029         	goto	i2u321_40
  7034  00528C                     i2u321_41:
  7035  00528C  EF50  F029         	goto	i2l3586
  7036  005290                     i2u321_40:
  7037  005290  0E00               	movlw	0
  7038  005292  1A01               	xorwf	___flneg@f1^(0+1280),f,c
  7039  005294  0E00               	movlw	0
  7040  005296  1A02               	xorwf	(___flneg@f1+1)^(0+1280),f,c
  7041  005298  0E00               	movlw	0
  7042  00529A  1A03               	xorwf	(___flneg@f1+2)^(0+1280),f,c
  7043  00529C  0E80               	movlw	128
  7044  00529E  1A04               	xorwf	(___flneg@f1+3)^(0+1280),f,c
  7045  0052A0                     i2l3586:
  7046  0052A0  C501  F501         	movff	___flneg@f1,?___flneg
  7047  0052A4  C502  F502         	movff	___flneg@f1+1,?___flneg+1
  7048  0052A8  C503  F503         	movff	___flneg@f1+2,?___flneg+2
  7049  0052AC  C504  F504         	movff	___flneg@f1+3,?___flneg+3
  7050  0052B0  0012               	return		;funcret
  7051  0052B2                     __end_of___flneg:
  7052                           	callstack 0
  7053                           
  7054 ;; *************** function ___flmul *****************
  7055 ;; Defined at:
  7056 ;;		line 8 in file "C:\Program Files\Microchip\xc8\v2.32\pic\sources\c99\common\sprcmul.c"
  7057 ;; Parameters:    Size  Location     Type
  7058 ;;  b               4    0[COMRAM] unsigned long 
  7059 ;;  a               4    4[COMRAM] unsigned long 
  7060 ;; Auto vars:     Size  Location     Type
  7061 ;;  prod            4   19[COMRAM] struct .
  7062 ;;  grs             4   13[COMRAM] unsigned long 
  7063 ;;  temp            2   23[COMRAM] struct .
  7064 ;;  bexp            1   18[COMRAM] unsigned char 
  7065 ;;  aexp            1   17[COMRAM] unsigned char 
  7066 ;;  sign            1   12[COMRAM] unsigned char 
  7067 ;; Return value:  Size  Location     Type
  7068 ;;                  4    0[COMRAM] unsigned char 
  7069 ;; Registers used:
  7070 ;;		wreg, status,2, status,0, prodl, prodh
  7071 ;; Tracked objects:
  7072 ;;		On entry : 0/0
  7073 ;;		On exit  : 0/0
  7074 ;;		Unchanged: 0/0
  7075 ;; Data sizes:     COMRAM   BANK5   BANK6   BANK7   BANK8   BANK9  BANK10  BANK11  BANK12  BANK13  BANK14  BANK15  BANK1
      +6  BANK17  BANK18  BANK19  BANK20  BANK21  BANK22  BANK23  BANK24  BANK25  BANK26  BANK27  BANK28  BANK29  BANK30  BANK3
      +1  BANK32  BANK33  BANK34  BANK35  BANK36  BANK37
  7076 ;;      Params:         8       0       0       0       0       0       0       0       0       0       0       0       
      +0       0       0       0       0       0       0       0       0       0       0       0       0       0       0       
      +0       0       0       0       0       0       0
  7077 ;;      Locals:        13       0       0       0       0       0       0       0       0       0       0       0       
      +0       0       0       0       0       0       0       0       0       0       0       0       0       0       0       
      +0       0       0       0       0       0       0
  7078 ;;      Temps:          4       0       0       0       0       0       0       0       0       0       0       0       
      +0       0       0       0       0       0       0       0       0       0       0       0       0       0       0       
      +0       0       0       0       0       0       0
  7079 ;;      Totals:        25       0       0       0       0       0       0       0       0       0       0       0       
      +0       0       0       0       0       0       0       0       0       0       0       0       0       0       0       
      +0       0       0       0       0       0       0
  7080 ;;Total ram usage:       25 bytes
  7081 ;; Hardware stack levels used: 1
  7082 ;; This function calls:
  7083 ;;		Nothing
  7084 ;; This function is called by:
  7085 ;;		_strtof
  7086 ;; This function uses a non-reentrant model
  7087 ;;
  7088                           
  7089                           	psect	text41
  7090  0037FE                     __ptext41:
  7091                           	callstack 0
  7092  0037FE                     ___flmul:
  7093                           	callstack 115
  7094  0037FE  5004               	movf	(___flmul@b+3)^(0+1280),w,c
  7095  003800  0B80               	andlw	128
  7096  003802  6E0D               	movwf	___flmul@sign^(0+1280),c
  7097  003804  5004               	movf	(___flmul@b+3)^(0+1280),w,c
  7098  003806  2404               	addwf	(___flmul@b+3)^(0+1280),w,c
  7099  003808  6E13               	movwf	___flmul@bexp^(0+1280),c
  7100  00380A  AE03               	btfss	(___flmul@b+2)^(0+1280),7,c
  7101  00380C  EF0A  F01C         	goto	i2u294_41
  7102  003810  EF0C  F01C         	goto	i2u294_40
  7103  003814                     i2u294_41:
  7104  003814  EF0D  F01C         	goto	i2l3420
  7105  003818                     i2u294_40:
  7106  003818  8013               	bsf	___flmul@bexp^(0+1280),0,c
  7107  00381A                     i2l3420:
  7108  00381A  5013               	movf	___flmul@bexp^(0+1280),w,c
  7109  00381C  B4D8               	btfsc	status,2,c
  7110  00381E  EF13  F01C         	goto	i2u295_41
  7111  003822  EF15  F01C         	goto	i2u295_40
  7112  003826                     i2u295_41:
  7113  003826  EF28  F01C         	goto	i2l3428
  7114  00382A                     i2u295_40:
  7115  00382A  2813               	incf	___flmul@bexp^(0+1280),w,c
  7116  00382C  A4D8               	btfss	status,2,c
  7117  00382E  EF1B  F01C         	goto	i2u296_41
  7118  003832  EF1D  F01C         	goto	i2u296_40
  7119  003836                     i2u296_41:
  7120  003836  EF25  F01C         	goto	i2l3426
  7121  00383A                     i2u296_40:
  7122  00383A  0E00               	movlw	0
  7123  00383C  6E01               	movwf	___flmul@b^(0+1280),c
  7124  00383E  0E00               	movlw	0
  7125  003840  6E02               	movwf	(___flmul@b+1)^(0+1280),c
  7126  003842  0E00               	movlw	0
  7127  003844  6E03               	movwf	(___flmul@b+2)^(0+1280),c
  7128  003846  0E00               	movlw	0
  7129  003848  6E04               	movwf	(___flmul@b+3)^(0+1280),c
  7130  00384A                     i2l3426:
  7131  00384A  8E03               	bsf	(___flmul@b+2)^(0+1280),7,c
  7132  00384C  EF30  F01C         	goto	i2l3430
  7133  003850                     i2l3428:
  7134  003850  0E00               	movlw	0
  7135  003852  6E01               	movwf	___flmul@b^(0+1280),c
  7136  003854  0E00               	movlw	0
  7137  003856  6E02               	movwf	(___flmul@b+1)^(0+1280),c
  7138  003858  0E00               	movlw	0
  7139  00385A  6E03               	movwf	(___flmul@b+2)^(0+1280),c
  7140  00385C  0E00               	movlw	0
  7141  00385E  6E04               	movwf	(___flmul@b+3)^(0+1280),c
  7142  003860                     i2l3430:
  7143  003860  5008               	movf	(___flmul@a+3)^(0+1280),w,c
  7144  003862  0B80               	andlw	128
  7145  003864  1A0D               	xorwf	___flmul@sign^(0+1280),f,c
  7146  003866  5008               	movf	(___flmul@a+3)^(0+1280),w,c
  7147  003868  2408               	addwf	(___flmul@a+3)^(0+1280),w,c
  7148  00386A  6E12               	movwf	___flmul@aexp^(0+1280),c
  7149  00386C  AE07               	btfss	(___flmul@a+2)^(0+1280),7,c
  7150  00386E  EF3B  F01C         	goto	i2u297_41
  7151  003872  EF3D  F01C         	goto	i2u297_40
  7152  003876                     i2u297_41:
  7153  003876  EF3E  F01C         	goto	i2l3438
  7154  00387A                     i2u297_40:
  7155  00387A  8012               	bsf	___flmul@aexp^(0+1280),0,c
  7156  00387C                     i2l3438:
  7157  00387C  5012               	movf	___flmul@aexp^(0+1280),w,c
  7158  00387E  B4D8               	btfsc	status,2,c
  7159  003880  EF44  F01C         	goto	i2u298_41
  7160  003884  EF46  F01C         	goto	i2u298_40
  7161  003888                     i2u298_41:
  7162  003888  EF59  F01C         	goto	i2l3446
  7163  00388C                     i2u298_40:
  7164  00388C  2812               	incf	___flmul@aexp^(0+1280),w,c
  7165  00388E  A4D8               	btfss	status,2,c
  7166  003890  EF4C  F01C         	goto	i2u299_41
  7167  003894  EF4E  F01C         	goto	i2u299_40
  7168  003898                     i2u299_41:
  7169  003898  EF56  F01C         	goto	i2l3444
  7170  00389C                     i2u299_40:
  7171  00389C  0E00               	movlw	0
  7172  00389E  6E05               	movwf	___flmul@a^(0+1280),c
  7173  0038A0  0E00               	movlw	0
  7174  0038A2  6E06               	movwf	(___flmul@a+1)^(0+1280),c
  7175  0038A4  0E00               	movlw	0
  7176  0038A6  6E07               	movwf	(___flmul@a+2)^(0+1280),c
  7177  0038A8  0E00               	movlw	0
  7178  0038AA  6E08               	movwf	(___flmul@a+3)^(0+1280),c
  7179  0038AC                     i2l3444:
  7180  0038AC  8E07               	bsf	(___flmul@a+2)^(0+1280),7,c
  7181  0038AE  EF61  F01C         	goto	i2l1251
  7182  0038B2                     i2l3446:
  7183  0038B2  0E00               	movlw	0
  7184  0038B4  6E05               	movwf	___flmul@a^(0+1280),c
  7185  0038B6  0E00               	movlw	0
  7186  0038B8  6E06               	movwf	(___flmul@a+1)^(0+1280),c
  7187  0038BA  0E00               	movlw	0
  7188  0038BC  6E07               	movwf	(___flmul@a+2)^(0+1280),c
  7189  0038BE  0E00               	movlw	0
  7190  0038C0  6E08               	movwf	(___flmul@a+3)^(0+1280),c
  7191  0038C2                     i2l1251:
  7192  0038C2  5012               	movf	___flmul@aexp^(0+1280),w,c
  7193  0038C4  B4D8               	btfsc	status,2,c
  7194  0038C6  EF67  F01C         	goto	i2u300_41
  7195  0038CA  EF69  F01C         	goto	i2u300_40
  7196  0038CE                     i2u300_41:
  7197  0038CE  EF71  F01C         	goto	i2l3450
  7198  0038D2                     i2u300_40:
  7199  0038D2  5013               	movf	___flmul@bexp^(0+1280),w,c
  7200  0038D4  A4D8               	btfss	status,2,c
  7201  0038D6  EF6F  F01C         	goto	i2u301_41
  7202  0038DA  EF71  F01C         	goto	i2u301_40
  7203  0038DE                     i2u301_41:
  7204  0038DE  EF7B  F01C         	goto	i2l3454
  7205  0038E2                     i2u301_40:
  7206  0038E2                     i2l3450:
  7207  0038E2  0E00               	movlw	0
  7208  0038E4  6E01               	movwf	?___flmul^(0+1280),c
  7209  0038E6  0E00               	movlw	0
  7210  0038E8  6E02               	movwf	(?___flmul+1)^(0+1280),c
  7211  0038EA  0E00               	movlw	0
  7212  0038EC  6E03               	movwf	(?___flmul+2)^(0+1280),c
  7213  0038EE  0E00               	movlw	0
  7214  0038F0  6E04               	movwf	(?___flmul+3)^(0+1280),c
  7215  0038F2  EF25  F01E         	goto	i2l1255
  7216  0038F6                     i2l3454:
  7217  0038F6  5007               	movf	(___flmul@a+2)^(0+1280),w,c
  7218  0038F8  0201               	mulwf	___flmul@b^(0+1280),c
  7219  0038FA  0061 F3CC  F518    	movff	prodl,___flmul@temp
  7220  003900  0061 F3D0  F519    	movff	prodh,___flmul@temp+1
  7221  003906  5018               	movf	___flmul@temp^(0+1280),w,c
  7222  003908  6E0E               	movwf	___flmul@grs^(0+1280),c
  7223  00390A  6A0F               	clrf	(___flmul@grs+1)^(0+1280),c
  7224  00390C  6A10               	clrf	(___flmul@grs+2)^(0+1280),c
  7225  00390E  6A11               	clrf	(___flmul@grs+3)^(0+1280),c
  7226  003910  5019               	movf	(___flmul@temp+1)^(0+1280),w,c
  7227  003912  6E14               	movwf	___flmul@prod^(0+1280),c
  7228  003914  6A15               	clrf	(___flmul@prod+1)^(0+1280),c
  7229  003916  6A16               	clrf	(___flmul@prod+2)^(0+1280),c
  7230  003918  6A17               	clrf	(___flmul@prod+3)^(0+1280),c
  7231  00391A  5006               	movf	(___flmul@a+1)^(0+1280),w,c
  7232  00391C  0202               	mulwf	(___flmul@b+1)^(0+1280),c
  7233  00391E  0061 F3CC  F518    	movff	prodl,___flmul@temp
  7234  003924  0061 F3D0  F519    	movff	prodh,___flmul@temp+1
  7235  00392A  5018               	movf	___flmul@temp^(0+1280),w,c
  7236  00392C  260E               	addwf	___flmul@grs^(0+1280),f,c
  7237  00392E  0E00               	movlw	0
  7238  003930  220F               	addwfc	(___flmul@grs+1)^(0+1280),f,c
  7239  003932  2210               	addwfc	(___flmul@grs+2)^(0+1280),f,c
  7240  003934  2211               	addwfc	(___flmul@grs+3)^(0+1280),f,c
  7241  003936  5019               	movf	(___flmul@temp+1)^(0+1280),w,c
  7242  003938  2614               	addwf	___flmul@prod^(0+1280),f,c
  7243  00393A  0E00               	movlw	0
  7244  00393C  2215               	addwfc	(___flmul@prod+1)^(0+1280),f,c
  7245  00393E  2216               	addwfc	(___flmul@prod+2)^(0+1280),f,c
  7246  003940  2217               	addwfc	(___flmul@prod+3)^(0+1280),f,c
  7247  003942  5005               	movf	___flmul@a^(0+1280),w,c
  7248  003944  0203               	mulwf	(___flmul@b+2)^(0+1280),c
  7249  003946  0061 F3CC  F518    	movff	prodl,___flmul@temp
  7250  00394C  0061 F3D0  F519    	movff	prodh,___flmul@temp+1
  7251  003952  5018               	movf	___flmul@temp^(0+1280),w,c
  7252  003954  260E               	addwf	___flmul@grs^(0+1280),f,c
  7253  003956  0E00               	movlw	0
  7254  003958  220F               	addwfc	(___flmul@grs+1)^(0+1280),f,c
  7255  00395A  2210               	addwfc	(___flmul@grs+2)^(0+1280),f,c
  7256  00395C  2211               	addwfc	(___flmul@grs+3)^(0+1280),f,c
  7257  00395E  5019               	movf	(___flmul@temp+1)^(0+1280),w,c
  7258  003960  2614               	addwf	___flmul@prod^(0+1280),f,c
  7259  003962  0E00               	movlw	0
  7260  003964  2215               	addwfc	(___flmul@prod+1)^(0+1280),f,c
  7261  003966  2216               	addwfc	(___flmul@prod+2)^(0+1280),f,c
  7262  003968  2217               	addwfc	(___flmul@prod+3)^(0+1280),f,c
  7263  00396A  C510  F511         	movff	___flmul@grs+2,___flmul@grs+3
  7264  00396E  C50F  F510         	movff	___flmul@grs+1,___flmul@grs+2
  7265  003972  C50E  F50F         	movff	___flmul@grs,___flmul@grs+1
  7266  003976  6A0E               	clrf	___flmul@grs^(0+1280),c
  7267  003978  5005               	movf	___flmul@a^(0+1280),w,c
  7268  00397A  0202               	mulwf	(___flmul@b+1)^(0+1280),c
  7269  00397C  0061 F3CC  F518    	movff	prodl,___flmul@temp
  7270  003982  0061 F3D0  F519    	movff	prodh,___flmul@temp+1
  7271  003988  5018               	movf	___flmul@temp^(0+1280),w,c
  7272  00398A  260E               	addwf	___flmul@grs^(0+1280),f,c
  7273  00398C  5019               	movf	(___flmul@temp+1)^(0+1280),w,c
  7274  00398E  220F               	addwfc	(___flmul@grs+1)^(0+1280),f,c
  7275  003990  0E00               	movlw	0
  7276  003992  2210               	addwfc	(___flmul@grs+2)^(0+1280),f,c
  7277  003994  0E00               	movlw	0
  7278  003996  2211               	addwfc	(___flmul@grs+3)^(0+1280),f,c
  7279  003998  5006               	movf	(___flmul@a+1)^(0+1280),w,c
  7280  00399A  0201               	mulwf	___flmul@b^(0+1280),c
  7281  00399C  0061 F3CC  F518    	movff	prodl,___flmul@temp
  7282  0039A2  0061 F3D0  F519    	movff	prodh,___flmul@temp+1
  7283  0039A8  5018               	movf	___flmul@temp^(0+1280),w,c
  7284  0039AA  260E               	addwf	___flmul@grs^(0+1280),f,c
  7285  0039AC  5019               	movf	(___flmul@temp+1)^(0+1280),w,c
  7286  0039AE  220F               	addwfc	(___flmul@grs+1)^(0+1280),f,c
  7287  0039B0  0E00               	movlw	0
  7288  0039B2  2210               	addwfc	(___flmul@grs+2)^(0+1280),f,c
  7289  0039B4  0E00               	movlw	0
  7290  0039B6  2211               	addwfc	(___flmul@grs+3)^(0+1280),f,c
  7291  0039B8  C510  F511         	movff	___flmul@grs+2,___flmul@grs+3
  7292  0039BC  C50F  F510         	movff	___flmul@grs+1,___flmul@grs+2
  7293  0039C0  C50E  F50F         	movff	___flmul@grs,___flmul@grs+1
  7294  0039C4  6A0E               	clrf	___flmul@grs^(0+1280),c
  7295  0039C6  5005               	movf	___flmul@a^(0+1280),w,c
  7296  0039C8  0201               	mulwf	___flmul@b^(0+1280),c
  7297  0039CA  0061 F3CC  F518    	movff	prodl,___flmul@temp
  7298  0039D0  0061 F3D0  F519    	movff	prodh,___flmul@temp+1
  7299  0039D6  5018               	movf	___flmul@temp^(0+1280),w,c
  7300  0039D8  260E               	addwf	___flmul@grs^(0+1280),f,c
  7301  0039DA  5019               	movf	(___flmul@temp+1)^(0+1280),w,c
  7302  0039DC  220F               	addwfc	(___flmul@grs+1)^(0+1280),f,c
  7303  0039DE  0E00               	movlw	0
  7304  0039E0  2210               	addwfc	(___flmul@grs+2)^(0+1280),f,c
  7305  0039E2  0E00               	movlw	0
  7306  0039E4  2211               	addwfc	(___flmul@grs+3)^(0+1280),f,c
  7307  0039E6  5007               	movf	(___flmul@a+2)^(0+1280),w,c
  7308  0039E8  0202               	mulwf	(___flmul@b+1)^(0+1280),c
  7309  0039EA  0061 F3CC  F518    	movff	prodl,___flmul@temp
  7310  0039F0  0061 F3D0  F519    	movff	prodh,___flmul@temp+1
  7311  0039F6  5018               	movf	___flmul@temp^(0+1280),w,c
  7312  0039F8  2614               	addwf	___flmul@prod^(0+1280),f,c
  7313  0039FA  5019               	movf	(___flmul@temp+1)^(0+1280),w,c
  7314  0039FC  2215               	addwfc	(___flmul@prod+1)^(0+1280),f,c
  7315  0039FE  0E00               	movlw	0
  7316  003A00  2216               	addwfc	(___flmul@prod+2)^(0+1280),f,c
  7317  003A02  0E00               	movlw	0
  7318  003A04  2217               	addwfc	(___flmul@prod+3)^(0+1280),f,c
  7319  003A06  5006               	movf	(___flmul@a+1)^(0+1280),w,c
  7320  003A08  0203               	mulwf	(___flmul@b+2)^(0+1280),c
  7321  003A0A  0061 F3CC  F518    	movff	prodl,___flmul@temp
  7322  003A10  0061 F3D0  F519    	movff	prodh,___flmul@temp+1
  7323  003A16  5018               	movf	___flmul@temp^(0+1280),w,c
  7324  003A18  2614               	addwf	___flmul@prod^(0+1280),f,c
  7325  003A1A  5019               	movf	(___flmul@temp+1)^(0+1280),w,c
  7326  003A1C  2215               	addwfc	(___flmul@prod+1)^(0+1280),f,c
  7327  003A1E  0E00               	movlw	0
  7328  003A20  2216               	addwfc	(___flmul@prod+2)^(0+1280),f,c
  7329  003A22  0E00               	movlw	0
  7330  003A24  2217               	addwfc	(___flmul@prod+3)^(0+1280),f,c
  7331  003A26  5007               	movf	(___flmul@a+2)^(0+1280),w,c
  7332  003A28  0203               	mulwf	(___flmul@b+2)^(0+1280),c
  7333  003A2A  0061 F3CC  F518    	movff	prodl,___flmul@temp
  7334  003A30  0061 F3D0  F519    	movff	prodh,___flmul@temp+1
  7335  003A36  5018               	movf	___flmul@temp^(0+1280),w,c
  7336  003A38  6E09               	movwf	??___flmul^(0+1280),c
  7337  003A3A  5019               	movf	(___flmul@temp+1)^(0+1280),w,c
  7338  003A3C  6E0A               	movwf	(??___flmul+1)^(0+1280),c
  7339  003A3E  6A0B               	clrf	(??___flmul+2)^(0+1280),c
  7340  003A40  6A0C               	clrf	(??___flmul+3)^(0+1280),c
  7341  003A42  C50B  F50C         	movff	??___flmul+2,??___flmul+3
  7342  003A46  C50A  F50B         	movff	??___flmul+1,??___flmul+2
  7343  003A4A  C509  F50A         	movff	??___flmul,??___flmul+1
  7344  003A4E  6A09               	clrf	??___flmul^(0+1280),c
  7345  003A50  5009               	movf	??___flmul^(0+1280),w,c
  7346  003A52  2614               	addwf	___flmul@prod^(0+1280),f,c
  7347  003A54  500A               	movf	(??___flmul+1)^(0+1280),w,c
  7348  003A56  2215               	addwfc	(___flmul@prod+1)^(0+1280),f,c
  7349  003A58  500B               	movf	(??___flmul+2)^(0+1280),w,c
  7350  003A5A  2216               	addwfc	(___flmul@prod+2)^(0+1280),f,c
  7351  003A5C  500C               	movf	(??___flmul+3)^(0+1280),w,c
  7352  003A5E  2217               	addwfc	(___flmul@prod+3)^(0+1280),f,c
  7353  003A60  C50E  F509         	movff	___flmul@grs,??___flmul
  7354  003A64  C50F  F50A         	movff	___flmul@grs+1,??___flmul+1
  7355  003A68  C510  F50B         	movff	___flmul@grs+2,??___flmul+2
  7356  003A6C  C511  F50C         	movff	___flmul@grs+3,??___flmul+3
  7357  003A70  0E19               	movlw	25
  7358  003A72  EF40  F01D         	goto	i2u302_40
  7359  003A76                     i2u302_45:
  7360  003A76  90D8               	bcf	status,0,c
  7361  003A78  320C               	rrcf	(??___flmul+3)^(0+1280),f,c
  7362  003A7A  320B               	rrcf	(??___flmul+2)^(0+1280),f,c
  7363  003A7C  320A               	rrcf	(??___flmul+1)^(0+1280),f,c
  7364  003A7E  3209               	rrcf	??___flmul^(0+1280),f,c
  7365  003A80                     i2u302_40:
  7366  003A80  2EE8               	decfsz	wreg,f,c
  7367  003A82  EF3B  F01D         	goto	i2u302_45
  7368  003A86  5009               	movf	??___flmul^(0+1280),w,c
  7369  003A88  2614               	addwf	___flmul@prod^(0+1280),f,c
  7370  003A8A  500A               	movf	(??___flmul+1)^(0+1280),w,c
  7371  003A8C  2215               	addwfc	(___flmul@prod+1)^(0+1280),f,c
  7372  003A8E  500B               	movf	(??___flmul+2)^(0+1280),w,c
  7373  003A90  2216               	addwfc	(___flmul@prod+2)^(0+1280),f,c
  7374  003A92  500C               	movf	(??___flmul+3)^(0+1280),w,c
  7375  003A94  2217               	addwfc	(___flmul@prod+3)^(0+1280),f,c
  7376  003A96  C510  F511         	movff	___flmul@grs+2,___flmul@grs+3
  7377  003A9A  C50F  F510         	movff	___flmul@grs+1,___flmul@grs+2
  7378  003A9E  C50E  F50F         	movff	___flmul@grs,___flmul@grs+1
  7379  003AA2  6A0E               	clrf	___flmul@grs^(0+1280),c
  7380  003AA4  5012               	movf	___flmul@aexp^(0+1280),w,c
  7381  003AA6  C513  F509         	movff	___flmul@bexp,??___flmul
  7382  003AAA  6A0A               	clrf	(??___flmul+1)^(0+1280),c
  7383  003AAC  2609               	addwf	??___flmul^(0+1280),f,c
  7384  003AAE  0E00               	movlw	0
  7385  003AB0  220A               	addwfc	(??___flmul+1)^(0+1280),f,c
  7386  003AB2  0E82               	movlw	130
  7387  003AB4  2409               	addwf	??___flmul^(0+1280),w,c
  7388  003AB6  6E18               	movwf	___flmul@temp^(0+1280),c
  7389  003AB8  0EFF               	movlw	255
  7390  003ABA  200A               	addwfc	(??___flmul+1)^(0+1280),w,c
  7391  003ABC  6E19               	movwf	(___flmul@temp+1)^(0+1280),c
  7392  003ABE  EF76  F01D         	goto	i2l3502
  7393  003AC2                     i2l3496:
  7394  003AC2  90D8               	bcf	status,0,c
  7395  003AC4  3614               	rlcf	___flmul@prod^(0+1280),f,c
  7396  003AC6  3615               	rlcf	(___flmul@prod+1)^(0+1280),f,c
  7397  003AC8  3616               	rlcf	(___flmul@prod+2)^(0+1280),f,c
  7398  003ACA  3617               	rlcf	(___flmul@prod+3)^(0+1280),f,c
  7399  003ACC  AE11               	btfss	(___flmul@grs+3)^(0+1280),7,c
  7400  003ACE  EF6B  F01D         	goto	i2u303_41
  7401  003AD2  EF6D  F01D         	goto	i2u303_40
  7402  003AD6                     i2u303_41:
  7403  003AD6  EF6E  F01D         	goto	i2l1258
  7404  003ADA                     i2u303_40:
  7405  003ADA  8014               	bsf	___flmul@prod^(0+1280),0,c
  7406  003ADC                     i2l1258:
  7407  003ADC  90D8               	bcf	status,0,c
  7408  003ADE  360E               	rlcf	___flmul@grs^(0+1280),f,c
  7409  003AE0  360F               	rlcf	(___flmul@grs+1)^(0+1280),f,c
  7410  003AE2  3610               	rlcf	(___flmul@grs+2)^(0+1280),f,c
  7411  003AE4  3611               	rlcf	(___flmul@grs+3)^(0+1280),f,c
  7412  003AE6  0618               	decf	___flmul@temp^(0+1280),f,c
  7413  003AE8  A0D8               	btfss	status,0,c
  7414  003AEA  0619               	decf	(___flmul@temp+1)^(0+1280),f,c
  7415  003AEC                     i2l3502:
  7416  003AEC  AE16               	btfss	(___flmul@prod+2)^(0+1280),7,c
  7417  003AEE  EF7B  F01D         	goto	i2u304_41
  7418  003AF2  EF7D  F01D         	goto	i2u304_40
  7419  003AF6                     i2u304_41:
  7420  003AF6  EF61  F01D         	goto	i2l3496
  7421  003AFA                     i2u304_40:
  7422  003AFA  0E00               	movlw	0
  7423  003AFC  6E12               	movwf	___flmul@aexp^(0+1280),c
  7424  003AFE  AE11               	btfss	(___flmul@grs+3)^(0+1280),7,c
  7425  003B00  EF84  F01D         	goto	i2u305_41
  7426  003B04  EF86  F01D         	goto	i2u305_40
  7427  003B08                     i2u305_41:
  7428  003B08  EFAA  F01D         	goto	i2l1260
  7429  003B0C                     i2u305_40:
  7430  003B0C  0EFF               	movlw	255
  7431  003B0E  140E               	andwf	___flmul@grs^(0+1280),w,c
  7432  003B10  6E09               	movwf	??___flmul^(0+1280),c
  7433  003B12  0EFF               	movlw	255
  7434  003B14  140F               	andwf	(___flmul@grs+1)^(0+1280),w,c
  7435  003B16  6E0A               	movwf	(??___flmul+1)^(0+1280),c
  7436  003B18  0EFF               	movlw	255
  7437  003B1A  1410               	andwf	(___flmul@grs+2)^(0+1280),w,c
  7438  003B1C  6E0B               	movwf	(??___flmul+2)^(0+1280),c
  7439  003B1E  0E7F               	movlw	127
  7440  003B20  1411               	andwf	(___flmul@grs+3)^(0+1280),w,c
  7441  003B22  6E0C               	movwf	(??___flmul+3)^(0+1280),c
  7442  003B24  5009               	movf	??___flmul^(0+1280),w,c
  7443  003B26  100A               	iorwf	(??___flmul+1)^(0+1280),w,c
  7444  003B28  100B               	iorwf	(??___flmul+2)^(0+1280),w,c
  7445  003B2A  100C               	iorwf	(??___flmul+3)^(0+1280),w,c
  7446  003B2C  B4D8               	btfsc	status,2,c
  7447  003B2E  EF9B  F01D         	goto	i2u306_41
  7448  003B32  EF9D  F01D         	goto	i2u306_40
  7449  003B36                     i2u306_41:
  7450  003B36  EFA1  F01D         	goto	i2l1261
  7451  003B3A                     i2u306_40:
  7452  003B3A                     i2l3510:
  7453  003B3A  0E01               	movlw	1
  7454  003B3C  6E12               	movwf	___flmul@aexp^(0+1280),c
  7455  003B3E  EFAA  F01D         	goto	i2l1260
  7456  003B42                     i2l1261:
  7457  003B42  A014               	btfss	___flmul@prod^(0+1280),0,c
  7458  003B44  EFA6  F01D         	goto	i2u307_41
  7459  003B48  EFA8  F01D         	goto	i2u307_40
  7460  003B4C                     i2u307_41:
  7461  003B4C  EFAA  F01D         	goto	i2l1260
  7462  003B50                     i2u307_40:
  7463  003B50  EF9D  F01D         	goto	i2l3510
  7464  003B54                     i2l1260:
  7465  003B54  5012               	movf	___flmul@aexp^(0+1280),w,c
  7466  003B56  B4D8               	btfsc	status,2,c
  7467  003B58  EFB0  F01D         	goto	i2u308_41
  7468  003B5C  EFB2  F01D         	goto	i2u308_40
  7469  003B60                     i2u308_41:
  7470  003B60  EFD6  F01D         	goto	i2l3522
  7471  003B64                     i2u308_40:
  7472  003B64  0E01               	movlw	1
  7473  003B66  2614               	addwf	___flmul@prod^(0+1280),f,c
  7474  003B68  0E00               	movlw	0
  7475  003B6A  2215               	addwfc	(___flmul@prod+1)^(0+1280),f,c
  7476  003B6C  2216               	addwfc	(___flmul@prod+2)^(0+1280),f,c
  7477  003B6E  2217               	addwfc	(___flmul@prod+3)^(0+1280),f,c
  7478  003B70  A017               	btfss	(___flmul@prod+3)^(0+1280),0,c
  7479  003B72  EFBD  F01D         	goto	i2u309_41
  7480  003B76  EFBF  F01D         	goto	i2u309_40
  7481  003B7A                     i2u309_41:
  7482  003B7A  EFD6  F01D         	goto	i2l3522
  7483  003B7E                     i2u309_40:
  7484  003B7E  C514  F509         	movff	___flmul@prod,??___flmul
  7485  003B82  C515  F50A         	movff	___flmul@prod+1,??___flmul+1
  7486  003B86  C516  F50B         	movff	___flmul@prod+2,??___flmul+2
  7487  003B8A  C517  F50C         	movff	___flmul@prod+3,??___flmul+3
  7488  003B8E  340C               	rlcf	(??___flmul+3)^(0+1280),w,c
  7489  003B90  320C               	rrcf	(??___flmul+3)^(0+1280),f,c
  7490  003B92  320B               	rrcf	(??___flmul+2)^(0+1280),f,c
  7491  003B94  320A               	rrcf	(??___flmul+1)^(0+1280),f,c
  7492  003B96  3209               	rrcf	??___flmul^(0+1280),f,c
  7493  003B98  C509  F514         	movff	??___flmul,___flmul@prod
  7494  003B9C  C50A  F515         	movff	??___flmul+1,___flmul@prod+1
  7495  003BA0  C50B  F516         	movff	??___flmul+2,___flmul@prod+2
  7496  003BA4  C50C  F517         	movff	??___flmul+3,___flmul@prod+3
  7497  003BA8  4A18               	infsnz	___flmul@temp^(0+1280),f,c
  7498  003BAA  2A19               	incf	(___flmul@temp+1)^(0+1280),f,c
  7499  003BAC                     i2l3522:
  7500  003BAC  BE19               	btfsc	(___flmul@temp+1)^(0+1280),7,c
  7501  003BAE  EFE1  F01D         	goto	i2u310_41
  7502  003BB2  5019               	movf	(___flmul@temp+1)^(0+1280),w,c
  7503  003BB4  E108               	bnz	i2u310_40
  7504  003BB6  2818               	incf	___flmul@temp^(0+1280),w,c
  7505  003BB8  A0D8               	btfss	status,0,c
  7506  003BBA  EFE1  F01D         	goto	i2u310_41
  7507  003BBE  EFE3  F01D         	goto	i2u310_40
  7508  003BC2                     i2u310_41:
  7509  003BC2  EFED  F01D         	goto	i2l3526
  7510  003BC6                     i2u310_40:
  7511  003BC6  0E00               	movlw	0
  7512  003BC8  6E14               	movwf	___flmul@prod^(0+1280),c
  7513  003BCA  0E00               	movlw	0
  7514  003BCC  6E15               	movwf	(___flmul@prod+1)^(0+1280),c
  7515  003BCE  0E80               	movlw	128
  7516  003BD0  6E16               	movwf	(___flmul@prod+2)^(0+1280),c
  7517  003BD2  0E7F               	movlw	127
  7518  003BD4  6E17               	movwf	(___flmul@prod+3)^(0+1280),c
  7519  003BD6  EF1B  F01E         	goto	i2l3538
  7520  003BDA                     i2l3526:
  7521  003BDA  BE19               	btfsc	(___flmul@temp+1)^(0+1280),7,c
  7522  003BDC  EFFA  F01D         	goto	i2u311_40
  7523  003BE0  5019               	movf	(___flmul@temp+1)^(0+1280),w,c
  7524  003BE2  E106               	bnz	i2u311_41
  7525  003BE4  0418               	decf	___flmul@temp^(0+1280),w,c
  7526  003BE6  B0D8               	btfsc	status,0,c
  7527  003BE8  EFF8  F01D         	goto	i2u311_41
  7528  003BEC  EFFA  F01D         	goto	i2u311_40
  7529  003BF0                     i2u311_41:
  7530  003BF0  EF06  F01E         	goto	i2l1268
  7531  003BF4                     i2u311_40:
  7532  003BF4  0E00               	movlw	0
  7533  003BF6  6E14               	movwf	___flmul@prod^(0+1280),c
  7534  003BF8  0E00               	movlw	0
  7535  003BFA  6E15               	movwf	(___flmul@prod+1)^(0+1280),c
  7536  003BFC  0E00               	movlw	0
  7537  003BFE  6E16               	movwf	(___flmul@prod+2)^(0+1280),c
  7538  003C00  0E00               	movlw	0
  7539  003C02  6E17               	movwf	(___flmul@prod+3)^(0+1280),c
  7540  003C04  0E00               	movlw	0
  7541  003C06  6E0D               	movwf	___flmul@sign^(0+1280),c
  7542  003C08  EF1B  F01E         	goto	i2l3538
  7543  003C0C                     i2l1268:
  7544  003C0C  C518  F513         	movff	___flmul@temp,___flmul@bexp
  7545  003C10  0EFF               	movlw	255
  7546  003C12  1614               	andwf	___flmul@prod^(0+1280),f,c
  7547  003C14  0EFF               	movlw	255
  7548  003C16  1615               	andwf	(___flmul@prod+1)^(0+1280),f,c
  7549  003C18  0E7F               	movlw	127
  7550  003C1A  1616               	andwf	(___flmul@prod+2)^(0+1280),f,c
  7551  003C1C  0E00               	movlw	0
  7552  003C1E  1617               	andwf	(___flmul@prod+3)^(0+1280),f,c
  7553  003C20  A013               	btfss	___flmul@bexp^(0+1280),0,c
  7554  003C22  EF15  F01E         	goto	i2u312_41
  7555  003C26  EF17  F01E         	goto	i2u312_40
  7556  003C2A                     i2u312_41:
  7557  003C2A  EF18  F01E         	goto	i2l3536
  7558  003C2E                     i2u312_40:
  7559  003C2E  8E16               	bsf	(___flmul@prod+2)^(0+1280),7,c
  7560  003C30                     i2l3536:
  7561  003C30  90D8               	bcf	status,0,c
  7562  003C32  3013               	rrcf	___flmul@bexp^(0+1280),w,c
  7563  003C34  6E17               	movwf	(___flmul@prod+3)^(0+1280),c
  7564  003C36                     i2l3538:
  7565  003C36  500D               	movf	___flmul@sign^(0+1280),w,c
  7566  003C38  1217               	iorwf	(___flmul@prod+3)^(0+1280),f,c
  7567  003C3A  C514  F501         	movff	___flmul@prod,?___flmul
  7568  003C3E  C515  F502         	movff	___flmul@prod+1,?___flmul+1
  7569  003C42  C516  F503         	movff	___flmul@prod+2,?___flmul+2
  7570  003C46  C517  F504         	movff	___flmul@prod+3,?___flmul+3
  7571  003C4A                     i2l1255:
  7572  003C4A  0012               	return		;funcret
  7573  003C4C                     __end_of___flmul:
  7574                           	callstack 0
  7575                           
  7576 ;; *************** function ___flge *****************
  7577 ;; Defined at:
  7578 ;;		line 4 in file "C:\Program Files\Microchip\xc8\v2.32\pic\sources\c99\common\flge.c"
  7579 ;; Parameters:    Size  Location     Type
  7580 ;;  ff1             4    0[COMRAM] unsigned char 
  7581 ;;  ff2             4    4[COMRAM] unsigned char 
  7582 ;; Auto vars:     Size  Location     Type
  7583 ;;		None
  7584 ;; Return value:  Size  Location     Type
  7585 ;;		None               void
  7586 ;; Registers used:
  7587 ;;		wreg, status,2, status,0
  7588 ;; Tracked objects:
  7589 ;;		On entry : 0/0
  7590 ;;		On exit  : 0/0
  7591 ;;		Unchanged: 0/0
  7592 ;; Data sizes:     COMRAM   BANK5   BANK6   BANK7   BANK8   BANK9  BANK10  BANK11  BANK12  BANK13  BANK14  BANK15  BANK1
      +6  BANK17  BANK18  BANK19  BANK20  BANK21  BANK22  BANK23  BANK24  BANK25  BANK26  BANK27  BANK28  BANK29  BANK30  BANK3
      +1  BANK32  BANK33  BANK34  BANK35  BANK36  BANK37
  7593 ;;      Params:         8       0       0       0       0       0       0       0       0       0       0       0       
      +0       0       0       0       0       0       0       0       0       0       0       0       0       0       0       
      +0       0       0       0       0       0       0
  7594 ;;      Locals:         0       0       0       0       0       0       0       0       0       0       0       0       
      +0       0       0       0       0       0       0       0       0       0       0       0       0       0       0       
      +0       0       0       0       0       0       0
  7595 ;;      Temps:          4       0       0       0       0       0       0       0       0       0       0       0       
      +0       0       0       0       0       0       0       0       0       0       0       0       0       0       0       
      +0       0       0       0       0       0       0
  7596 ;;      Totals:        12       0       0       0       0       0       0       0       0       0       0       0       
      +0       0       0       0       0       0       0       0       0       0       0       0       0       0       0       
      +0       0       0       0       0       0       0
  7597 ;;Total ram usage:       12 bytes
  7598 ;; Hardware stack levels used: 1
  7599 ;; This function calls:
  7600 ;;		Nothing
  7601 ;; This function is called by:
  7602 ;;		_strtof
  7603 ;; This function uses a non-reentrant model
  7604 ;;
  7605                           
  7606                           	psect	text42
  7607  0047B6                     __ptext42:
  7608                           	callstack 0
  7609  0047B6                     ___flge:
  7610                           	callstack 115
  7611  0047B6  0E00               	movlw	0
  7612  0047B8  1401               	andwf	___flge@ff1^(0+1280),w,c
  7613  0047BA  6E09               	movwf	??___flge^(0+1280),c
  7614  0047BC  0E00               	movlw	0
  7615  0047BE  1402               	andwf	(___flge@ff1+1)^(0+1280),w,c
  7616  0047C0  6E0A               	movwf	(??___flge+1)^(0+1280),c
  7617  0047C2  0E80               	movlw	128
  7618  0047C4  1403               	andwf	(___flge@ff1+2)^(0+1280),w,c
  7619  0047C6  6E0B               	movwf	(??___flge+2)^(0+1280),c
  7620  0047C8  0E7F               	movlw	127
  7621  0047CA  1404               	andwf	(___flge@ff1+3)^(0+1280),w,c
  7622  0047CC  6E0C               	movwf	(??___flge+3)^(0+1280),c
  7623  0047CE  5009               	movf	??___flge^(0+1280),w,c
  7624  0047D0  100A               	iorwf	(??___flge+1)^(0+1280),w,c
  7625  0047D2  100B               	iorwf	(??___flge+2)^(0+1280),w,c
  7626  0047D4  100C               	iorwf	(??___flge+3)^(0+1280),w,c
  7627  0047D6  A4D8               	btfss	status,2,c
  7628  0047D8  EFF0  F023         	goto	i2u316_41
  7629  0047DC  EFF2  F023         	goto	i2u316_40
  7630  0047E0                     i2u316_41:
  7631  0047E0  EFFA  F023         	goto	i2l3564
  7632  0047E4                     i2u316_40:
  7633  0047E4  0E00               	movlw	0
  7634  0047E6  6E01               	movwf	___flge@ff1^(0+1280),c
  7635  0047E8  0E00               	movlw	0
  7636  0047EA  6E02               	movwf	(___flge@ff1+1)^(0+1280),c
  7637  0047EC  0E00               	movlw	0
  7638  0047EE  6E03               	movwf	(___flge@ff1+2)^(0+1280),c
  7639  0047F0  0E00               	movlw	0
  7640  0047F2  6E04               	movwf	(___flge@ff1+3)^(0+1280),c
  7641  0047F4                     i2l3564:
  7642  0047F4  0E00               	movlw	0
  7643  0047F6  1405               	andwf	___flge@ff2^(0+1280),w,c
  7644  0047F8  6E09               	movwf	??___flge^(0+1280),c
  7645  0047FA  0E00               	movlw	0
  7646  0047FC  1406               	andwf	(___flge@ff2+1)^(0+1280),w,c
  7647  0047FE  6E0A               	movwf	(??___flge+1)^(0+1280),c
  7648  004800  0E80               	movlw	128
  7649  004802  1407               	andwf	(___flge@ff2+2)^(0+1280),w,c
  7650  004804  6E0B               	movwf	(??___flge+2)^(0+1280),c
  7651  004806  0E7F               	movlw	127
  7652  004808  1408               	andwf	(___flge@ff2+3)^(0+1280),w,c
  7653  00480A  6E0C               	movwf	(??___flge+3)^(0+1280),c
  7654  00480C  5009               	movf	??___flge^(0+1280),w,c
  7655  00480E  100A               	iorwf	(??___flge+1)^(0+1280),w,c
  7656  004810  100B               	iorwf	(??___flge+2)^(0+1280),w,c
  7657  004812  100C               	iorwf	(??___flge+3)^(0+1280),w,c
  7658  004814  A4D8               	btfss	status,2,c
  7659  004816  EF0F  F024         	goto	i2u317_41
  7660  00481A  EF11  F024         	goto	i2u317_40
  7661  00481E                     i2u317_41:
  7662  00481E  EF19  F024         	goto	i2l3568
  7663  004822                     i2u317_40:
  7664  004822  0E00               	movlw	0
  7665  004824  6E05               	movwf	___flge@ff2^(0+1280),c
  7666  004826  0E00               	movlw	0
  7667  004828  6E06               	movwf	(___flge@ff2+1)^(0+1280),c
  7668  00482A  0E00               	movlw	0
  7669  00482C  6E07               	movwf	(___flge@ff2+2)^(0+1280),c
  7670  00482E  0E00               	movlw	0
  7671  004830  6E08               	movwf	(___flge@ff2+3)^(0+1280),c
  7672  004832                     i2l3568:
  7673  004832  AE04               	btfss	(___flge@ff1+3)^(0+1280),7,c
  7674  004834  EF1E  F024         	goto	i2u318_41
  7675  004838  EF20  F024         	goto	i2u318_40
  7676  00483C                     i2u318_41:
  7677  00483C  EF29  F024         	goto	i2l3572
  7678  004840                     i2u318_40:
  7679  004840  6C01               	negf	___flge@ff1^(0+1280),c
  7680  004842  1E02               	comf	(___flge@ff1+1)^(0+1280),f,c
  7681  004844  B0D8               	btfsc	status,0,c
  7682  004846  2A02               	incf	(___flge@ff1+1)^(0+1280),f,c
  7683  004848  1E03               	comf	(___flge@ff1+2)^(0+1280),f,c
  7684  00484A  B0D8               	btfsc	status,0,c
  7685  00484C  2A03               	incf	(___flge@ff1+2)^(0+1280),f,c
  7686  00484E  0E80               	movlw	128
  7687  004850  5604               	subfwb	(___flge@ff1+3)^(0+1280),f,c
  7688  004852                     i2l3572:
  7689  004852  AE08               	btfss	(___flge@ff2+3)^(0+1280),7,c
  7690  004854  EF2E  F024         	goto	i2u319_41
  7691  004858  EF30  F024         	goto	i2u319_40
  7692  00485C                     i2u319_41:
  7693  00485C  EF39  F024         	goto	i2l902
  7694  004860                     i2u319_40:
  7695  004860  6C05               	negf	___flge@ff2^(0+1280),c
  7696  004862  1E06               	comf	(___flge@ff2+1)^(0+1280),f,c
  7697  004864  B0D8               	btfsc	status,0,c
  7698  004866  2A06               	incf	(___flge@ff2+1)^(0+1280),f,c
  7699  004868  1E07               	comf	(___flge@ff2+2)^(0+1280),f,c
  7700  00486A  B0D8               	btfsc	status,0,c
  7701  00486C  2A07               	incf	(___flge@ff2+2)^(0+1280),f,c
  7702  00486E  0E80               	movlw	128
  7703  004870  5608               	subfwb	(___flge@ff2+3)^(0+1280),f,c
  7704  004872                     i2l902:
  7705  004872  0E00               	movlw	0
  7706  004874  1A01               	xorwf	___flge@ff1^(0+1280),f,c
  7707  004876  0E00               	movlw	0
  7708  004878  1A02               	xorwf	(___flge@ff1+1)^(0+1280),f,c
  7709  00487A  0E00               	movlw	0
  7710  00487C  1A03               	xorwf	(___flge@ff1+2)^(0+1280),f,c
  7711  00487E  0E80               	movlw	128
  7712  004880  1A04               	xorwf	(___flge@ff1+3)^(0+1280),f,c
  7713  004882  0E00               	movlw	0
  7714  004884  1A05               	xorwf	___flge@ff2^(0+1280),f,c
  7715  004886  0E00               	movlw	0
  7716  004888  1A06               	xorwf	(___flge@ff2+1)^(0+1280),f,c
  7717  00488A  0E00               	movlw	0
  7718  00488C  1A07               	xorwf	(___flge@ff2+2)^(0+1280),f,c
  7719  00488E  0E80               	movlw	128
  7720  004890  1A08               	xorwf	(___flge@ff2+3)^(0+1280),f,c
  7721  004892  5005               	movf	___flge@ff2^(0+1280),w,c
  7722  004894  5C01               	subwf	___flge@ff1^(0+1280),w,c
  7723  004896  5006               	movf	(___flge@ff2+1)^(0+1280),w,c
  7724  004898  5802               	subwfb	(___flge@ff1+1)^(0+1280),w,c
  7725  00489A  5007               	movf	(___flge@ff2+2)^(0+1280),w,c
  7726  00489C  5803               	subwfb	(___flge@ff1+2)^(0+1280),w,c
  7727  00489E  5008               	movf	(___flge@ff2+3)^(0+1280),w,c
  7728  0048A0  5804               	subwfb	(___flge@ff1+3)^(0+1280),w,c
  7729  0048A2  B0D8               	btfsc	status,0,c
  7730  0048A4  EF56  F024         	goto	i2u320_41
  7731  0048A8  EF58  F024         	goto	i2u320_40
  7732  0048AC                     i2u320_41:
  7733  0048AC  EF5B  F024         	goto	i2l3578
  7734  0048B0                     i2u320_40:
  7735  0048B0  90D8               	bcf	status,0,c
  7736  0048B2  EF5C  F024         	goto	i2l907
  7737  0048B6                     i2l3578:
  7738  0048B6  80D8               	bsf	status,0,c
  7739  0048B8                     i2l907:
  7740  0048B8  0012               	return		;funcret
  7741  0048BA                     __end_of___flge:
  7742                           	callstack 0
  7743                           
  7744 ;; *************** function ___fleq *****************
  7745 ;; Defined at:
  7746 ;;		line 4 in file "C:\Program Files\Microchip\xc8\v2.32\pic\sources\c99\common\fleq.c"
  7747 ;; Parameters:    Size  Location     Type
  7748 ;;  ff1             4    0[COMRAM] unsigned char 
  7749 ;;  ff2             4    4[COMRAM] unsigned char 
  7750 ;; Auto vars:     Size  Location     Type
  7751 ;;		None
  7752 ;; Return value:  Size  Location     Type
  7753 ;;		None               void
  7754 ;; Registers used:
  7755 ;;		wreg, status,2, status,0
  7756 ;; Tracked objects:
  7757 ;;		On entry : 0/0
  7758 ;;		On exit  : 0/0
  7759 ;;		Unchanged: 0/0
  7760 ;; Data sizes:     COMRAM   BANK5   BANK6   BANK7   BANK8   BANK9  BANK10  BANK11  BANK12  BANK13  BANK14  BANK15  BANK1
      +6  BANK17  BANK18  BANK19  BANK20  BANK21  BANK22  BANK23  BANK24  BANK25  BANK26  BANK27  BANK28  BANK29  BANK30  BANK3
      +1  BANK32  BANK33  BANK34  BANK35  BANK36  BANK37
  7761 ;;      Params:         8       0       0       0       0       0       0       0       0       0       0       0       
      +0       0       0       0       0       0       0       0       0       0       0       0       0       0       0       
      +0       0       0       0       0       0       0
  7762 ;;      Locals:         0       0       0       0       0       0       0       0       0       0       0       0       
      +0       0       0       0       0       0       0       0       0       0       0       0       0       0       0       
      +0       0       0       0       0       0       0
  7763 ;;      Temps:          4       0       0       0       0       0       0       0       0       0       0       0       
      +0       0       0       0       0       0       0       0       0       0       0       0       0       0       0       
      +0       0       0       0       0       0       0
  7764 ;;      Totals:        12       0       0       0       0       0       0       0       0       0       0       0       
      +0       0       0       0       0       0       0       0       0       0       0       0       0       0       0       
      +0       0       0       0       0       0       0
  7765 ;;Total ram usage:       12 bytes
  7766 ;; Hardware stack levels used: 1
  7767 ;; This function calls:
  7768 ;;		Nothing
  7769 ;; This function is called by:
  7770 ;;		_strtof
  7771 ;; This function uses a non-reentrant model
  7772 ;;
  7773                           
  7774                           	psect	text43
  7775  004CBC                     __ptext43:
  7776                           	callstack 0
  7777  004CBC                     ___fleq:
  7778                           	callstack 115
  7779  004CBC  0E00               	movlw	0
  7780  004CBE  1401               	andwf	___fleq@ff1^(0+1280),w,c
  7781  004CC0  6E09               	movwf	??___fleq^(0+1280),c
  7782  004CC2  0E00               	movlw	0
  7783  004CC4  1402               	andwf	(___fleq@ff1+1)^(0+1280),w,c
  7784  004CC6  6E0A               	movwf	(??___fleq+1)^(0+1280),c
  7785  004CC8  0E80               	movlw	128
  7786  004CCA  1403               	andwf	(___fleq@ff1+2)^(0+1280),w,c
  7787  004CCC  6E0B               	movwf	(??___fleq+2)^(0+1280),c
  7788  004CCE  0E7F               	movlw	127
  7789  004CD0  1404               	andwf	(___fleq@ff1+3)^(0+1280),w,c
  7790  004CD2  6E0C               	movwf	(??___fleq+3)^(0+1280),c
  7791  004CD4  5009               	movf	??___fleq^(0+1280),w,c
  7792  004CD6  100A               	iorwf	(??___fleq+1)^(0+1280),w,c
  7793  004CD8  100B               	iorwf	(??___fleq+2)^(0+1280),w,c
  7794  004CDA  100C               	iorwf	(??___fleq+3)^(0+1280),w,c
  7795  004CDC  A4D8               	btfss	status,2,c
  7796  004CDE  EF73  F026         	goto	i2u313_41
  7797  004CE2  EF75  F026         	goto	i2u313_40
  7798  004CE6                     i2u313_41:
  7799  004CE6  EF7D  F026         	goto	i2l3548
  7800  004CEA                     i2u313_40:
  7801  004CEA  0E00               	movlw	0
  7802  004CEC  6E01               	movwf	___fleq@ff1^(0+1280),c
  7803  004CEE  0E00               	movlw	0
  7804  004CF0  6E02               	movwf	(___fleq@ff1+1)^(0+1280),c
  7805  004CF2  0E00               	movlw	0
  7806  004CF4  6E03               	movwf	(___fleq@ff1+2)^(0+1280),c
  7807  004CF6  0E00               	movlw	0
  7808  004CF8  6E04               	movwf	(___fleq@ff1+3)^(0+1280),c
  7809  004CFA                     i2l3548:
  7810  004CFA  0E00               	movlw	0
  7811  004CFC  1405               	andwf	___fleq@ff2^(0+1280),w,c
  7812  004CFE  6E09               	movwf	??___fleq^(0+1280),c
  7813  004D00  0E00               	movlw	0
  7814  004D02  1406               	andwf	(___fleq@ff2+1)^(0+1280),w,c
  7815  004D04  6E0A               	movwf	(??___fleq+1)^(0+1280),c
  7816  004D06  0E80               	movlw	128
  7817  004D08  1407               	andwf	(___fleq@ff2+2)^(0+1280),w,c
  7818  004D0A  6E0B               	movwf	(??___fleq+2)^(0+1280),c
  7819  004D0C  0E7F               	movlw	127
  7820  004D0E  1408               	andwf	(___fleq@ff2+3)^(0+1280),w,c
  7821  004D10  6E0C               	movwf	(??___fleq+3)^(0+1280),c
  7822  004D12  5009               	movf	??___fleq^(0+1280),w,c
  7823  004D14  100A               	iorwf	(??___fleq+1)^(0+1280),w,c
  7824  004D16  100B               	iorwf	(??___fleq+2)^(0+1280),w,c
  7825  004D18  100C               	iorwf	(??___fleq+3)^(0+1280),w,c
  7826  004D1A  A4D8               	btfss	status,2,c
  7827  004D1C  EF92  F026         	goto	i2u314_41
  7828  004D20  EF94  F026         	goto	i2u314_40
  7829  004D24                     i2u314_41:
  7830  004D24  EF9C  F026         	goto	i2l3552
  7831  004D28                     i2u314_40:
  7832  004D28  0E00               	movlw	0
  7833  004D2A  6E05               	movwf	___fleq@ff2^(0+1280),c
  7834  004D2C  0E00               	movlw	0
  7835  004D2E  6E06               	movwf	(___fleq@ff2+1)^(0+1280),c
  7836  004D30  0E00               	movlw	0
  7837  004D32  6E07               	movwf	(___fleq@ff2+2)^(0+1280),c
  7838  004D34  0E00               	movlw	0
  7839  004D36  6E08               	movwf	(___fleq@ff2+3)^(0+1280),c
  7840  004D38                     i2l3552:
  7841  004D38  5005               	movf	___fleq@ff2^(0+1280),w,c
  7842  004D3A  1801               	xorwf	___fleq@ff1^(0+1280),w,c
  7843  004D3C  E10F               	bnz	i2u315_40
  7844  004D3E  5006               	movf	(___fleq@ff2+1)^(0+1280),w,c
  7845  004D40  1802               	xorwf	(___fleq@ff1+1)^(0+1280),w,c
  7846  004D42  E10C               	bnz	i2u315_40
  7847  004D44  5007               	movf	(___fleq@ff2+2)^(0+1280),w,c
  7848  004D46  1803               	xorwf	(___fleq@ff1+2)^(0+1280),w,c
  7849  004D48  E109               	bnz	i2u315_40
  7850  004D4A  5008               	movf	(___fleq@ff2+3)^(0+1280),w,c
  7851  004D4C  1804               	xorwf	(___fleq@ff1+3)^(0+1280),w,c
  7852  004D4E  B4D8               	btfsc	status,2,c
  7853  004D50  EFAC  F026         	goto	i2u315_41
  7854  004D54  EFAE  F026         	goto	i2u315_40
  7855  004D58                     i2u315_41:
  7856  004D58  EFB1  F026         	goto	i2l3556
  7857  004D5C                     i2u315_40:
  7858  004D5C  90D8               	bcf	status,0,c
  7859  004D5E  EFB2  F026         	goto	i2l896
  7860  004D62                     i2l3556:
  7861  004D62  80D8               	bsf	status,0,c
  7862  004D64                     i2l896:
  7863  004D64  0012               	return		;funcret
  7864  004D66                     __end_of___fleq:
  7865                           	callstack 0
  7866                           
  7867 ;; *************** function ___fldiv *****************
  7868 ;; Defined at:
  7869 ;;		line 11 in file "C:\Program Files\Microchip\xc8\v2.32\pic\sources\c99\common\sprcdiv.c"
  7870 ;; Parameters:    Size  Location     Type
  7871 ;;  b               4    0[COMRAM] unsigned char 
  7872 ;;  a               4    4[COMRAM] unsigned char 
  7873 ;; Auto vars:     Size  Location     Type
  7874 ;;  grs             4   19[COMRAM] unsigned long 
  7875 ;;  rem             4   12[COMRAM] unsigned long 
  7876 ;;  new_exp         2   17[COMRAM] short 
  7877 ;;  aexp            1   24[COMRAM] unsigned char 
  7878 ;;  bexp            1   23[COMRAM] unsigned char 
  7879 ;;  sign            1   16[COMRAM] unsigned char 
  7880 ;; Return value:  Size  Location     Type
  7881 ;;                  4    0[COMRAM] unsigned char 
  7882 ;; Registers used:
  7883 ;;		wreg, status,2, status,0
  7884 ;; Tracked objects:
  7885 ;;		On entry : 0/0
  7886 ;;		On exit  : 0/0
  7887 ;;		Unchanged: 0/0
  7888 ;; Data sizes:     COMRAM   BANK5   BANK6   BANK7   BANK8   BANK9  BANK10  BANK11  BANK12  BANK13  BANK14  BANK15  BANK1
      +6  BANK17  BANK18  BANK19  BANK20  BANK21  BANK22  BANK23  BANK24  BANK25  BANK26  BANK27  BANK28  BANK29  BANK30  BANK3
      +1  BANK32  BANK33  BANK34  BANK35  BANK36  BANK37
  7889 ;;      Params:         8       0       0       0       0       0       0       0       0       0       0       0       
      +0       0       0       0       0       0       0       0       0       0       0       0       0       0       0       
      +0       0       0       0       0       0       0
  7890 ;;      Locals:        13       0       0       0       0       0       0       0       0       0       0       0       
      +0       0       0       0       0       0       0       0       0       0       0       0       0       0       0       
      +0       0       0       0       0       0       0
  7891 ;;      Temps:          4       0       0       0       0       0       0       0       0       0       0       0       
      +0       0       0       0       0       0       0       0       0       0       0       0       0       0       0       
      +0       0       0       0       0       0       0
  7892 ;;      Totals:        25       0       0       0       0       0       0       0       0       0       0       0       
      +0       0       0       0       0       0       0       0       0       0       0       0       0       0       0       
      +0       0       0       0       0       0       0
  7893 ;;Total ram usage:       25 bytes
  7894 ;; Hardware stack levels used: 1
  7895 ;; This function calls:
  7896 ;;		Nothing
  7897 ;; This function is called by:
  7898 ;;		_strtof
  7899 ;; This function uses a non-reentrant model
  7900 ;;
  7901                           
  7902                           	psect	text44
  7903  003C4C                     __ptext44:
  7904                           	callstack 0
  7905  003C4C                     ___fldiv:
  7906                           	callstack 115
  7907  003C4C  5004               	movf	(___fldiv@b+3)^(0+1280),w,c
  7908  003C4E  0B80               	andlw	128
  7909  003C50  6E11               	movwf	___fldiv@sign^(0+1280),c
  7910  003C52  5004               	movf	(___fldiv@b+3)^(0+1280),w,c
  7911  003C54  2404               	addwf	(___fldiv@b+3)^(0+1280),w,c
  7912  003C56  6E18               	movwf	___fldiv@bexp^(0+1280),c
  7913  003C58  AE03               	btfss	(___fldiv@b+2)^(0+1280),7,c
  7914  003C5A  EF31  F01E         	goto	i2u271_41
  7915  003C5E  EF33  F01E         	goto	i2u271_40
  7916  003C62                     i2u271_41:
  7917  003C62  EF34  F01E         	goto	i2l3282
  7918  003C66                     i2u271_40:
  7919  003C66  8018               	bsf	___fldiv@bexp^(0+1280),0,c
  7920  003C68                     i2l3282:
  7921  003C68  5018               	movf	___fldiv@bexp^(0+1280),w,c
  7922  003C6A  B4D8               	btfsc	status,2,c
  7923  003C6C  EF3A  F01E         	goto	i2u272_41
  7924  003C70  EF3C  F01E         	goto	i2u272_40
  7925  003C74                     i2u272_41:
  7926  003C74  EF51  F01E         	goto	i2l3292
  7927  003C78                     i2u272_40:
  7928  003C78  2818               	incf	___fldiv@bexp^(0+1280),w,c
  7929  003C7A  A4D8               	btfss	status,2,c
  7930  003C7C  EF42  F01E         	goto	i2u273_41
  7931  003C80  EF44  F01E         	goto	i2u273_40
  7932  003C84                     i2u273_41:
  7933  003C84  EF4C  F01E         	goto	i2l3288
  7934  003C88                     i2u273_40:
  7935  003C88  0E00               	movlw	0
  7936  003C8A  6E01               	movwf	___fldiv@b^(0+1280),c
  7937  003C8C  0E00               	movlw	0
  7938  003C8E  6E02               	movwf	(___fldiv@b+1)^(0+1280),c
  7939  003C90  0E00               	movlw	0
  7940  003C92  6E03               	movwf	(___fldiv@b+2)^(0+1280),c
  7941  003C94  0E00               	movlw	0
  7942  003C96  6E04               	movwf	(___fldiv@b+3)^(0+1280),c
  7943  003C98                     i2l3288:
  7944  003C98  8E03               	bsf	(___fldiv@b+2)^(0+1280),7,c
  7945  003C9A  0E00               	movlw	0
  7946  003C9C  6E04               	movwf	(___fldiv@b+3)^(0+1280),c
  7947  003C9E  EF59  F01E         	goto	i2l3294
  7948  003CA2                     i2l3292:
  7949  003CA2  0E00               	movlw	0
  7950  003CA4  6E01               	movwf	___fldiv@b^(0+1280),c
  7951  003CA6  0E00               	movlw	0
  7952  003CA8  6E02               	movwf	(___fldiv@b+1)^(0+1280),c
  7953  003CAA  0E00               	movlw	0
  7954  003CAC  6E03               	movwf	(___fldiv@b+2)^(0+1280),c
  7955  003CAE  0E00               	movlw	0
  7956  003CB0  6E04               	movwf	(___fldiv@b+3)^(0+1280),c
  7957  003CB2                     i2l3294:
  7958  003CB2  5008               	movf	(___fldiv@a+3)^(0+1280),w,c
  7959  003CB4  0B80               	andlw	128
  7960  003CB6  1A11               	xorwf	___fldiv@sign^(0+1280),f,c
  7961  003CB8  5008               	movf	(___fldiv@a+3)^(0+1280),w,c
  7962  003CBA  2408               	addwf	(___fldiv@a+3)^(0+1280),w,c
  7963  003CBC  6E19               	movwf	___fldiv@aexp^(0+1280),c
  7964  003CBE  AE07               	btfss	(___fldiv@a+2)^(0+1280),7,c
  7965  003CC0  EF64  F01E         	goto	i2u274_41
  7966  003CC4  EF66  F01E         	goto	i2u274_40
  7967  003CC8                     i2u274_41:
  7968  003CC8  EF67  F01E         	goto	i2l3302
  7969  003CCC                     i2u274_40:
  7970  003CCC  8019               	bsf	___fldiv@aexp^(0+1280),0,c
  7971  003CCE                     i2l3302:
  7972  003CCE  5019               	movf	___fldiv@aexp^(0+1280),w,c
  7973  003CD0  B4D8               	btfsc	status,2,c
  7974  003CD2  EF6D  F01E         	goto	i2u275_41
  7975  003CD6  EF6F  F01E         	goto	i2u275_40
  7976  003CDA                     i2u275_41:
  7977  003CDA  EF84  F01E         	goto	i2l3312
  7978  003CDE                     i2u275_40:
  7979  003CDE  2819               	incf	___fldiv@aexp^(0+1280),w,c
  7980  003CE0  A4D8               	btfss	status,2,c
  7981  003CE2  EF75  F01E         	goto	i2u276_41
  7982  003CE6  EF77  F01E         	goto	i2u276_40
  7983  003CEA                     i2u276_41:
  7984  003CEA  EF7F  F01E         	goto	i2l3308
  7985  003CEE                     i2u276_40:
  7986  003CEE  0E00               	movlw	0
  7987  003CF0  6E05               	movwf	___fldiv@a^(0+1280),c
  7988  003CF2  0E00               	movlw	0
  7989  003CF4  6E06               	movwf	(___fldiv@a+1)^(0+1280),c
  7990  003CF6  0E00               	movlw	0
  7991  003CF8  6E07               	movwf	(___fldiv@a+2)^(0+1280),c
  7992  003CFA  0E00               	movlw	0
  7993  003CFC  6E08               	movwf	(___fldiv@a+3)^(0+1280),c
  7994  003CFE                     i2l3308:
  7995  003CFE  8E07               	bsf	(___fldiv@a+2)^(0+1280),7,c
  7996  003D00  0E00               	movlw	0
  7997  003D02  6E08               	movwf	(___fldiv@a+3)^(0+1280),c
  7998  003D04  EF8C  F01E         	goto	i2l3314
  7999  003D08                     i2l3312:
  8000  003D08  0E00               	movlw	0
  8001  003D0A  6E05               	movwf	___fldiv@a^(0+1280),c
  8002  003D0C  0E00               	movlw	0
  8003  003D0E  6E06               	movwf	(___fldiv@a+1)^(0+1280),c
  8004  003D10  0E00               	movlw	0
  8005  003D12  6E07               	movwf	(___fldiv@a+2)^(0+1280),c
  8006  003D14  0E00               	movlw	0
  8007  003D16  6E08               	movwf	(___fldiv@a+3)^(0+1280),c
  8008  003D18                     i2l3314:
  8009  003D18  5005               	movf	___fldiv@a^(0+1280),w,c
  8010  003D1A  1006               	iorwf	(___fldiv@a+1)^(0+1280),w,c
  8011  003D1C  1007               	iorwf	(___fldiv@a+2)^(0+1280),w,c
  8012  003D1E  1008               	iorwf	(___fldiv@a+3)^(0+1280),w,c
  8013  003D20  A4D8               	btfss	status,2,c
  8014  003D22  EF95  F01E         	goto	i2u277_41
  8015  003D26  EF97  F01E         	goto	i2u277_40
  8016  003D2A                     i2u277_41:
  8017  003D2A  EFAF  F01E         	goto	i2l3326
  8018  003D2E                     i2u277_40:
  8019  003D2E  0E00               	movlw	0
  8020  003D30  6E01               	movwf	___fldiv@b^(0+1280),c
  8021  003D32  0E00               	movlw	0
  8022  003D34  6E02               	movwf	(___fldiv@b+1)^(0+1280),c
  8023  003D36  0E00               	movlw	0
  8024  003D38  6E03               	movwf	(___fldiv@b+2)^(0+1280),c
  8025  003D3A  0E00               	movlw	0
  8026  003D3C  6E04               	movwf	(___fldiv@b+3)^(0+1280),c
  8027  003D3E  0E80               	movlw	128
  8028  003D40  1203               	iorwf	(___fldiv@b+2)^(0+1280),f,c
  8029  003D42  0E7F               	movlw	127
  8030  003D44  1204               	iorwf	(___fldiv@b+3)^(0+1280),f,c
  8031  003D46                     i2l3320:
  8032  003D46  5011               	movf	___fldiv@sign^(0+1280),w,c
  8033  003D48  1204               	iorwf	(___fldiv@b+3)^(0+1280),f,c
  8034  003D4A  C501  F501         	movff	___fldiv@b,?___fldiv
  8035  003D4E  C502  F502         	movff	___fldiv@b+1,?___fldiv+1
  8036  003D52  C503  F503         	movff	___fldiv@b+2,?___fldiv+2
  8037  003D56  C504  F504         	movff	___fldiv@b+3,?___fldiv+3
  8038  003D5A  EFF2  F01F         	goto	i2l1219
  8039  003D5E                     i2l3326:
  8040  003D5E  5018               	movf	___fldiv@bexp^(0+1280),w,c
  8041  003D60  A4D8               	btfss	status,2,c
  8042  003D62  EFB5  F01E         	goto	i2u278_41
  8043  003D66  EFB7  F01E         	goto	i2u278_40
  8044  003D6A                     i2u278_41:
  8045  003D6A  EFC1  F01E         	goto	i2l3334
  8046  003D6E                     i2u278_40:
  8047  003D6E  0E00               	movlw	0
  8048  003D70  6E01               	movwf	?___fldiv^(0+1280),c
  8049  003D72  0E00               	movlw	0
  8050  003D74  6E02               	movwf	(?___fldiv+1)^(0+1280),c
  8051  003D76  0E00               	movlw	0
  8052  003D78  6E03               	movwf	(?___fldiv+2)^(0+1280),c
  8053  003D7A  0E00               	movlw	0
  8054  003D7C  6E04               	movwf	(?___fldiv+3)^(0+1280),c
  8055  003D7E  EFF2  F01F         	goto	i2l1219
  8056  003D82                     i2l3334:
  8057  003D82  5019               	movf	___fldiv@aexp^(0+1280),w,c
  8058  003D84  C518  F509         	movff	___fldiv@bexp,??___fldiv
  8059  003D88  6A0A               	clrf	(??___fldiv+1)^(0+1280),c
  8060  003D8A  5E09               	subwf	??___fldiv^(0+1280),f,c
  8061  003D8C  0E00               	movlw	0
  8062  003D8E  5A0A               	subwfb	(??___fldiv+1)^(0+1280),f,c
  8063  003D90  0E7F               	movlw	127
  8064  003D92  2409               	addwf	??___fldiv^(0+1280),w,c
  8065  003D94  6E12               	movwf	___fldiv@new_exp^(0+1280),c
  8066  003D96  0E00               	movlw	0
  8067  003D98  200A               	addwfc	(??___fldiv+1)^(0+1280),w,c
  8068  003D9A  6E13               	movwf	(___fldiv@new_exp+1)^(0+1280),c
  8069  003D9C  C501  F50D         	movff	___fldiv@b,___fldiv@rem
  8070  003DA0  C502  F50E         	movff	___fldiv@b+1,___fldiv@rem+1
  8071  003DA4  C503  F50F         	movff	___fldiv@b+2,___fldiv@rem+2
  8072  003DA8  C504  F510         	movff	___fldiv@b+3,___fldiv@rem+3
  8073  003DAC  0E00               	movlw	0
  8074  003DAE  6E01               	movwf	___fldiv@b^(0+1280),c
  8075  003DB0  0E00               	movlw	0
  8076  003DB2  6E02               	movwf	(___fldiv@b+1)^(0+1280),c
  8077  003DB4  0E00               	movlw	0
  8078  003DB6  6E03               	movwf	(___fldiv@b+2)^(0+1280),c
  8079  003DB8  0E00               	movlw	0
  8080  003DBA  6E04               	movwf	(___fldiv@b+3)^(0+1280),c
  8081  003DBC  0E00               	movlw	0
  8082  003DBE  6E14               	movwf	___fldiv@grs^(0+1280),c
  8083  003DC0  0E00               	movlw	0
  8084  003DC2  6E15               	movwf	(___fldiv@grs+1)^(0+1280),c
  8085  003DC4  0E00               	movlw	0
  8086  003DC6  6E16               	movwf	(___fldiv@grs+2)^(0+1280),c
  8087  003DC8  0E00               	movlw	0
  8088  003DCA  6E17               	movwf	(___fldiv@grs+3)^(0+1280),c
  8089  003DCC  0E00               	movlw	0
  8090  003DCE  6E19               	movwf	___fldiv@aexp^(0+1280),c
  8091  003DD0  EF22  F01F         	goto	i2l1221
  8092  003DD4                     i2l3344:
  8093  003DD4  5019               	movf	___fldiv@aexp^(0+1280),w,c
  8094  003DD6  B4D8               	btfsc	status,2,c
  8095  003DD8  EFF0  F01E         	goto	i2u279_41
  8096  003DDC  EFF2  F01E         	goto	i2u279_40
  8097  003DE0                     i2u279_41:
  8098  003DE0  EF09  F01F         	goto	i2l3352
  8099  003DE4                     i2u279_40:
  8100  003DE4  90D8               	bcf	status,0,c
  8101  003DE6  360D               	rlcf	___fldiv@rem^(0+1280),f,c
  8102  003DE8  360E               	rlcf	(___fldiv@rem+1)^(0+1280),f,c
  8103  003DEA  360F               	rlcf	(___fldiv@rem+2)^(0+1280),f,c
  8104  003DEC  3610               	rlcf	(___fldiv@rem+3)^(0+1280),f,c
  8105  003DEE  90D8               	bcf	status,0,c
  8106  003DF0  3601               	rlcf	___fldiv@b^(0+1280),f,c
  8107  003DF2  3602               	rlcf	(___fldiv@b+1)^(0+1280),f,c
  8108  003DF4  3603               	rlcf	(___fldiv@b+2)^(0+1280),f,c
  8109  003DF6  3604               	rlcf	(___fldiv@b+3)^(0+1280),f,c
  8110  003DF8  AE17               	btfss	(___fldiv@grs+3)^(0+1280),7,c
  8111  003DFA  EF01  F01F         	goto	i2u280_41
  8112  003DFE  EF03  F01F         	goto	i2u280_40
  8113  003E02                     i2u280_41:
  8114  003E02  EF04  F01F         	goto	i2l1224
  8115  003E06                     i2u280_40:
  8116  003E06  8001               	bsf	___fldiv@b^(0+1280),0,c
  8117  003E08                     i2l1224:
  8118  003E08  90D8               	bcf	status,0,c
  8119  003E0A  3614               	rlcf	___fldiv@grs^(0+1280),f,c
  8120  003E0C  3615               	rlcf	(___fldiv@grs+1)^(0+1280),f,c
  8121  003E0E  3616               	rlcf	(___fldiv@grs+2)^(0+1280),f,c
  8122  003E10  3617               	rlcf	(___fldiv@grs+3)^(0+1280),f,c
  8123  003E12                     i2l3352:
  8124  003E12  5005               	movf	___fldiv@a^(0+1280),w,c
  8125  003E14  5C0D               	subwf	___fldiv@rem^(0+1280),w,c
  8126  003E16  5006               	movf	(___fldiv@a+1)^(0+1280),w,c
  8127  003E18  580E               	subwfb	(___fldiv@rem+1)^(0+1280),w,c
  8128  003E1A  5007               	movf	(___fldiv@a+2)^(0+1280),w,c
  8129  003E1C  580F               	subwfb	(___fldiv@rem+2)^(0+1280),w,c
  8130  003E1E  5008               	movf	(___fldiv@a+3)^(0+1280),w,c
  8131  003E20  5810               	subwfb	(___fldiv@rem+3)^(0+1280),w,c
  8132  003E22  A0D8               	btfss	status,0,c
  8133  003E24  EF16  F01F         	goto	i2u281_41
  8134  003E28  EF18  F01F         	goto	i2u281_40
  8135  003E2C                     i2u281_41:
  8136  003E2C  EF21  F01F         	goto	i2l3358
  8137  003E30                     i2u281_40:
  8138  003E30  8C17               	bsf	(___fldiv@grs+3)^(0+1280),6,c
  8139  003E32  5005               	movf	___fldiv@a^(0+1280),w,c
  8140  003E34  5E0D               	subwf	___fldiv@rem^(0+1280),f,c
  8141  003E36  5006               	movf	(___fldiv@a+1)^(0+1280),w,c
  8142  003E38  5A0E               	subwfb	(___fldiv@rem+1)^(0+1280),f,c
  8143  003E3A  5007               	movf	(___fldiv@a+2)^(0+1280),w,c
  8144  003E3C  5A0F               	subwfb	(___fldiv@rem+2)^(0+1280),f,c
  8145  003E3E  5008               	movf	(___fldiv@a+3)^(0+1280),w,c
  8146  003E40  5A10               	subwfb	(___fldiv@rem+3)^(0+1280),f,c
  8147  003E42                     i2l3358:
  8148  003E42  2A19               	incf	___fldiv@aexp^(0+1280),f,c
  8149  003E44                     i2l1221:
  8150  003E44  0E19               	movlw	25
  8151  003E46  6419               	cpfsgt	___fldiv@aexp^(0+1280),c
  8152  003E48  EF28  F01F         	goto	i2u282_41
  8153  003E4C  EF2A  F01F         	goto	i2u282_40
  8154  003E50                     i2u282_41:
  8155  003E50  EFEA  F01E         	goto	i2l3344
  8156  003E54                     i2u282_40:
  8157  003E54  500D               	movf	___fldiv@rem^(0+1280),w,c
  8158  003E56  100E               	iorwf	(___fldiv@rem+1)^(0+1280),w,c
  8159  003E58  100F               	iorwf	(___fldiv@rem+2)^(0+1280),w,c
  8160  003E5A  1010               	iorwf	(___fldiv@rem+3)^(0+1280),w,c
  8161  003E5C  B4D8               	btfsc	status,2,c
  8162  003E5E  EF33  F01F         	goto	i2u283_41
  8163  003E62  EF35  F01F         	goto	i2u283_40
  8164  003E66                     i2u283_41:
  8165  003E66  EF4D  F01F         	goto	i2l3370
  8166  003E6A                     i2u283_40:
  8167  003E6A  8014               	bsf	___fldiv@grs^(0+1280),0,c
  8168  003E6C  EF4D  F01F         	goto	i2l3370
  8169  003E70                     i2l3364:
  8170  003E70  90D8               	bcf	status,0,c
  8171  003E72  3601               	rlcf	___fldiv@b^(0+1280),f,c
  8172  003E74  3602               	rlcf	(___fldiv@b+1)^(0+1280),f,c
  8173  003E76  3603               	rlcf	(___fldiv@b+2)^(0+1280),f,c
  8174  003E78  3604               	rlcf	(___fldiv@b+3)^(0+1280),f,c
  8175  003E7A  AE17               	btfss	(___fldiv@grs+3)^(0+1280),7,c
  8176  003E7C  EF42  F01F         	goto	i2u284_41
  8177  003E80  EF44  F01F         	goto	i2u284_40
  8178  003E84                     i2u284_41:
  8179  003E84  EF45  F01F         	goto	i2l1230
  8180  003E88                     i2u284_40:
  8181  003E88  8001               	bsf	___fldiv@b^(0+1280),0,c
  8182  003E8A                     i2l1230:
  8183  003E8A  90D8               	bcf	status,0,c
  8184  003E8C  3614               	rlcf	___fldiv@grs^(0+1280),f,c
  8185  003E8E  3615               	rlcf	(___fldiv@grs+1)^(0+1280),f,c
  8186  003E90  3616               	rlcf	(___fldiv@grs+2)^(0+1280),f,c
  8187  003E92  3617               	rlcf	(___fldiv@grs+3)^(0+1280),f,c
  8188  003E94  0612               	decf	___fldiv@new_exp^(0+1280),f,c
  8189  003E96  A0D8               	btfss	status,0,c
  8190  003E98  0613               	decf	(___fldiv@new_exp+1)^(0+1280),f,c
  8191  003E9A                     i2l3370:
  8192  003E9A  AE03               	btfss	(___fldiv@b+2)^(0+1280),7,c
  8193  003E9C  EF52  F01F         	goto	i2u285_41
  8194  003EA0  EF54  F01F         	goto	i2u285_40
  8195  003EA4                     i2u285_41:
  8196  003EA4  EF38  F01F         	goto	i2l3364
  8197  003EA8                     i2u285_40:
  8198  003EA8  0E00               	movlw	0
  8199  003EAA  6E19               	movwf	___fldiv@aexp^(0+1280),c
  8200  003EAC  AE17               	btfss	(___fldiv@grs+3)^(0+1280),7,c
  8201  003EAE  EF5B  F01F         	goto	i2u286_41
  8202  003EB2  EF5D  F01F         	goto	i2u286_40
  8203  003EB6                     i2u286_41:
  8204  003EB6  EF81  F01F         	goto	i2l1232
  8205  003EBA                     i2u286_40:
  8206  003EBA  0EFF               	movlw	255
  8207  003EBC  1414               	andwf	___fldiv@grs^(0+1280),w,c
  8208  003EBE  6E09               	movwf	??___fldiv^(0+1280),c
  8209  003EC0  0EFF               	movlw	255
  8210  003EC2  1415               	andwf	(___fldiv@grs+1)^(0+1280),w,c
  8211  003EC4  6E0A               	movwf	(??___fldiv+1)^(0+1280),c
  8212  003EC6  0EFF               	movlw	255
  8213  003EC8  1416               	andwf	(___fldiv@grs+2)^(0+1280),w,c
  8214  003ECA  6E0B               	movwf	(??___fldiv+2)^(0+1280),c
  8215  003ECC  0E7F               	movlw	127
  8216  003ECE  1417               	andwf	(___fldiv@grs+3)^(0+1280),w,c
  8217  003ED0  6E0C               	movwf	(??___fldiv+3)^(0+1280),c
  8218  003ED2  5009               	movf	??___fldiv^(0+1280),w,c
  8219  003ED4  100A               	iorwf	(??___fldiv+1)^(0+1280),w,c
  8220  003ED6  100B               	iorwf	(??___fldiv+2)^(0+1280),w,c
  8221  003ED8  100C               	iorwf	(??___fldiv+3)^(0+1280),w,c
  8222  003EDA  B4D8               	btfsc	status,2,c
  8223  003EDC  EF72  F01F         	goto	i2u287_41
  8224  003EE0  EF74  F01F         	goto	i2u287_40
  8225  003EE4                     i2u287_41:
  8226  003EE4  EF78  F01F         	goto	i2l1233
  8227  003EE8                     i2u287_40:
  8228  003EE8                     i2l3378:
  8229  003EE8  0E01               	movlw	1
  8230  003EEA  6E19               	movwf	___fldiv@aexp^(0+1280),c
  8231  003EEC  EF81  F01F         	goto	i2l1232
  8232  003EF0                     i2l1233:
  8233  003EF0  A001               	btfss	___fldiv@b^(0+1280),0,c
  8234  003EF2  EF7D  F01F         	goto	i2u288_41
  8235  003EF6  EF7F  F01F         	goto	i2u288_40
  8236  003EFA                     i2u288_41:
  8237  003EFA  EF81  F01F         	goto	i2l1232
  8238  003EFE                     i2u288_40:
  8239  003EFE  EF74  F01F         	goto	i2l3378
  8240  003F02                     i2l1232:
  8241  003F02  5019               	movf	___fldiv@aexp^(0+1280),w,c
  8242  003F04  B4D8               	btfsc	status,2,c
  8243  003F06  EF87  F01F         	goto	i2u289_41
  8244  003F0A  EF89  F01F         	goto	i2u289_40
  8245  003F0E                     i2u289_41:
  8246  003F0E  EFAD  F01F         	goto	i2l3390
  8247  003F12                     i2u289_40:
  8248  003F12  0E01               	movlw	1
  8249  003F14  2601               	addwf	___fldiv@b^(0+1280),f,c
  8250  003F16  0E00               	movlw	0
  8251  003F18  2202               	addwfc	(___fldiv@b+1)^(0+1280),f,c
  8252  003F1A  2203               	addwfc	(___fldiv@b+2)^(0+1280),f,c
  8253  003F1C  2204               	addwfc	(___fldiv@b+3)^(0+1280),f,c
  8254  003F1E  A004               	btfss	(___fldiv@b+3)^(0+1280),0,c
  8255  003F20  EF94  F01F         	goto	i2u290_41
  8256  003F24  EF96  F01F         	goto	i2u290_40
  8257  003F28                     i2u290_41:
  8258  003F28  EFAD  F01F         	goto	i2l3390
  8259  003F2C                     i2u290_40:
  8260  003F2C  C501  F509         	movff	___fldiv@b,??___fldiv
  8261  003F30  C502  F50A         	movff	___fldiv@b+1,??___fldiv+1
  8262  003F34  C503  F50B         	movff	___fldiv@b+2,??___fldiv+2
  8263  003F38  C504  F50C         	movff	___fldiv@b+3,??___fldiv+3
  8264  003F3C  340C               	rlcf	(??___fldiv+3)^(0+1280),w,c
  8265  003F3E  320C               	rrcf	(??___fldiv+3)^(0+1280),f,c
  8266  003F40  320B               	rrcf	(??___fldiv+2)^(0+1280),f,c
  8267  003F42  320A               	rrcf	(??___fldiv+1)^(0+1280),f,c
  8268  003F44  3209               	rrcf	??___fldiv^(0+1280),f,c
  8269  003F46  C509  F501         	movff	??___fldiv,___fldiv@b
  8270  003F4A  C50A  F502         	movff	??___fldiv+1,___fldiv@b+1
  8271  003F4E  C50B  F503         	movff	??___fldiv+2,___fldiv@b+2
  8272  003F52  C50C  F504         	movff	??___fldiv+3,___fldiv@b+3
  8273  003F56  4A12               	infsnz	___fldiv@new_exp^(0+1280),f,c
  8274  003F58  2A13               	incf	(___fldiv@new_exp+1)^(0+1280),f,c
  8275  003F5A                     i2l3390:
  8276  003F5A  BE13               	btfsc	(___fldiv@new_exp+1)^(0+1280),7,c
  8277  003F5C  EFB8  F01F         	goto	i2u291_41
  8278  003F60  5013               	movf	(___fldiv@new_exp+1)^(0+1280),w,c
  8279  003F62  E108               	bnz	i2u291_40
  8280  003F64  2812               	incf	___fldiv@new_exp^(0+1280),w,c
  8281  003F66  A0D8               	btfss	status,0,c
  8282  003F68  EFB8  F01F         	goto	i2u291_41
  8283  003F6C  EFBA  F01F         	goto	i2u291_40
  8284  003F70                     i2u291_41:
  8285  003F70  EFC5  F01F         	goto	i2l3394
  8286  003F74                     i2u291_40:
  8287  003F74  0E00               	movlw	0
  8288  003F76  6E13               	movwf	(___fldiv@new_exp+1)^(0+1280),c
  8289  003F78  6812               	setf	___fldiv@new_exp^(0+1280),c
  8290  003F7A  0E00               	movlw	0
  8291  003F7C  6E01               	movwf	___fldiv@b^(0+1280),c
  8292  003F7E  0E00               	movlw	0
  8293  003F80  6E02               	movwf	(___fldiv@b+1)^(0+1280),c
  8294  003F82  0E00               	movlw	0
  8295  003F84  6E03               	movwf	(___fldiv@b+2)^(0+1280),c
  8296  003F86  0E00               	movlw	0
  8297  003F88  6E04               	movwf	(___fldiv@b+3)^(0+1280),c
  8298  003F8A                     i2l3394:
  8299  003F8A  BE13               	btfsc	(___fldiv@new_exp+1)^(0+1280),7,c
  8300  003F8C  EFD2  F01F         	goto	i2u292_40
  8301  003F90  5013               	movf	(___fldiv@new_exp+1)^(0+1280),w,c
  8302  003F92  E106               	bnz	i2u292_41
  8303  003F94  0412               	decf	___fldiv@new_exp^(0+1280),w,c
  8304  003F96  B0D8               	btfsc	status,0,c
  8305  003F98  EFD0  F01F         	goto	i2u292_41
  8306  003F9C  EFD2  F01F         	goto	i2u292_40
  8307  003FA0                     i2u292_41:
  8308  003FA0  EFE0  F01F         	goto	i2l3398
  8309  003FA4                     i2u292_40:
  8310  003FA4  0E00               	movlw	0
  8311  003FA6  6E13               	movwf	(___fldiv@new_exp+1)^(0+1280),c
  8312  003FA8  0E00               	movlw	0
  8313  003FAA  6E12               	movwf	___fldiv@new_exp^(0+1280),c
  8314  003FAC  0E00               	movlw	0
  8315  003FAE  6E01               	movwf	___fldiv@b^(0+1280),c
  8316  003FB0  0E00               	movlw	0
  8317  003FB2  6E02               	movwf	(___fldiv@b+1)^(0+1280),c
  8318  003FB4  0E00               	movlw	0
  8319  003FB6  6E03               	movwf	(___fldiv@b+2)^(0+1280),c
  8320  003FB8  0E00               	movlw	0
  8321  003FBA  6E04               	movwf	(___fldiv@b+3)^(0+1280),c
  8322  003FBC  0E00               	movlw	0
  8323  003FBE  6E11               	movwf	___fldiv@sign^(0+1280),c
  8324  003FC0                     i2l3398:
  8325  003FC0  C512  F518         	movff	___fldiv@new_exp,___fldiv@bexp
  8326  003FC4  A018               	btfss	___fldiv@bexp^(0+1280),0,c
  8327  003FC6  EFE7  F01F         	goto	i2u293_41
  8328  003FCA  EFE9  F01F         	goto	i2u293_40
  8329  003FCE                     i2u293_41:
  8330  003FCE  EFEC  F01F         	goto	i2l3404
  8331  003FD2                     i2u293_40:
  8332  003FD2  8E03               	bsf	(___fldiv@b+2)^(0+1280),7,c
  8333  003FD4  EFED  F01F         	goto	i2l3406
  8334  003FD8                     i2l3404:
  8335  003FD8  9E03               	bcf	(___fldiv@b+2)^(0+1280),7,c
  8336  003FDA                     i2l3406:
  8337  003FDA  90D8               	bcf	status,0,c
  8338  003FDC  3018               	rrcf	___fldiv@bexp^(0+1280),w,c
  8339  003FDE  6E04               	movwf	(___fldiv@b+3)^(0+1280),c
  8340  003FE0  EFA3  F01E         	goto	i2l3320
  8341  003FE4                     i2l1219:
  8342  003FE4  0012               	return		;funcret
  8343  003FE6                     __end_of___fldiv:
  8344                           	callstack 0
  8345                           
  8346 ;; *************** function ___fltol *****************
  8347 ;; Defined at:
  8348 ;;		line 43 in file "C:\Program Files\Microchip\xc8\v2.32\pic\sources\c99\common\fltol.c"
  8349 ;; Parameters:    Size  Location     Type
  8350 ;;  f1              4   67[COMRAM] unsigned char 
  8351 ;; Auto vars:     Size  Location     Type
  8352 ;;  exp1            1   76[COMRAM] unsigned char 
  8353 ;;  sign1           1   75[COMRAM] unsigned char 
  8354 ;; Return value:  Size  Location     Type
  8355 ;;                  4   67[COMRAM] long 
  8356 ;; Registers used:
  8357 ;;		wreg, status,2, status,0
  8358 ;; Tracked objects:
  8359 ;;		On entry : 0/0
  8360 ;;		On exit  : 0/0
  8361 ;;		Unchanged: 0/0
  8362 ;; Data sizes:     COMRAM   BANK5   BANK6   BANK7   BANK8   BANK9  BANK10  BANK11  BANK12  BANK13  BANK14  BANK15  BANK1
      +6  BANK17  BANK18  BANK19  BANK20  BANK21  BANK22  BANK23  BANK24  BANK25  BANK26  BANK27  BANK28  BANK29  BANK30  BANK3
      +1  BANK32  BANK33  BANK34  BANK35  BANK36  BANK37
  8363 ;;      Params:         4       0       0       0       0       0       0       0       0       0       0       0       
      +0       0       0       0       0       0       0       0       0       0       0       0       0       0       0       
      +0       0       0       0       0       0       0
  8364 ;;      Locals:         2       0       0       0       0       0       0       0       0       0       0       0       
      +0       0       0       0       0       0       0       0       0       0       0       0       0       0       0       
      +0       0       0       0       0       0       0
  8365 ;;      Temps:          4       0       0       0       0       0       0       0       0       0       0       0       
      +0       0       0       0       0       0       0       0       0       0       0       0       0       0       0       
      +0       0       0       0       0       0       0
  8366 ;;      Totals:        10       0       0       0       0       0       0       0       0       0       0       0       
      +0       0       0       0       0       0       0       0       0       0       0       0       0       0       0       
      +0       0       0       0       0       0       0
  8367 ;;Total ram usage:       10 bytes
  8368 ;; Hardware stack levels used: 1
  8369 ;; This function calls:
  8370 ;;		Nothing
  8371 ;; This function is called by:
  8372 ;;		_INTERRUPT_InterruptManager
  8373 ;; This function uses a non-reentrant model
  8374 ;;
  8375                           
  8376                           	psect	text45
  8377  0046B0                     __ptext45:
  8378                           	callstack 0
  8379  0046B0                     ___fltol:
  8380                           	callstack 117
  8381  0046B0  3446               	rlcf	(___fltol@f1+2)^(0+1280),w,c
  8382  0046B2  3447               	rlcf	(___fltol@f1+3)^(0+1280),w,c
  8383  0046B4  6E4D               	movwf	___fltol@exp1^(0+1280),c
  8384  0046B6  504D               	movf	___fltol@exp1^(0+1280),w,c
  8385  0046B8  A4D8               	btfss	status,2,c
  8386  0046BA  EF61  F023         	goto	i2u460_41
  8387  0046BE  EF63  F023         	goto	i2u460_40
  8388  0046C2                     i2u460_41:
  8389  0046C2  EF6D  F023         	goto	i2l4350
  8390  0046C6                     i2u460_40:
  8391  0046C6                     i2l4346:
  8392  0046C6  0E00               	movlw	0
  8393  0046C8  6E44               	movwf	?___fltol^(0+1280),c
  8394  0046CA  0E00               	movlw	0
  8395  0046CC  6E45               	movwf	(?___fltol+1)^(0+1280),c
  8396  0046CE  0E00               	movlw	0
  8397  0046D0  6E46               	movwf	(?___fltol+2)^(0+1280),c
  8398  0046D2  0E00               	movlw	0
  8399  0046D4  6E47               	movwf	(?___fltol+3)^(0+1280),c
  8400  0046D6  EFDA  F023         	goto	i2l934
  8401  0046DA                     i2l4350:
  8402  0046DA  C544  F548         	movff	___fltol@f1,??___fltol
  8403  0046DE  C545  F549         	movff	___fltol@f1+1,??___fltol+1
  8404  0046E2  C546  F54A         	movff	___fltol@f1+2,??___fltol+2
  8405  0046E6  C547  F54B         	movff	___fltol@f1+3,??___fltol+3
  8406  0046EA  0E20               	movlw	32
  8407  0046EC  EF7D  F023         	goto	i2u461_40
  8408  0046F0                     i2u461_45:
  8409  0046F0  90D8               	bcf	status,0,c
  8410  0046F2  324B               	rrcf	(??___fltol+3)^(0+1280),f,c
  8411  0046F4  324A               	rrcf	(??___fltol+2)^(0+1280),f,c
  8412  0046F6  3249               	rrcf	(??___fltol+1)^(0+1280),f,c
  8413  0046F8  3248               	rrcf	??___fltol^(0+1280),f,c
  8414  0046FA                     i2u461_40:
  8415  0046FA  2EE8               	decfsz	wreg,f,c
  8416  0046FC  EF78  F023         	goto	i2u461_45
  8417  004700  5048               	movf	??___fltol^(0+1280),w,c
  8418  004702  6E4C               	movwf	___fltol@sign1^(0+1280),c
  8419  004704  8E46               	bsf	(___fltol@f1+2)^(0+1280),7,c
  8420  004706  0EFF               	movlw	255
  8421  004708  1644               	andwf	___fltol@f1^(0+1280),f,c
  8422  00470A  0EFF               	movlw	255
  8423  00470C  1645               	andwf	(___fltol@f1+1)^(0+1280),f,c
  8424  00470E  0EFF               	movlw	255
  8425  004710  1646               	andwf	(___fltol@f1+2)^(0+1280),f,c
  8426  004712  0E00               	movlw	0
  8427  004714  1647               	andwf	(___fltol@f1+3)^(0+1280),f,c
  8428  004716  0E96               	movlw	150
  8429  004718  5E4D               	subwf	___fltol@exp1^(0+1280),f,c
  8430  00471A  BE4D               	btfsc	___fltol@exp1^(0+1280),7,c
  8431  00471C  EF94  F023         	goto	i2u462_40
  8432  004720  EF92  F023         	goto	i2u462_41
  8433  004724                     i2u462_41:
  8434  004724  EFAA  F023         	goto	i2l4370
  8435  004728                     i2u462_40:
  8436  004728  504D               	movf	___fltol@exp1^(0+1280),w,c
  8437  00472A  0A80               	xorlw	128
  8438  00472C  0F97               	addlw	151
  8439  00472E  B0D8               	btfsc	status,0,c
  8440  004730  EF9C  F023         	goto	i2u463_41
  8441  004734  EF9E  F023         	goto	i2u463_40
  8442  004738                     i2u463_41:
  8443  004738  EFA0  F023         	goto	i2l4366
  8444  00473C                     i2u463_40:
  8445  00473C  EF63  F023         	goto	i2l4346
  8446  004740                     i2l4366:
  8447  004740  90D8               	bcf	status,0,c
  8448  004742  3247               	rrcf	(___fltol@f1+3)^(0+1280),f,c
  8449  004744  3246               	rrcf	(___fltol@f1+2)^(0+1280),f,c
  8450  004746  3245               	rrcf	(___fltol@f1+1)^(0+1280),f,c
  8451  004748  3244               	rrcf	___fltol@f1^(0+1280),f,c
  8452  00474A  3E4D               	incfsz	___fltol@exp1^(0+1280),f,c
  8453  00474C  EFA0  F023         	goto	i2l4366
  8454  004750  EFC2  F023         	goto	i2l4380
  8455  004754                     i2l4370:
  8456  004754  0E1F               	movlw	31
  8457  004756  644D               	cpfsgt	___fltol@exp1^(0+1280),c
  8458  004758  EFB0  F023         	goto	i2u464_41
  8459  00475C  EFB2  F023         	goto	i2u464_40
  8460  004760                     i2u464_41:
  8461  004760  EFBA  F023         	goto	i2l4378
  8462  004764                     i2u464_40:
  8463  004764  EF63  F023         	goto	i2l4346
  8464  004768                     i2l4376:
  8465  004768  90D8               	bcf	status,0,c
  8466  00476A  3644               	rlcf	___fltol@f1^(0+1280),f,c
  8467  00476C  3645               	rlcf	(___fltol@f1+1)^(0+1280),f,c
  8468  00476E  3646               	rlcf	(___fltol@f1+2)^(0+1280),f,c
  8469  004770  3647               	rlcf	(___fltol@f1+3)^(0+1280),f,c
  8470  004772  064D               	decf	___fltol@exp1^(0+1280),f,c
  8471  004774                     i2l4378:
  8472  004774  504D               	movf	___fltol@exp1^(0+1280),w,c
  8473  004776  A4D8               	btfss	status,2,c
  8474  004778  EFC0  F023         	goto	i2u465_41
  8475  00477C  EFC2  F023         	goto	i2u465_40
  8476  004780                     i2u465_41:
  8477  004780  EFB4  F023         	goto	i2l4376
  8478  004784                     i2u465_40:
  8479  004784                     i2l4380:
  8480  004784  504C               	movf	___fltol@sign1^(0+1280),w,c
  8481  004786  B4D8               	btfsc	status,2,c
  8482  004788  EFC8  F023         	goto	i2u466_41
  8483  00478C  EFCA  F023         	goto	i2u466_40
  8484  004790                     i2u466_41:
  8485  004790  EFD2  F023         	goto	i2l4384
  8486  004794                     i2u466_40:
  8487  004794  1E47               	comf	(___fltol@f1+3)^(0+1280),f,c
  8488  004796  1E46               	comf	(___fltol@f1+2)^(0+1280),f,c
  8489  004798  1E45               	comf	(___fltol@f1+1)^(0+1280),f,c
  8490  00479A  6C44               	negf	___fltol@f1^(0+1280),c
  8491  00479C  0E00               	movlw	0
  8492  00479E  2245               	addwfc	(___fltol@f1+1)^(0+1280),f,c
  8493  0047A0  2246               	addwfc	(___fltol@f1+2)^(0+1280),f,c
  8494  0047A2  2247               	addwfc	(___fltol@f1+3)^(0+1280),f,c
  8495  0047A4                     i2l4384:
  8496  0047A4  C544  F544         	movff	___fltol@f1,?___fltol
  8497  0047A8  C545  F545         	movff	___fltol@f1+1,?___fltol+1
  8498  0047AC  C546  F546         	movff	___fltol@f1+2,?___fltol+2
  8499  0047B0  C547  F547         	movff	___fltol@f1+3,?___fltol+3
  8500  0047B4                     i2l934:
  8501  0047B4  0012               	return		;funcret
  8502  0047B6                     __end_of___fltol:
  8503                           	callstack 0
  8504                           
  8505 ;; *************** function _UART1_Receive_ISR *****************
  8506 ;; Defined at:
  8507 ;;		line 214 in file "mcc_generated_files/uart1.c"
  8508 ;; Parameters:    Size  Location     Type
  8509 ;;		None
  8510 ;; Auto vars:     Size  Location     Type
  8511 ;;		None
  8512 ;; Return value:  Size  Location     Type
  8513 ;;                  1    wreg      void 
  8514 ;; Registers used:
  8515 ;;		wreg, fsr2l, fsr2h, status,2, status,0, pclath, tosl, cstack
  8516 ;; Tracked objects:
  8517 ;;		On entry : 0/0
  8518 ;;		On exit  : 0/0
  8519 ;;		Unchanged: 0/0
  8520 ;; Data sizes:     COMRAM   BANK5   BANK6   BANK7   BANK8   BANK9  BANK10  BANK11  BANK12  BANK13  BANK14  BANK15  BANK1
      +6  BANK17  BANK18  BANK19  BANK20  BANK21  BANK22  BANK23  BANK24  BANK25  BANK26  BANK27  BANK28  BANK29  BANK30  BANK3
      +1  BANK32  BANK33  BANK34  BANK35  BANK36  BANK37
  8521 ;;      Params:         0       0       0       0       0       0       0       0       0       0       0       0       
      +0       0       0       0       0       0       0       0       0       0       0       0       0       0       0       
      +0       0       0       0       0       0       0
  8522 ;;      Locals:         0       0       0       0       0       0       0       0       0       0       0       0       
      +0       0       0       0       0       0       0       0       0       0       0       0       0       0       0       
      +0       0       0       0       0       0       0
  8523 ;;      Temps:          0       0       0       0       0       0       0       0       0       0       0       0       
      +0       0       0       0       0       0       0       0       0       0       0       0       0       0       0       
      +0       0       0       0       0       0       0
  8524 ;;      Totals:         0       0       0       0       0       0       0       0       0       0       0       0       
      +0       0       0       0       0       0       0       0       0       0       0       0       0       0       0       
      +0       0       0       0       0       0       0
  8525 ;;Total ram usage:        0 bytes
  8526 ;; Hardware stack levels used: 1
  8527 ;; Hardware stack levels required when called: 2
  8528 ;; This function calls:
  8529 ;;		Absolute function
  8530 ;;		_UART1_DefaultErrorHandler
  8531 ;;		_UART1_DefaultFramingErrorHandler
  8532 ;;		_UART1_DefaultOverrunErrorHandler
  8533 ;;		_UART1_RxDataHandler
  8534 ;; This function is called by:
  8535 ;;		_UART1_Initialize
  8536 ;;		_INTERRUPT_InterruptManager
  8537 ;; This function uses a non-reentrant model
  8538 ;;
  8539                           
  8540                           	psect	text46
  8541  004B48                     __ptext46:
  8542                           	callstack 0
  8543  004B48                     _UART1_Receive_ISR:
  8544                           	callstack 115
  8545  004B48                     
  8546                           ;mcc_generated_files/uart1.c: 217:     uart1RxStatusBuffer[uart1RxHead].status = 0;
  8547  004B48  0EC1               	movlw	low _uart1RxStatusBuffer
  8548  004B4A  0105               	movlb	5	; () banked
  8549  004B4C  25DA               	addwf	_uart1RxHead& (0+255),w,b	;volatile
  8550  004B4E  6ED9               	movwf	fsr2l,c
  8551  004B50  6ADA               	clrf	fsr2h,c
  8552  004B52  0E05               	movlw	high _uart1RxStatusBuffer
  8553  004B54  22DA               	addwfc	fsr2h,f,c
  8554  004B56  0E00               	movlw	0
  8555  004B58  6EDF               	movwf	indf2,c
  8556  004B5A                     
  8557                           ; BSR set to: 5
  8558                           ;mcc_generated_files/uart1.c: 219:     if(U1ERRIRbits.FERIF){
  8559  004B5A  0102               	movlb	2	; () banked
  8560  004B5C  A7B2               	btfss	178,3,b	;volatile
  8561  004B5E  EFB3  F025         	goto	i2u452_41
  8562  004B62  EFB5  F025         	goto	i2u452_40
  8563  004B66                     i2u452_41:
  8564  004B66  EFCA  F025         	goto	i2l4314
  8565  004B6A                     i2u452_40:
  8566  004B6A                     
  8567                           ; BSR set to: 2
  8568                           ;mcc_generated_files/uart1.c: 220:         uart1RxStatusBuffer[uart1RxHead].ferr = 1;
  8569  004B6A  0EC1               	movlw	low _uart1RxStatusBuffer
  8570  004B6C  0105               	movlb	5	; () banked
  8571  004B6E  25DA               	addwf	_uart1RxHead& (0+255),w,b	;volatile
  8572  004B70  6ED9               	movwf	fsr2l,c
  8573  004B72  6ADA               	clrf	fsr2h,c
  8574  004B74  0E05               	movlw	high _uart1RxStatusBuffer
  8575  004B76  22DA               	addwfc	fsr2h,f,c
  8576  004B78  82DF               	bsf	indf2,1,c
  8577  004B7A                     
  8578                           ; BSR set to: 5
  8579                           ;mcc_generated_files/uart1.c: 221:         UART1_FramingErrorHandler();
  8580  004B7A  D802               	call	i2u453_48
  8581  004B7C  EFCA  F025         	goto	i2u453_49
  8582  004B80                     i2u453_48:
  8583  004B80  0005               	push	
  8584  004B82  6EFA               	movwf	pclath,c
  8585  004B84  51E1               	movf	_UART1_FramingErrorHandler& (0+255),w,b
  8586  004B86  6EFD               	movwf	tosl,c
  8587  004B88  51E2               	movf	(_UART1_FramingErrorHandler+1)& (0+255),w,b
  8588  004B8A  6EFE               	movwf	tosh,c
  8589  004B8C  51E3               	movf	(_UART1_FramingErrorHandler+2)& (0+255),w,b
  8590  004B8E  6EFF               	movwf	tosu,c
  8591  004B90  50FA               	movf	pclath,w,c
  8592  004B92  0012               	return		;indir
  8593  004B94                     i2u453_49:
  8594  004B94                     i2l4314:
  8595                           
  8596                           ;mcc_generated_files/uart1.c: 224:     if(U1ERRIRbits.RXFOIF){
  8597  004B94  0102               	movlb	2	; () banked
  8598  004B96  A3B2               	btfss	178,1,b	;volatile
  8599  004B98  EFD0  F025         	goto	i2u454_41
  8600  004B9C  EFD2  F025         	goto	i2u454_40
  8601  004BA0                     i2u454_41:
  8602  004BA0  EFE7  F025         	goto	i2l4320
  8603  004BA4                     i2u454_40:
  8604  004BA4                     
  8605                           ; BSR set to: 2
  8606                           ;mcc_generated_files/uart1.c: 225:         uart1RxStatusBuffer[uart1RxHead].oerr = 1;
  8607  004BA4  0EC1               	movlw	low _uart1RxStatusBuffer
  8608  004BA6  0105               	movlb	5	; () banked
  8609  004BA8  25DA               	addwf	_uart1RxHead& (0+255),w,b	;volatile
  8610  004BAA  6ED9               	movwf	fsr2l,c
  8611  004BAC  6ADA               	clrf	fsr2h,c
  8612  004BAE  0E05               	movlw	high _uart1RxStatusBuffer
  8613  004BB0  22DA               	addwfc	fsr2h,f,c
  8614  004BB2  84DF               	bsf	indf2,2,c
  8615  004BB4                     
  8616                           ; BSR set to: 5
  8617                           ;mcc_generated_files/uart1.c: 226:         UART1_OverrunErrorHandler();
  8618  004BB4  D802               	call	i2u455_48
  8619  004BB6  EFE7  F025         	goto	i2u455_49
  8620  004BBA                     i2u455_48:
  8621  004BBA  0005               	push	
  8622  004BBC  6EFA               	movwf	pclath,c
  8623  004BBE  51DE               	movf	_UART1_OverrunErrorHandler& (0+255),w,b
  8624  004BC0  6EFD               	movwf	tosl,c
  8625  004BC2  51DF               	movf	(_UART1_OverrunErrorHandler+1)& (0+255),w,b
  8626  004BC4  6EFE               	movwf	tosh,c
  8627  004BC6  51E0               	movf	(_UART1_OverrunErrorHandler+2)& (0+255),w,b
  8628  004BC8  6EFF               	movwf	tosu,c
  8629  004BCA  50FA               	movf	pclath,w,c
  8630  004BCC  0012               	return		;indir
  8631  004BCE                     i2u455_49:
  8632  004BCE                     i2l4320:
  8633                           
  8634                           ;mcc_generated_files/uart1.c: 229:     if(uart1RxStatusBuffer[uart1RxHead].status){
  8635  004BCE  0EC1               	movlw	low _uart1RxStatusBuffer
  8636  004BD0  0105               	movlb	5	; () banked
  8637  004BD2  25DA               	addwf	_uart1RxHead& (0+255),w,b	;volatile
  8638  004BD4  6ED9               	movwf	fsr2l,c
  8639  004BD6  6ADA               	clrf	fsr2h,c
  8640  004BD8  0E05               	movlw	high _uart1RxStatusBuffer
  8641  004BDA  22DA               	addwfc	fsr2h,f,c
  8642  004BDC  50DF               	movf	indf2,w,c
  8643  004BDE  B4D8               	btfsc	status,2,c
  8644  004BE0  EFF4  F025         	goto	i2u456_41
  8645  004BE4  EFF6  F025         	goto	i2u456_40
  8646  004BE8                     i2u456_41:
  8647  004BE8  EF05  F026         	goto	i2l4324
  8648  004BEC                     i2u456_40:
  8649  004BEC                     
  8650                           ; BSR set to: 5
  8651                           ;mcc_generated_files/uart1.c: 230:         UART1_ErrorHandler();
  8652  004BEC  D802               	call	i2u457_48
  8653  004BEE  EF03  F026         	goto	i2u457_49
  8654  004BF2                     i2u457_48:
  8655  004BF2  0005               	push	
  8656  004BF4  6EFA               	movwf	pclath,c
  8657  004BF6  51DB               	movf	_UART1_ErrorHandler& (0+255),w,b
  8658  004BF8  6EFD               	movwf	tosl,c
  8659  004BFA  51DC               	movf	(_UART1_ErrorHandler+1)& (0+255),w,b
  8660  004BFC  6EFE               	movwf	tosh,c
  8661  004BFE  51DD               	movf	(_UART1_ErrorHandler+2)& (0+255),w,b
  8662  004C00  6EFF               	movwf	tosu,c
  8663  004C02  50FA               	movf	pclath,w,c
  8664  004C04  0012               	return		;indir
  8665  004C06                     i2u457_49:
  8666                           
  8667                           ;mcc_generated_files/uart1.c: 231:     } else {
  8668  004C06  EF07  F026         	goto	i2l309
  8669  004C0A                     i2l4324:
  8670                           
  8671                           ; BSR set to: 5
  8672                           ;mcc_generated_files/uart1.c: 232:         UART1_RxDataHandler();
  8673  004C0A  EC72  F029         	call	_UART1_RxDataHandler	;wreg free
  8674  004C0E                     i2l309:
  8675  004C0E  0012               	return		;funcret
  8676  004C10                     __end_of_UART1_Receive_ISR:
  8677                           	callstack 0
  8678                           
  8679 ;; *************** function _UART1_DefaultOverrunErrorHandler *****************
  8680 ;; Defined at:
  8681 ;;		line 250 in file "mcc_generated_files/uart1.c"
  8682 ;; Parameters:    Size  Location     Type
  8683 ;;		None
  8684 ;; Auto vars:     Size  Location     Type
  8685 ;;		None
  8686 ;; Return value:  Size  Location     Type
  8687 ;;                  1    wreg      void 
  8688 ;; Registers used:
  8689 ;;		None
  8690 ;; Tracked objects:
  8691 ;;		On entry : 0/0
  8692 ;;		On exit  : 0/0
  8693 ;;		Unchanged: 0/0
  8694 ;; Data sizes:     COMRAM   BANK5   BANK6   BANK7   BANK8   BANK9  BANK10  BANK11  BANK12  BANK13  BANK14  BANK15  BANK1
      +6  BANK17  BANK18  BANK19  BANK20  BANK21  BANK22  BANK23  BANK24  BANK25  BANK26  BANK27  BANK28  BANK29  BANK30  BANK3
      +1  BANK32  BANK33  BANK34  BANK35  BANK36  BANK37
  8695 ;;      Params:         0       0       0       0       0       0       0       0       0       0       0       0       
      +0       0       0       0       0       0       0       0       0       0       0       0       0       0       0       
      +0       0       0       0       0       0       0
  8696 ;;      Locals:         0       0       0       0       0       0       0       0       0       0       0       0       
      +0       0       0       0       0       0       0       0       0       0       0       0       0       0       0       
      +0       0       0       0       0       0       0
  8697 ;;      Temps:          0       0       0       0       0       0       0       0       0       0       0       0       
      +0       0       0       0       0       0       0       0       0       0       0       0       0       0       0       
      +0       0       0       0       0       0       0
  8698 ;;      Totals:         0       0       0       0       0       0       0       0       0       0       0       0       
      +0       0       0       0       0       0       0       0       0       0       0       0       0       0       0       
      +0       0       0       0       0       0       0
  8699 ;;Total ram usage:        0 bytes
  8700 ;; Hardware stack levels used: 1
  8701 ;; This function calls:
  8702 ;;		Nothing
  8703 ;; This function is called by:
  8704 ;;		_UART1_Initialize
  8705 ;;		_UART1_Receive_ISR
  8706 ;; This function uses a non-reentrant model
  8707 ;;
  8708                           
  8709                           	psect	text47
  8710  0054DC                     __ptext47:
  8711                           	callstack 0
  8712  0054DC                     _UART1_DefaultOverrunErrorHandler:
  8713                           	callstack 116
  8714  0054DC  0012               	return		;funcret
  8715  0054DE                     __end_of_UART1_DefaultOverrunErrorHandler:
  8716                           	callstack 0
  8717                           
  8718 ;; *************** function _UART1_DefaultFramingErrorHandler *****************
  8719 ;; Defined at:
  8720 ;;		line 248 in file "mcc_generated_files/uart1.c"
  8721 ;; Parameters:    Size  Location     Type
  8722 ;;		None
  8723 ;; Auto vars:     Size  Location     Type
  8724 ;;		None
  8725 ;; Return value:  Size  Location     Type
  8726 ;;                  1    wreg      void 
  8727 ;; Registers used:
  8728 ;;		None
  8729 ;; Tracked objects:
  8730 ;;		On entry : 0/0
  8731 ;;		On exit  : 0/0
  8732 ;;		Unchanged: 0/0
  8733 ;; Data sizes:     COMRAM   BANK5   BANK6   BANK7   BANK8   BANK9  BANK10  BANK11  BANK12  BANK13  BANK14  BANK15  BANK1
      +6  BANK17  BANK18  BANK19  BANK20  BANK21  BANK22  BANK23  BANK24  BANK25  BANK26  BANK27  BANK28  BANK29  BANK30  BANK3
      +1  BANK32  BANK33  BANK34  BANK35  BANK36  BANK37
  8734 ;;      Params:         0       0       0       0       0       0       0       0       0       0       0       0       
      +0       0       0       0       0       0       0       0       0       0       0       0       0       0       0       
      +0       0       0       0       0       0       0
  8735 ;;      Locals:         0       0       0       0       0       0       0       0       0       0       0       0       
      +0       0       0       0       0       0       0       0       0       0       0       0       0       0       0       
      +0       0       0       0       0       0       0
  8736 ;;      Temps:          0       0       0       0       0       0       0       0       0       0       0       0       
      +0       0       0       0       0       0       0       0       0       0       0       0       0       0       0       
      +0       0       0       0       0       0       0
  8737 ;;      Totals:         0       0       0       0       0       0       0       0       0       0       0       0       
      +0       0       0       0       0       0       0       0       0       0       0       0       0       0       0       
      +0       0       0       0       0       0       0
  8738 ;;Total ram usage:        0 bytes
  8739 ;; Hardware stack levels used: 1
  8740 ;; This function calls:
  8741 ;;		Nothing
  8742 ;; This function is called by:
  8743 ;;		_UART1_Initialize
  8744 ;;		_UART1_Receive_ISR
  8745 ;; This function uses a non-reentrant model
  8746 ;;
  8747                           
  8748                           	psect	text48
  8749  0054DE                     __ptext48:
  8750                           	callstack 0
  8751  0054DE                     _UART1_DefaultFramingErrorHandler:
  8752                           	callstack 116
  8753  0054DE  0012               	return		;funcret
  8754  0054E0                     __end_of_UART1_DefaultFramingErrorHandler:
  8755                           	callstack 0
  8756                           
  8757 ;; *************** function _UART1_DefaultErrorHandler *****************
  8758 ;; Defined at:
  8759 ;;		line 252 in file "mcc_generated_files/uart1.c"
  8760 ;; Parameters:    Size  Location     Type
  8761 ;;		None
  8762 ;; Auto vars:     Size  Location     Type
  8763 ;;		None
  8764 ;; Return value:  Size  Location     Type
  8765 ;;                  1    wreg      void 
  8766 ;; Registers used:
  8767 ;;		wreg, fsr2l, fsr2h, status,2, status,0, cstack
  8768 ;; Tracked objects:
  8769 ;;		On entry : 0/0
  8770 ;;		On exit  : 0/0
  8771 ;;		Unchanged: 0/0
  8772 ;; Data sizes:     COMRAM   BANK5   BANK6   BANK7   BANK8   BANK9  BANK10  BANK11  BANK12  BANK13  BANK14  BANK15  BANK1
      +6  BANK17  BANK18  BANK19  BANK20  BANK21  BANK22  BANK23  BANK24  BANK25  BANK26  BANK27  BANK28  BANK29  BANK30  BANK3
      +1  BANK32  BANK33  BANK34  BANK35  BANK36  BANK37
  8773 ;;      Params:         0       0       0       0       0       0       0       0       0       0       0       0       
      +0       0       0       0       0       0       0       0       0       0       0       0       0       0       0       
      +0       0       0       0       0       0       0
  8774 ;;      Locals:         0       0       0       0       0       0       0       0       0       0       0       0       
      +0       0       0       0       0       0       0       0       0       0       0       0       0       0       0       
      +0       0       0       0       0       0       0
  8775 ;;      Temps:          0       0       0       0       0       0       0       0       0       0       0       0       
      +0       0       0       0       0       0       0       0       0       0       0       0       0       0       0       
      +0       0       0       0       0       0       0
  8776 ;;      Totals:         0       0       0       0       0       0       0       0       0       0       0       0       
      +0       0       0       0       0       0       0       0       0       0       0       0       0       0       0       
      +0       0       0       0       0       0       0
  8777 ;;Total ram usage:        0 bytes
  8778 ;; Hardware stack levels used: 1
  8779 ;; Hardware stack levels required when called: 1
  8780 ;; This function calls:
  8781 ;;		_UART1_RxDataHandler
  8782 ;; This function is called by:
  8783 ;;		_UART1_Initialize
  8784 ;;		_UART1_Receive_ISR
  8785 ;; This function uses a non-reentrant model
  8786 ;;
  8787                           
  8788                           	psect	text49
  8789  0054D2                     __ptext49:
  8790                           	callstack 0
  8791  0054D2                     _UART1_DefaultErrorHandler:
  8792                           	callstack 115
  8793  0054D2                     
  8794                           ;mcc_generated_files/uart1.c: 253:     UART1_RxDataHandler();
  8795  0054D2  EC72  F029         	call	_UART1_RxDataHandler	;wreg free
  8796  0054D6  0012               	return		;funcret
  8797  0054D8                     __end_of_UART1_DefaultErrorHandler:
  8798                           	callstack 0
  8799                           
  8800 ;; *************** function _UART1_RxDataHandler *****************
  8801 ;; Defined at:
  8802 ;;		line 238 in file "mcc_generated_files/uart1.c"
  8803 ;; Parameters:    Size  Location     Type
  8804 ;;		None
  8805 ;; Auto vars:     Size  Location     Type
  8806 ;;		None
  8807 ;; Return value:  Size  Location     Type
  8808 ;;                  1    wreg      void 
  8809 ;; Registers used:
  8810 ;;		wreg, fsr2l, fsr2h, status,2, status,0
  8811 ;; Tracked objects:
  8812 ;;		On entry : 0/0
  8813 ;;		On exit  : 0/0
  8814 ;;		Unchanged: 0/0
  8815 ;; Data sizes:     COMRAM   BANK5   BANK6   BANK7   BANK8   BANK9  BANK10  BANK11  BANK12  BANK13  BANK14  BANK15  BANK1
      +6  BANK17  BANK18  BANK19  BANK20  BANK21  BANK22  BANK23  BANK24  BANK25  BANK26  BANK27  BANK28  BANK29  BANK30  BANK3
      +1  BANK32  BANK33  BANK34  BANK35  BANK36  BANK37
  8816 ;;      Params:         0       0       0       0       0       0       0       0       0       0       0       0       
      +0       0       0       0       0       0       0       0       0       0       0       0       0       0       0       
      +0       0       0       0       0       0       0
  8817 ;;      Locals:         0       0       0       0       0       0       0       0       0       0       0       0       
      +0       0       0       0       0       0       0       0       0       0       0       0       0       0       0       
      +0       0       0       0       0       0       0
  8818 ;;      Temps:          0       0       0       0       0       0       0       0       0       0       0       0       
      +0       0       0       0       0       0       0       0       0       0       0       0       0       0       0       
      +0       0       0       0       0       0       0
  8819 ;;      Totals:         0       0       0       0       0       0       0       0       0       0       0       0       
      +0       0       0       0       0       0       0       0       0       0       0       0       0       0       0       
      +0       0       0       0       0       0       0
  8820 ;;Total ram usage:        0 bytes
  8821 ;; Hardware stack levels used: 1
  8822 ;; This function calls:
  8823 ;;		Nothing
  8824 ;; This function is called by:
  8825 ;;		_UART1_Receive_ISR
  8826 ;;		_UART1_DefaultErrorHandler
  8827 ;; This function uses a non-reentrant model
  8828 ;;
  8829                           
  8830                           	psect	text50
  8831  0052E4                     __ptext50:
  8832                           	callstack 0
  8833  0052E4                     _UART1_RxDataHandler:
  8834                           	callstack 116
  8835  0052E4                     
  8836                           ;mcc_generated_files/uart1.c: 240:     uart1RxBuffer[uart1RxHead++] = U1RXB;
  8837  0052E4  0EC9               	movlw	low _uart1RxBuffer
  8838  0052E6  0105               	movlb	5	; () banked
  8839  0052E8  25DA               	addwf	_uart1RxHead& (0+255),w,b	;volatile
  8840  0052EA  6ED9               	movwf	fsr2l,c
  8841  0052EC  6ADA               	clrf	fsr2h,c
  8842  0052EE  0E05               	movlw	high _uart1RxBuffer
  8843  0052F0  22DA               	addwfc	fsr2h,f,c
  8844  0052F2  C2A1 F4DF          	movff	673,indf2	;volatile
  8845  0052F6                     
  8846                           ; BSR set to: 5
  8847  0052F6  2BDA               	incf	_uart1RxHead& (0+255),f,b	;volatile
  8848  0052F8                     
  8849                           ; BSR set to: 5
  8850                           ;mcc_generated_files/uart1.c: 241:     if(sizeof(uart1RxBuffer) <= uart1RxHead)
  8851  0052F8  0E07               	movlw	7
  8852  0052FA  65DA               	cpfsgt	_uart1RxHead& (0+255),b	;volatile
  8853  0052FC  EF82  F029         	goto	i2u268_41
  8854  005300  EF84  F029         	goto	i2u268_40
  8855  005304                     i2u268_41:
  8856  005304  EF86  F029         	goto	i2l3258
  8857  005308                     i2u268_40:
  8858  005308                     
  8859                           ; BSR set to: 5
  8860                           ;mcc_generated_files/uart1.c: 242:     {;mcc_generated_files/uart1.c: 243:         uart1
      +                          RxHead = 0;
  8861  005308  0E00               	movlw	0
  8862  00530A  6FDA               	movwf	_uart1RxHead& (0+255),b	;volatile
  8863  00530C                     i2l3258:
  8864                           
  8865                           ; BSR set to: 5
  8866                           ;mcc_generated_files/uart1.c: 245:     uart1RxCount++;
  8867  00530C  2A57               	incf	_uart1RxCount^(0+1280),f,c	;volatile
  8868  00530E                     
  8869                           ; BSR set to: 5
  8870  00530E  0012               	return		;funcret
  8871  005310                     __end_of_UART1_RxDataHandler:
  8872                           	callstack 0
  8873                           
  8874 ;; *************** function _PWM1_LoadDutyValue *****************
  8875 ;; Defined at:
  8876 ;;		line 82 in file "mcc_generated_files/pwm1.c"
  8877 ;; Parameters:    Size  Location     Type
  8878 ;;  dutyValue       2    0[COMRAM] unsigned short 
  8879 ;; Auto vars:     Size  Location     Type
  8880 ;;		None
  8881 ;; Return value:  Size  Location     Type
  8882 ;;                  1    wreg      void 
  8883 ;; Registers used:
  8884 ;;		wreg, status,2, status,0
  8885 ;; Tracked objects:
  8886 ;;		On entry : 0/0
  8887 ;;		On exit  : 0/0
  8888 ;;		Unchanged: 0/0
  8889 ;; Data sizes:     COMRAM   BANK5   BANK6   BANK7   BANK8   BANK9  BANK10  BANK11  BANK12  BANK13  BANK14  BANK15  BANK1
      +6  BANK17  BANK18  BANK19  BANK20  BANK21  BANK22  BANK23  BANK24  BANK25  BANK26  BANK27  BANK28  BANK29  BANK30  BANK3
      +1  BANK32  BANK33  BANK34  BANK35  BANK36  BANK37
  8890 ;;      Params:         2       0       0       0       0       0       0       0       0       0       0       0       
      +0       0       0       0       0       0       0       0       0       0       0       0       0       0       0       
      +0       0       0       0       0       0       0
  8891 ;;      Locals:         0       0       0       0       0       0       0       0       0       0       0       0       
      +0       0       0       0       0       0       0       0       0       0       0       0       0       0       0       
      +0       0       0       0       0       0       0
  8892 ;;      Temps:          0       0       0       0       0       0       0       0       0       0       0       0       
      +0       0       0       0       0       0       0       0       0       0       0       0       0       0       0       
      +0       0       0       0       0       0       0
  8893 ;;      Totals:         2       0       0       0       0       0       0       0       0       0       0       0       
      +0       0       0       0       0       0       0       0       0       0       0       0       0       0       0       
      +0       0       0       0       0       0       0
  8894 ;;Total ram usage:        2 bytes
  8895 ;; Hardware stack levels used: 1
  8896 ;; This function calls:
  8897 ;;		Nothing
  8898 ;; This function is called by:
  8899 ;;		_INTERRUPT_InterruptManager
  8900 ;; This function uses a non-reentrant model
  8901 ;;
  8902                           
  8903                           	psect	text51
  8904  0052B2                     __ptext51:
  8905                           	callstack 0
  8906  0052B2                     _PWM1_LoadDutyValue:
  8907                           	callstack 117
  8908  0052B2                     
  8909                           ;mcc_generated_files/pwm1.c: 82: void PWM1_LoadDutyValue(uint16_t dutyValue);mcc_generat
      +                          ed_files/pwm1.c: 83: {;mcc_generated_files/pwm1.c: 84:     dutyValue &= 0x03FF;
  8910  0052B2  0EFF               	movlw	255
  8911  0052B4  1601               	andwf	PWM1_LoadDutyValue@dutyValue^(0+1280),f,c
  8912  0052B6  0E03               	movlw	3
  8913  0052B8  1602               	andwf	(PWM1_LoadDutyValue@dutyValue+1)^(0+1280),f,c
  8914  0052BA                     
  8915                           ;mcc_generated_files/pwm1.c: 87:     if(CCP1CONbits.FMT)
  8916  0052BA  0103               	movlb	3	; () banked
  8917  0052BC  A942               	btfss	66,4,b	;volatile
  8918  0052BE  EF63  F029         	goto	i2u458_41
  8919  0052C2  EF65  F029         	goto	i2u458_40
  8920  0052C6                     i2u458_41:
  8921  0052C6  EF6C  F029         	goto	i2l4336
  8922  0052CA                     i2u458_40:
  8923  0052CA                     
  8924                           ; BSR set to: 3
  8925                           ;mcc_generated_files/pwm1.c: 88:     {;mcc_generated_files/pwm1.c: 89:         dutyValue
      +                           <<= 6;
  8926  0052CA  0E06               	movlw	6
  8927  0052CC                     i2u459_45:
  8928  0052CC  90D8               	bcf	status,0,c
  8929  0052CE  3601               	rlcf	PWM1_LoadDutyValue@dutyValue^(0+1280),f,c
  8930  0052D0  3602               	rlcf	(PWM1_LoadDutyValue@dutyValue+1)^(0+1280),f,c
  8931  0052D2  2EE8               	decfsz	wreg,f,c
  8932  0052D4  EF66  F029         	goto	i2u459_45
  8933  0052D8                     i2l4336:
  8934                           
  8935                           ; BSR set to: 3
  8936                           ;mcc_generated_files/pwm1.c: 90:         CCPR1H = dutyValue >> 8;
  8937  0052D8  5002               	movf	(PWM1_LoadDutyValue@dutyValue+1)^(0+1280),w,c
  8938  0052DA  6F41               	movwf	65,b	;volatile
  8939  0052DC                     
  8940                           ; BSR set to: 3
  8941                           ;mcc_generated_files/pwm1.c: 91:         CCPR1L = dutyValue;
  8942  0052DC  0061  F404  F340   	movff	PWM1_LoadDutyValue@dutyValue,832	;volatile
  8943  0052E2                     
  8944                           ; BSR set to: 3
  8945  0052E2  0012               	return		;funcret
  8946  0052E4                     __end_of_PWM1_LoadDutyValue:
  8947                           	callstack 0
  8948                           
  8949                           ;
  8950                           ; Interrupt Vector Table @ 0x8
  8951                           ;
  8952                           
  8953                           	psect	ivt0x8
  8954  000008                     __pivt0x8:
  8955                           	callstack 0
  8956  000008                     ivt0x8_base:
  8957                           	callstack 0
  8958                           
  8959                           ; high-priority vector
  8960  000008  EFBD  F022         	goto	_INTERRUPT_InterruptManager
  8961  000018                     	org	16
  8962                           
  8963                           ; low-priority vector
  8964  000018  00FF               	reset	
  8965                           
  8966                           	psect	text52
  8967  000000                     __ptext52:
  8968                           	callstack 0
  8969  000000                     
  8970                           	psect	rparam
  8971  0000                     
  8972                           	psect	idloc
  8973                           
  8974                           ;Config register IDLOC0 @ 0x200000
  8975                           ;	unspecified, using default values
  8976  200000                     	org	2097152
  8977  200000  0FFF               	dw	4095
  8978                           
  8979                           ;Config register IDLOC1 @ 0x200002
  8980                           ;	unspecified, using default values
  8981  200002                     	org	2097154
  8982  200002  0FFF               	dw	4095
  8983                           
  8984                           ;Config register IDLOC2 @ 0x200004
  8985                           ;	unspecified, using default values
  8986  200004                     	org	2097156
  8987  200004  0FFF               	dw	4095
  8988                           
  8989                           ;Config register IDLOC3 @ 0x200006
  8990                           ;	unspecified, using default values
  8991  200006                     	org	2097158
  8992  200006  0FFF               	dw	4095
  8993                           
  8994                           ;Config register IDLOC4 @ 0x200008
  8995                           ;	unspecified, using default values
  8996  200008                     	org	2097160
  8997  200008  0FFF               	dw	4095
  8998                           
  8999                           ;Config register IDLOC5 @ 0x20000A
  9000                           ;	unspecified, using default values
  9001  20000A                     	org	2097162
  9002  20000A  0FFF               	dw	4095
  9003                           
  9004                           ;Config register IDLOC6 @ 0x20000C
  9005                           ;	unspecified, using default values
  9006  20000C                     	org	2097164
  9007  20000C  0FFF               	dw	4095
  9008                           
  9009                           ;Config register IDLOC7 @ 0x20000E
  9010                           ;	unspecified, using default values
  9011  20000E                     	org	2097166
  9012  20000E  0FFF               	dw	4095
  9013                           
  9014                           ;Config register IDLOC8 @ 0x200010
  9015                           ;	unspecified, using default values
  9016  200010                     	org	2097168
  9017  200010  0FFF               	dw	4095
  9018                           
  9019                           ;Config register IDLOC9 @ 0x200012
  9020                           ;	unspecified, using default values
  9021  200012                     	org	2097170
  9022  200012  0FFF               	dw	4095
  9023                           
  9024                           ;Config register IDLOC10 @ 0x200014
  9025                           ;	unspecified, using default values
  9026  200014                     	org	2097172
  9027  200014  0FFF               	dw	4095
  9028                           
  9029                           ;Config register IDLOC11 @ 0x200016
  9030                           ;	unspecified, using default values
  9031  200016                     	org	2097174
  9032  200016  0FFF               	dw	4095
  9033                           
  9034                           ;Config register IDLOC12 @ 0x200018
  9035                           ;	unspecified, using default values
  9036  200018                     	org	2097176
  9037  200018  0FFF               	dw	4095
  9038                           
  9039                           ;Config register IDLOC13 @ 0x20001A
  9040                           ;	unspecified, using default values
  9041  20001A                     	org	2097178
  9042  20001A  0FFF               	dw	4095
  9043                           
  9044                           ;Config register IDLOC14 @ 0x20001C
  9045                           ;	unspecified, using default values
  9046  20001C                     	org	2097180
  9047  20001C  0FFF               	dw	4095
  9048                           
  9049                           ;Config register IDLOC15 @ 0x20001E
  9050                           ;	unspecified, using default values
  9051  20001E                     	org	2097182
  9052  20001E  0FFF               	dw	4095
  9053                           
  9054                           	psect	config
  9055                           
  9056                           ;Config register CONFIG1 @ 0x300000
  9057                           ;	External Oscillator Selection
  9058                           ;	FEXTOSC = OFF, Oscillator not enabled
  9059                           ;	Reset Oscillator Selection
  9060                           ;	RSTOSC = HFINTOSC_64MHZ, HFINTOSC with HFFRQ = 64 MHz and CDIV = 1:1
  9061  300000                     	org	3145728
  9062  300000  8C                 	db	140
  9063                           
  9064                           ;Config register CONFIG2 @ 0x300001
  9065                           ;	Clock out Enable bit
  9066                           ;	CLKOUTEN = OFF, CLKOUT function is disabled
  9067                           ;	PRLOCKED One-Way Set Enable bit
  9068                           ;	PR1WAY = ON, PRLOCKED bit can be cleared and set only once
  9069                           ;	Clock Switch Enable bit
  9070                           ;	CSWEN = ON, Writing to NOSC and NDIV is allowed
  9071                           ;	Fail-Safe Clock Monitor Enable bit
  9072                           ;	FCMEN = ON, Fail-Safe Clock Monitor enabled
  9073  300001                     	org	3145729
  9074  300001  FF                 	db	255
  9075                           
  9076                           ;Config register CONFIG3 @ 0x300002
  9077                           ;	MCLR Enable bit
  9078                           ;	MCLRE = EXTMCLR, If LVP = 0, MCLR pin is MCLR; If LVP = 1, RE3 pin function is MCLR
  9079                           ;	Power-up timer selection bits
  9080                           ;	PWRTS = PWRT_OFF, PWRT is disabled
  9081                           ;	Multi-vector enable bit
  9082                           ;	MVECEN = OFF, Interrupt contoller does not use vector table to prioritze interrupts
  9083                           ;	IVTLOCK bit One-way set enable bit
  9084                           ;	IVT1WAY = ON, IVTLOCKED bit can be cleared and set only once
  9085                           ;	Low Power BOR Enable bit
  9086                           ;	LPBOREN = OFF, Low-Power BOR disabled
  9087                           ;	Brown-out Reset Enable bits
  9088                           ;	BOREN = SBORDIS, Brown-out Reset enabled , SBOREN bit is ignored
  9089  300002                     	org	3145730
  9090  300002  F7                 	db	247
  9091                           
  9092                           ;Config register CONFIG4 @ 0x300003
  9093                           ;	Brown-out Reset Voltage Selection bits
  9094                           ;	BORV = VBOR_1P9, Brown-out Reset Voltage (VBOR) set to 1.9V
  9095                           ;	ZCD Disable bit
  9096                           ;	ZCD = OFF, ZCD module is disabled. ZCD can be enabled by setting the ZCDSEN bit of ZCD
      +                          CON
  9097                           ;	PPSLOCK bit One-Way Set Enable bit
  9098                           ;	PPS1WAY = ON, PPSLOCKED bit can be cleared and set only once; PPS registers remain loc
      +                          ked after one clear/set cycle
  9099                           ;	Stack Full/Underflow Reset Enable bit
  9100                           ;	STVREN = ON, Stack full/underflow will cause Reset
  9101                           ;	Low Voltage Programming Enable bit
  9102                           ;	LVP = ON, Low voltage programming enabled. MCLR/VPP pin function is MCLR. MCLRE config
      +                          uration bit is ignored
  9103                           ;	Extended Instruction Set Enable bit
  9104                           ;	XINST = OFF, Extended Instruction Set and Indexed Addressing Mode disabled
  9105  300003                     	org	3145731
  9106  300003  FF                 	db	255
  9107                           
  9108                           ;Config register CONFIG5 @ 0x300004
  9109                           ;	WDT Period selection bits
  9110                           ;	WDTCPS = WDTCPS_31, Divider ratio 1:65536; software control of WDTPS
  9111                           ;	WDT operating mode
  9112                           ;	WDTE = OFF, WDT Disabled; SWDTEN is ignored
  9113  300004                     	org	3145732
  9114  300004  9F                 	db	159
  9115                           
  9116                           ;Config register CONFIG6 @ 0x300005
  9117                           ;	WDT Window Select bits
  9118                           ;	WDTCWS = WDTCWS_7, window always open (100%); software control; keyed access not requi
      +                          red
  9119                           ;	WDT input clock selector
  9120                           ;	WDTCCS = SC, Software Control
  9121  300005                     	org	3145733
  9122  300005  FF                 	db	255
  9123                           
  9124                           ;Config register CONFIG7 @ 0x300006
  9125                           ;	Boot Block Size selection bits
  9126                           ;	BBSIZE = BBSIZE_512, Boot Block size is 512 words
  9127                           ;	Boot Block enable bit
  9128                           ;	BBEN = OFF, Boot block disabled
  9129                           ;	Storage Area Flash enable bit
  9130                           ;	SAFEN = OFF, SAF disabled
  9131                           ;	Background Debugger
  9132                           ;	DEBUG = OFF, Background Debugger disabled
  9133  300006                     	org	3145734
  9134  300006  FF                 	db	255
  9135                           
  9136                           ;Config register CONFIG8 @ 0x300007
  9137                           ;	Boot Block Write Protection bit
  9138                           ;	WRTB = OFF, Boot Block not Write protected
  9139                           ;	Configuration Register Write Protection bit
  9140                           ;	WRTC = OFF, Configuration registers not Write protected
  9141                           ;	Data EEPROM Write Protection bit
  9142                           ;	WRTD = OFF, Data EEPROM not Write protected
  9143                           ;	SAF Write protection bit
  9144                           ;	WRTSAF = OFF, SAF not Write Protected
  9145                           ;	Application Block write protection bit
  9146                           ;	WRTAPP = OFF, Application Block not write protected
  9147  300007                     	org	3145735
  9148  300007  FF                 	db	255
  9149                           
  9150                           ; Padding undefined space
  9151  300008                     	org	3145736
  9152  300008  FF                 	db	255
  9153                           
  9154                           ;Config register CONFIG10 @ 0x300009
  9155                           ;	PFM and Data EEPROM Code Protection bit
  9156                           ;	CP = OFF, PFM and Data EEPROM code protection disabled
  9157  300009                     	org	3145737
  9158  300009  FF                 	db	255
  9159                           tosu	equ	0x4FF
  9160                           tosh	equ	0x4FE
  9161                           tosl	equ	0x4FD
  9162                           stkptr	equ	0x4FC
  9163                           pclatu	equ	0x4FB
  9164                           pclath	equ	0x4FA
  9165                           pcl	equ	0x4F9
  9166                           tblptru	equ	0x4F8
  9167                           tblptrh	equ	0x4F7
  9168                           tblptrl	equ	0x4F6
  9169                           tablat	equ	0x4F5
  9170                           prodh	equ	0x4F4
  9171                           prodl	equ	0x4F3
  9172                           indf0	equ	0x4EF
  9173                           postinc0	equ	0x4EE
  9174                           postdec0	equ	0x4ED
  9175                           preinc0	equ	0x4EC
  9176                           plusw0	equ	0x4EB
  9177                           fsr0h	equ	0x4EA
  9178                           fsr0l	equ	0x4E9
  9179                           wreg	equ	0x4E8
  9180                           indf1	equ	0x4E7
  9181                           postinc1	equ	0x4E6
  9182                           postdec1	equ	0x4E5
  9183                           preinc1	equ	0x4E4
  9184                           plusw1	equ	0x4E3
  9185                           fsr1h	equ	0x4E2
  9186                           fsr1l	equ	0x4E1
  9187                           bsr	equ	0x4E0
  9188                           indf2	equ	0x4DF
  9189                           postinc2	equ	0x4DE
  9190                           postdec2	equ	0x4DD
  9191                           preinc2	equ	0x4DC
  9192                           plusw2	equ	0x4DB
  9193                           fsr2h	equ	0x4DA
  9194                           fsr2l	equ	0x4D9
  9195                           status	equ	0x4D8

Data Sizes:
    Strings     33
    Constant    0
    Data        0
    BSS         165
    Persistent  12
    Stack       0

Auto Spaces:
    Space          Size  Autos    Used
    COMRAM           95     81      91
    BANK5           160     97     132
    BANK6           256      0     132
    BANK7           256      0       0
    BANK8           256      0       0
    BANK9           256      0       0
    BANK10          256      0       0
    BANK11          256      0       0
    BANK12          256      0       0
    BANK13          256      0       0
    BANK14          256      0       0
    BANK15          256      0       0
    BANK16          256      0       0
    BANK17          256      0       0
    BANK18          256      0       0
    BANK19          256      0       0
    BANK20          256      0       0
    BANK21          256      0       0
    BANK22          256      0       0
    BANK23          256      0       0
    BANK24          256      0       0
    BANK25          256      0       0
    BANK26          256      0       0
    BANK27          256      0       0
    BANK28          256      0       0
    BANK29          256      0       0
    BANK30          256      0       0
    BANK31          256      0       0
    BANK32          256      0       0
    BANK33          256      0       0
    BANK34          256      0       0
    BANK35          256      0       0
    BANK36          256      0       0
    BANK37          256      0       0

Pointer List with Targets:

    nanf@s	PTR const unsigned char  size(2) Largest target is 1
		 -> STR_10(CODE[1]), 

    atof@s	PTR const unsigned char  size(2) Largest target is 100
		 -> buffer_rx(BANK6[100]), 

    strtof@s	PTR const unsigned char  size(2) Largest target is 100
		 -> buffer_rx(BANK6[100]), 

    strtof@res	PTR PTR unsigned char  size(2) Largest target is 0
		 -> NULL(NULL[0]), 

    strlen@s	PTR const unsigned char  size(2) Largest target is 32
		 -> dbuf(BANK6[32]), 

    strlen@a	PTR const unsigned char  size(2) Largest target is 32
		 -> dbuf(BANK6[32]), 

    fputs@s	PTR const unsigned char  size(2) Largest target is 32
		 -> dbuf(BANK6[32]), 

    fputs@fp	PTR struct _IO_FILE size(2) Largest target is 0
		 -> NULL(NULL[0]), 

    S1798_IO_FILE$buffer	PTR unsigned char  size(2) Largest target is 0

    fputc@fp.buffer	PTR unsigned char  size(2) Largest target is 0

    fputc@fp	PTR struct _IO_FILE size(2) Largest target is 0
		 -> NULL(NULL[0]), 

    vfprintf@ap	PTR PTR void  size(2) Largest target is 2
		 -> printf@ap(BANK5[2]), 

    vfprintf@fp	PTR struct _IO_FILE size(2) Largest target is 0
		 -> NULL(NULL[0]), 

    vfprintf@fmt	PTR const unsigned char  size(2) Largest target is 3
		 -> STR_1(CODE[3]), 

    vfprintf@cfmt	PTR unsigned char  size(2) Largest target is 3
		 -> STR_1(CODE[3]), 

    vfpfcnvrt@fp	PTR struct _IO_FILE size(2) Largest target is 0
		 -> NULL(NULL[0]), 

    vfpfcnvrt@ap	PTR PTR void  size(2) Largest target is 2
		 -> printf@ap(BANK5[2]), 

    vfpfcnvrt@fmt	PTR PTR unsigned char  size(2) Largest target is 2
		 -> vfprintf@cfmt(BANK5[2]), 

    utoa@fp	PTR struct _IO_FILE size(2) Largest target is 0
		 -> NULL(NULL[0]), 

    pad@fp	PTR struct _IO_FILE size(2) Largest target is 0
		 -> NULL(NULL[0]), 

    pad@buf	PTR unsigned char  size(2) Largest target is 32
		 -> dbuf(BANK6[32]), 

    printf@fmt	PTR const unsigned char  size(2) Largest target is 3
		 -> STR_1(CODE[3]), 

    printf@ap	PTR void [1] size(2) Largest target is 2
		 -> ?_printf(BANK5[2]), 

    UART1_SetRxInterruptHandler@InterruptHandler	PTR FTN()void  size(3) Largest target is 1
		 -> UART1_Receive_ISR(), 

    UART1_RxInterruptHandler	PTR FTN()void  size(3) Largest target is 1
		 -> Absolute function(), UART1_Receive_ISR(), 

    UART1_SetErrorHandler@interruptHandler	PTR FTN()void  size(3) Largest target is 1
		 -> UART1_DefaultErrorHandler(), 

    UART1_SetOverrunErrorHandler@interruptHandler	PTR FTN()void  size(3) Largest target is 1
		 -> UART1_DefaultOverrunErrorHandler(), 

    UART1_SetFramingErrorHandler@interruptHandler	PTR FTN()void  size(3) Largest target is 1
		 -> UART1_DefaultFramingErrorHandler(), 

    UART1_ErrorHandler	PTR FTN()void  size(3) Largest target is 1
		 -> Absolute function(), UART1_DefaultErrorHandler(), 

    UART1_OverrunErrorHandler	PTR FTN()void  size(3) Largest target is 1
		 -> Absolute function(), UART1_DefaultOverrunErrorHandler(), 

    UART1_FramingErrorHandler	PTR FTN()void  size(3) Largest target is 1
		 -> Absolute function(), UART1_DefaultFramingErrorHandler(), 


Critical Paths under _main in COMRAM

    None.

Critical Paths under _INTERRUPT_InterruptManager in COMRAM

    _INTERRUPT_InterruptManager->___fltol
    _atof->_strtof
    _strtof->___fldiv
    _strtof->___flmul
    _toupper->_islower
    ___fltol->_atof

Critical Paths under _main in BANK5

    _main->_printf
    _printf->_vfprintf
    _vfprintf->_vfpfcnvrt
    _vfpfcnvrt->_utoa
    _utoa->_pad
    _pad->_fputs
    _fputs->_fputc
    _fputc->_putch
    _putch->_UART1_Write
    _UART1_Initialize->_UART1_SetErrorHandler
    _UART1_Initialize->_UART1_SetFramingErrorHandler
    _UART1_Initialize->_UART1_SetOverrunErrorHandler
    _UART1_Initialize->_UART1_SetRxInterruptHandler

Critical Paths under _INTERRUPT_InterruptManager in BANK5

    None.

Critical Paths under _main in BANK6

    None.

Critical Paths under _INTERRUPT_InterruptManager in BANK6

    None.

Critical Paths under _main in BANK7

    None.

Critical Paths under _INTERRUPT_InterruptManager in BANK7

    None.

Critical Paths under _main in BANK8

    None.

Critical Paths under _INTERRUPT_InterruptManager in BANK8

    None.

Critical Paths under _main in BANK9

    None.

Critical Paths under _INTERRUPT_InterruptManager in BANK9

    None.

Critical Paths under _main in BANK10

    None.

Critical Paths under _INTERRUPT_InterruptManager in BANK10

    None.

Critical Paths under _main in BANK11

    None.

Critical Paths under _INTERRUPT_InterruptManager in BANK11

    None.

Critical Paths under _main in BANK12

    None.

Critical Paths under _INTERRUPT_InterruptManager in BANK12

    None.

Critical Paths under _main in BANK13

    None.

Critical Paths under _INTERRUPT_InterruptManager in BANK13

    None.

Critical Paths under _main in BANK14

    None.

Critical Paths under _INTERRUPT_InterruptManager in BANK14

    None.

Critical Paths under _main in BANK15

    None.

Critical Paths under _INTERRUPT_InterruptManager in BANK15

    None.

Critical Paths under _main in BANK16

    None.

Critical Paths under _INTERRUPT_InterruptManager in BANK16

    None.

Critical Paths under _main in BANK17

    None.

Critical Paths under _INTERRUPT_InterruptManager in BANK17

    None.

Critical Paths under _main in BANK18

    None.

Critical Paths under _INTERRUPT_InterruptManager in BANK18

    None.

Critical Paths under _main in BANK19

    None.

Critical Paths under _INTERRUPT_InterruptManager in BANK19

    None.

Critical Paths under _main in BANK20

    None.

Critical Paths under _INTERRUPT_InterruptManager in BANK20

    None.

Critical Paths under _main in BANK21

    None.

Critical Paths under _INTERRUPT_InterruptManager in BANK21

    None.

Critical Paths under _main in BANK22

    None.

Critical Paths under _INTERRUPT_InterruptManager in BANK22

    None.

Critical Paths under _main in BANK23

    None.

Critical Paths under _INTERRUPT_InterruptManager in BANK23

    None.

Critical Paths under _main in BANK24

    None.

Critical Paths under _INTERRUPT_InterruptManager in BANK24

    None.

Critical Paths under _main in BANK25

    None.

Critical Paths under _INTERRUPT_InterruptManager in BANK25

    None.

Critical Paths under _main in BANK26

    None.

Critical Paths under _INTERRUPT_InterruptManager in BANK26

    None.

Critical Paths under _main in BANK27

    None.

Critical Paths under _INTERRUPT_InterruptManager in BANK27

    None.

Critical Paths under _main in BANK28

    None.

Critical Paths under _INTERRUPT_InterruptManager in BANK28

    None.

Critical Paths under _main in BANK29

    None.

Critical Paths under _INTERRUPT_InterruptManager in BANK29

    None.

Critical Paths under _main in BANK30

    None.

Critical Paths under _INTERRUPT_InterruptManager in BANK30

    None.

Critical Paths under _main in BANK31

    None.

Critical Paths under _INTERRUPT_InterruptManager in BANK31

    None.

Critical Paths under _main in BANK32

    None.

Critical Paths under _INTERRUPT_InterruptManager in BANK32

    None.

Critical Paths under _main in BANK33

    None.

Critical Paths under _INTERRUPT_InterruptManager in BANK33

    None.

Critical Paths under _main in BANK34

    None.

Critical Paths under _INTERRUPT_InterruptManager in BANK34

    None.

Critical Paths under _main in BANK35

    None.

Critical Paths under _INTERRUPT_InterruptManager in BANK35

    None.

Critical Paths under _main in BANK36

    None.

Critical Paths under _INTERRUPT_InterruptManager in BANK36

    None.

Critical Paths under _main in BANK37

    None.

Critical Paths under _INTERRUPT_InterruptManager in BANK37

    None.

Call Graph Tables:

 ---------------------------------------------------------------------------------
 (Depth) Function   	        Calls       Base Space   Used Autos Params    Refs
 ---------------------------------------------------------------------------------
 (0) _main                                                 4     4      0    5984
                                             93 BANK5      4     4      0
           _ADCC_GetConversionResult
               _ADCC_StartConversion
                  _SYSTEM_Initialize
                             _printf
 ---------------------------------------------------------------------------------
 (1) _printf                                               8     4      4    5547
                                             87 BANK5      6     2      4
                           _vfprintf
 ---------------------------------------------------------------------------------
 (2) _vfprintf                                             8     2      6    5417
                                             79 BANK5      8     2      6
                          _vfpfcnvrt
 ---------------------------------------------------------------------------------
 (3) _vfpfcnvrt                                           44    38      6    5064
                                             61 BANK5     18    12      6
                              _fputc
                               _utoa
 ---------------------------------------------------------------------------------
 (4) _utoa                                                32    22     10    3715
                                             29 BANK5     32    22     10
                            ___lodiv
                            ___lomod
                                _pad
 ---------------------------------------------------------------------------------
 (5) _pad                                                 11     5      6    2665
                                             18 BANK5     11     5      6
                              _fputc
                              _fputs
                             _strlen
 ---------------------------------------------------------------------------------
 (6) _strlen                                               4     2      2     166
                                              0 BANK5      4     2      2
 ---------------------------------------------------------------------------------
 (6) _fputs                                                7     3      4    1213
                                             11 BANK5      7     3      4
                              _fputc
 ---------------------------------------------------------------------------------
 (7) _fputc                                                9     5      4     812
                                              2 BANK5      9     5      4
                              _putch
 ---------------------------------------------------------------------------------
 (8) _putch                                                1     1      0      44
                                              1 BANK5      1     1      0
                        _UART1_Write
 ---------------------------------------------------------------------------------
 (9) _UART1_Write                                          1     1      0      22
                                              0 BANK5      1     1      0
 ---------------------------------------------------------------------------------
 (5) ___lomod                                             17     1     16     311
                                              0 BANK5     17     1     16
 ---------------------------------------------------------------------------------
 (5) ___lodiv                                             25     9     16     314
                                              0 BANK5     25     9     16
 ---------------------------------------------------------------------------------
 (1) _SYSTEM_Initialize                                    0     0      0     392
                    _ADCC_Initialize
               _INTERRUPT_Initialize
              _OSCILLATOR_Initialize
             _PIN_MANAGER_Initialize
                     _PMD_Initialize
                    _PWM1_Initialize
                    _TMR2_Initialize
                   _UART1_Initialize
 ---------------------------------------------------------------------------------
 (2) _UART1_Initialize                                     0     0      0     392
              _UART1_SetErrorHandler
       _UART1_SetFramingErrorHandler
       _UART1_SetOverrunErrorHandler
        _UART1_SetRxInterruptHandler
 ---------------------------------------------------------------------------------
 (3) _UART1_SetRxInterruptHandler                          3     0      3      98
                                              0 BANK5      3     0      3
 ---------------------------------------------------------------------------------
 (3) _UART1_SetOverrunErrorHandler                         3     0      3      98
                                              0 BANK5      3     0      3
 ---------------------------------------------------------------------------------
 (3) _UART1_SetFramingErrorHandler                         3     0      3      98
                                              0 BANK5      3     0      3
 ---------------------------------------------------------------------------------
 (3) _UART1_SetErrorHandler                                3     0      3      98
                                              0 BANK5      3     0      3
 ---------------------------------------------------------------------------------
 (2) _TMR2_Initialize                                      0     0      0       0
 ---------------------------------------------------------------------------------
 (2) _PWM1_Initialize                                      0     0      0       0
 ---------------------------------------------------------------------------------
 (2) _PMD_Initialize                                       0     0      0       0
 ---------------------------------------------------------------------------------
 (2) _PIN_MANAGER_Initialize                               0     0      0       0
 ---------------------------------------------------------------------------------
 (2) _OSCILLATOR_Initialize                                0     0      0       0
 ---------------------------------------------------------------------------------
 (2) _INTERRUPT_Initialize                                 0     0      0       0
 ---------------------------------------------------------------------------------
 (2) _ADCC_Initialize                                      0     0      0       0
 ---------------------------------------------------------------------------------
 (1) _ADCC_StartConversion                                 1     1      0      22
                                              0 BANK5      1     1      0
 ---------------------------------------------------------------------------------
 (1) _ADCC_GetConversionResult                             4     2      2       0
                                              0 BANK5      4     2      2
 ---------------------------------------------------------------------------------
 Estimated maximum stack depth 9
 ---------------------------------------------------------------------------------
 (Depth) Function   	        Calls       Base Space   Used Autos Params    Refs
 ---------------------------------------------------------------------------------
 (10) _INTERRUPT_InterruptManager                          4     4      0   12974
                                             77 COMRAM     4     4      0
                   Absolute function *
                 _PWM1_LoadDutyValue
                  _UART1_Receive_ISR *
                            ___fltol
                               _atof
 ---------------------------------------------------------------------------------
 (11) _atof                                                4     0      4   12503
                                             63 COMRAM     4     0      4
                             _strtof
 ---------------------------------------------------------------------------------
 (12) _strtof                                             38    34      4   12405
                                             25 COMRAM    38    34      4
                            ___fldiv
                             ___fleq
                             ___flge
                            ___flmul
                            ___flneg
                             ___lmul
                             ___wmul
                           ___xxtofl
                            _isdigit
                            _isspace
                           _isxdigit
                               _nanf
                            _toupper
 ---------------------------------------------------------------------------------
 (13) _toupper                                             8     6      2     488
                                              6 COMRAM     8     6      2
                            _islower
 ---------------------------------------------------------------------------------
 (14) _islower                                             6     4      2     161
                                              0 COMRAM     6     4      2
 ---------------------------------------------------------------------------------
 (13) _nanf                                                8     4      4      99
                                              0 COMRAM     8     4      4
 ---------------------------------------------------------------------------------
 (13) _isxdigit                                            7     5      2     283
                                              0 COMRAM     7     5      2
 ---------------------------------------------------------------------------------
 (13) _isspace                                             7     5      2     207
                                              0 COMRAM     7     5      2
 ---------------------------------------------------------------------------------
 (13) _isdigit                                             6     4      2     692
                                              0 COMRAM     6     4      2
 ---------------------------------------------------------------------------------
 (13) ___xxtofl                                           14    10      4     398
                                              0 COMRAM    14    10      4
 ---------------------------------------------------------------------------------
 (13) ___wmul                                              6     2      4     661
                                              0 COMRAM     6     2      4
 ---------------------------------------------------------------------------------
 (13) ___lmul                                             12     4      8     370
                                              0 COMRAM    12     4      8
 ---------------------------------------------------------------------------------
 (13) ___flneg                                             4     0      4     121
                                              0 COMRAM     4     0      4
 ---------------------------------------------------------------------------------
 (13) ___flmul                                            25    17      8    1896
                                              0 COMRAM    25    17      8
 ---------------------------------------------------------------------------------
 (13) ___flge                                             12     4      8     486
                                              0 COMRAM    12     4      8
 ---------------------------------------------------------------------------------
 (13) ___fleq                                             12     4      8     494
                                              0 COMRAM    12     4      8
 ---------------------------------------------------------------------------------
 (13) ___fldiv                                            25    17      8    1551
                                              0 COMRAM    25    17      8
 ---------------------------------------------------------------------------------
 (11) ___fltol                                            10     6      4     305
                                             67 COMRAM    10     6      4
                               _atof (ARG)
 ---------------------------------------------------------------------------------
 (11) _UART1_Receive_ISR                                   0     0      0       0
                   Absolute function *
          _UART1_DefaultErrorHandler *
   _UART1_DefaultFramingErrorHandler *
   _UART1_DefaultOverrunErrorHandler *
                _UART1_RxDataHandler
 ---------------------------------------------------------------------------------
 (12) _UART1_DefaultOverrunErrorHandler                    0     0      0       0
 ---------------------------------------------------------------------------------
 (12) _UART1_DefaultFramingErrorHandler                    0     0      0       0
 ---------------------------------------------------------------------------------
 (12) _UART1_DefaultErrorHandler                           0     0      0       0
                _UART1_RxDataHandler
 ---------------------------------------------------------------------------------
 (12) _UART1_RxDataHandler                                 0     0      0       0
 ---------------------------------------------------------------------------------
 (12) Absolute function(Fake)                              0     0      0       0
 ---------------------------------------------------------------------------------
 (11) _PWM1_LoadDutyValue                                  2     0      2     166
                                              0 COMRAM     2     0      2
 ---------------------------------------------------------------------------------
 Estimated maximum stack depth 14
 ---------------------------------------------------------------------------------

 Call Graph Graphs:

 _main (ROOT)
   _ADCC_GetConversionResult
   _ADCC_StartConversion
   _SYSTEM_Initialize
     _ADCC_Initialize
     _INTERRUPT_Initialize
     _OSCILLATOR_Initialize
     _PIN_MANAGER_Initialize
     _PMD_Initialize
     _PWM1_Initialize
     _TMR2_Initialize
     _UART1_Initialize
       _UART1_SetErrorHandler
       _UART1_SetFramingErrorHandler
       _UART1_SetOverrunErrorHandler
       _UART1_SetRxInterruptHandler
   _printf
     _vfprintf
       _vfpfcnvrt
         _fputc
           _putch
             _UART1_Write
         _utoa
           ___lodiv
           ___lomod
           _pad
             _fputc
             _fputs
               _fputc
             _strlen

 _INTERRUPT_InterruptManager (ROOT)
   Absolute function(Fake) *
   _PWM1_LoadDutyValue *
   _UART1_Receive_ISR *
     Absolute function(Fake) *
     _UART1_DefaultErrorHandler *
       _UART1_RxDataHandler
     _UART1_DefaultFramingErrorHandler *
     _UART1_DefaultOverrunErrorHandler *
     _UART1_RxDataHandler *
   ___fltol *
     _atof (ARG)
       _strtof
         ___fldiv
         ___fleq
         ___flge
         ___flmul
         ___flneg
         ___lmul
         ___wmul
         ___xxtofl
         _isdigit
         _isspace
         _isxdigit
         _nanf
         _toupper
           _islower
   _atof *

 Address spaces:
Name               Size   Autos  Total    Cost      Usage
BIGRAM            20FF      0       0      71        0.0%
EEDATA             400      0       0       0        0.0%
BITBANK37          100      0       0      70        0.0%
BANK37             100      0       0      68        0.0%
BITBANK36          100      0       0      66        0.0%
BANK36             100      0       0      67        0.0%
BITBANK35          100      0       0      64        0.0%
BANK35             100      0       0      65        0.0%
BITBANK34          100      0       0      62        0.0%
BANK34             100      0       0      63        0.0%
BITBANK33          100      0       0      60        0.0%
BANK33             100      0       0      61        0.0%
BITBANK32          100      0       0      58        0.0%
BANK32             100      0       0      59        0.0%
BITBANK31          100      0       0      56        0.0%
BANK31             100      0       0      57        0.0%
BITBANK30          100      0       0      54        0.0%
BANK30             100      0       0      55        0.0%
BITBANK29          100      0       0      52        0.0%
BANK29             100      0       0      53        0.0%
BITBANK28          100      0       0      50        0.0%
BANK28             100      0       0      51        0.0%
BITBANK27          100      0       0      48        0.0%
BANK27             100      0       0      49        0.0%
BITBANK26          100      0       0      46        0.0%
BANK26             100      0       0      47        0.0%
BITBANK25          100      0       0      44        0.0%
BANK25             100      0       0      45        0.0%
BITBANK24          100      0       0      42        0.0%
BANK24             100      0       0      43        0.0%
BITBANK23          100      0       0      40        0.0%
BANK23             100      0       0      41        0.0%
BITBANK22          100      0       0      38        0.0%
BANK22             100      0       0      39        0.0%
BITBANK21          100      0       0      36        0.0%
BANK21             100      0       0      37        0.0%
BITBANK20          100      0       0      34        0.0%
BANK20             100      0       0      35        0.0%
BITBANK19          100      0       0      32        0.0%
BANK19             100      0       0      33        0.0%
BITBANK18          100      0       0      30        0.0%
BANK18             100      0       0      31        0.0%
BITBANK17          100      0       0      28        0.0%
BANK17             100      0       0      29        0.0%
BITBANK16          100      0       0      26        0.0%
BANK16             100      0       0      27        0.0%
BITBANK15          100      0       0      24        0.0%
BANK15             100      0       0      25        0.0%
BITBANK14          100      0       0      22        0.0%
BANK14             100      0       0      23        0.0%
BITBANK13          100      0       0      20        0.0%
BANK13             100      0       0      21        0.0%
BITBANK12          100      0       0      18        0.0%
BANK12             100      0       0      19        0.0%
BITBANK11          100      0       0      16        0.0%
BANK11             100      0       0      17        0.0%
BITBANK10          100      0       0      14        0.0%
BANK10             100      0       0      15        0.0%
BITBANK9           100      0       0      12        0.0%
BANK9              100      0       0      13        0.0%
BITBANK8           100      0       0      10        0.0%
BANK8              100      0       0      11        0.0%
BITBANK7           100      0       0       8        0.0%
BANK7              100      0       0       9        0.0%
BITBANK6           100      0       0       6        0.0%
BANK6              100      0      84       7       51.6%
BITBANK5            A0      0       0       4        0.0%
BANK5               A0     61      84       5       82.5%
BITCOMRAM           5F      0       0       0        0.0%
COMRAM              5F     51      5B       1       95.8%
BITSFR_5             0      0       0     200        0.0%
SFR_5                0      0       0     200        0.0%
BITSFR_4             0      0       0     200        0.0%
SFR_4                0      0       0     200        0.0%
BITSFR_3             0      0       0     200        0.0%
SFR_3                0      0       0     200        0.0%
BITSFR_2             0      0       0     200        0.0%
SFR_2                0      0       0     200        0.0%
BITSFR_1             0      0       0     200        0.0%
SFR_1                0      0       0     200        0.0%
BITSFR               0      0       0     200        0.0%
SFR                  0      0       0     200        0.0%
STACK                0      0       0       2        0.0%
NULL                 0      0       0       0        0.0%
ABS                  0      0     163      69        0.0%
DATA                 0      0     163       3        0.0%
CODE                 0      0       0       0        0.0%


Microchip Technology PIC18 Macro Assembler V2.32 build 20210201212658 
Symbol Table                                                                                   Fri Aug 05 20:42:56 2022

                                ___fldiv@aexp 0519                                  ___fldiv@bexp 0518  
                                           _i 0554                                  ___fldiv@sign 0511  
                         ___wmul@multiplicand 0503                                           l101 4CBA  
                                         l302 5498                                           l126 4FEC  
                                         l331 54D0                                           l180 53CC  
                                         l325 54C2                                           l334 54A6  
                                         l183 5446                                           l328 54B4  
                                         l353 54DA                                           l186 53AA  
                                         l434 542A                                           l269 4E02  
                                         l293 544C                                           l296 5460  
                                         l553 50F8                                           l562 540E  
                                         l556 548A                                           l399 5478  
                                         _PR2 000323                                           _pad 4A7E  
                     __size_of_PMD_Initialize 0024                               _TMR2_Initialize 5410  
                                         tosl 0004FD                                           wreg 0004E8  
                                ___flmul@aexp 0512                                  ___flmul@bexp 0513  
                                ___flmul@sign 050D                                  ___flmul@temp 0518  
                                ___flmul@prod 0514                                  ___fltol@exp1 054D  
                                        l1082 49AA                                          l1075 498A  
                                        l1315 5360                                          l1092 4A7C  
                                        l1340 4AC6                                          l1085 4A5C  
                                        l3110 4E04                                          l1350 401E  
                                        l1343 4B0A                                          l3104 544C  
                                        l3120 4E88                                          l3112 4E18  
                                        l1360 41EA                                          l1352 4026  
                                        l1345 4B46                                          l3106 545A  
                                        l3114 4E2A                                          l3130 5172  
                                        l3210 404E                                          l3202 3FE6  
                                        l1371 4F6C                                          l3108 5490  
                                        l3116 4E34                                          l3124 514C  
                                        l3132 5194                                          l3220 40E4  
                                        l3212 4056                                          l3204 3FF6  
                                        l1372 4F74                                          l1365 43C4  
                                        l3150 4902                                          l3142 48BA  
                                        l3118 4E52                                          l3126 515A  
                                        l3134 51A0                                          l3230 419A  
                                        l3222 40EA                                          l3214 4060  
                                        l3206 3FF8                                          l3160 4972  
                                        l3152 4910                                          l3144 48C6  
                                        l1384 4E9A                                          l1392 5192  
                                        l3128 516C                                          l3136 51A6  
                                        l3232 41B4                                          l3216 4066  
                                        l3224 414E                                          l3208 4012  
                                        l3242 549A                                          l3162 4984  
                                        l3154 4922                                          l3146 48E6  
                                        l3170 49E8                                          l3138 51C2  
                                        l3226 4162                                          l3234 41C2  
                                        l3218 40DE                                          l3244 54B6  
                                        l3156 4950                                          l3148 48EE  
                                        l3172 49F6                                          l3164 49AC  
                                        l3180 4A7E                                          l3228 4180  
                                        l3246 54A8                                          l3158 4970  
                                        l3174 4A24                                          l3166 49CC  
                                        l1398 51D0                                          l3190 4AD2  
                                        l3182 4A8E                                          l3248 54C4  
                                        l3176 4A44                                          l3168 49D4  
                                        l3192 4AE6                                          l3184 4AA2  
                                        l3178 4A56                                          l3194 4AEC  
                                        l3186 4AB2                                          l4260 53BC  
                                        l4252 53AC                                          l3196 4B18  
                                        l3188 4ABE                                          l4270 5484  
                                        l4262 53C0                                          l4254 53B0  
                                        l3198 4B2C                          _ADCC_StartConversion 547A  
                                        l4272 5488                                          l3720 4C10  
                                        l3800 4DAC                                          l4264 53C4  
                                        l4256 53B4                                          l3640 422A  
                                        l4280 5344                                          l4274 53F0  
                                        l3730 4C38                                          l3722 4C30  
                                        l3810 4DDC                                          l3802 4DB0  
                                        l4266 53C8                                          l4258 53B8  
                                        l3642 423C                                          l4268 547E  
                                        l3740 4C94                                          l3732 4C3C  
                                        l3724 4C32                                          l3812 4E00  
                                        l3804 4DB4                                          l3652 4302  
                                        l3644 4240                                          l3636 41EC  
                                        l3820 4F22                                          l3750 4CA2  
                                        l3742 4C96                                          l3734 4C4A  
                                        l3726 4C34                                          l3806 4DB8  
                                        l3670 43AE                                          l3654 432E  
                                        l3662 4362                                          l3646 426C  
                                        l3638 4218                                          l3822 4F48  
                                        l4278 533A                                          l4390 4FE4  
                                        ?_pad 0572                                          l3760 542C  
                                        l3752 4CA4                                          l3744 4C9C  
                                        l3736 4C90                                          l3728 4C36  
                                        l3808 4DCA                                          l3664 4374  
                                        l3656 4340                                          l3648 42CA  
                                        l3816 4F0C                                          l4392 4FE6  
                                        l3754 4CAA                                          l3746 4C9E  
                                        l3738 4C92                                          l3762 5462  
                                        l3770 5424                                          l3658 4354  
                                        l3818 4F14                                          l4394 4FFC  
                                        l3764 509E                                          l3756 54D8  
                                        l3748 4CA0                                          l3780 4D84  
                                        l3772 4D66                                          l3668 4380  
                                        l4396 5008                                          l4388 4FE0  
                                        l3758 5388                                          l3766 5410  
                                        l3790 4D98                                          l3782 4D88  
                                        l3774 4D68                                          l4398 501E  
                                        l3768 541E                                          l3792 4D9C  
                                        l3784 4D8C                                          l3776 4D7A  
                                        l3794 4DA0                                          l3786 4D90  
                                        l3778 4D80                                          l3796 4DA4  
                                        l3788 4D94                                          l3798 4DA8  
                                        STR_1 261F                                          STR_2 260A  
                                        STR_3 2601                                          STR_4 2617  
                                        STR_7 261B                                          STR_8 2613  
                     __end_of_PWM1_Initialize 547A                                          _LATA 0004BE  
                                        _LATB 0004BF                                          _LATC 0004C0  
                                        _LATD 0004C1                                          _LATE 0004C2  
                                        u2410 545A                                          _LATF 0004C3  
                                        u2411 5456                                          u2500 4910  
                                        u2420 4E18                                          u2501 490C  
                                        u2421 4E14                                          u2510 4950  
                                        u2430 4E2A                                          u2511 494C  
                                        u2431 4E26                                          u2520 49CC  
                                        u2440 4E52                                          u2600 4012  
                                        u3320 4218                                          u2521 49C8  
                                        u2441 4E4E                                          u2601 400E  
                                        u3321 4214                                          u2530 49F6  
                                        u2450 4E88                                          u2610 4162  
                                        u3330 426C                                          _T2PR 000323  
                                        u2531 49F2                                          u2451 4E84  
                                        u2611 415E                                          u3331 4268  
                                        u2540 4A24                                          u2460 5192  
                                        u2620 4180                                          u3340 432E  
                                        u2541 4A20                                          u2461 518E  
                                        u2621 417C                                          u3341 432A  
                                        u2470 51C2                                          u2550 4A8E  
                                        u2630 419A                                          u2471 51BE  
                                        u2551 4A8A                                          u2631 4196  
                                        u2560 4AB2                                          u2640 41B4  
                                        u3440 4F6C                                          u2481 48C0  
                                        u2561 4AAE                                          u2641 41B0  
                                        u3441 4F68                                          u2490 48E6  
                                        u2570 4B0A                                          u2650 41C2  
                                        u2491 48E2                                          u2571 4B06  
                                        u2651 41BE                                          u2580 4B18  
                                        u2581 4B14                                          u2590 3FF6  
                                        u2591 3FF2                                          _PMD0 000060  
                                        _PMD1 000061                                          _PMD3 000063  
                                        _PMD4 000064                                          _PMD5 000065  
                                        _PMD6 000066                                          _PMD7 000067  
                                        _PMD8 000068                                          u4670 4FFC  
                                        u4671 4FF8                                          u4767 502A  
                                        _TMR2 000322                                          _WPUA 000401  
                                        _WPUB 000409                                          _WPUC 000411  
                                        _WPUD 000419                                          _WPUE 000421  
                                        _WPUF 000429                                          _dbuf 0664  
                                        _atof 5362                                          _main 4FE0  
                                        _nanf 53CE                                          _prec 05D5  
                                        _nout 05D1                                          pad@i 0579  
                                        pad@p 0576                                          fsr1h 0004E2  
                                        fsr2h 0004DA                                          indf2 0004DF  
                                        fsr1l 0004E1                                          pad@w 057B  
                                        fsr2l 0004D9                                          _utoa 3FE6  
                                        prodh 0004F4                                          prodl 0004F3  
                                        start 001A                               ___fldiv@new_exp 0512  
                                 _strtof$1943 0524                                   _strtof$1944 0534  
                                 _strtof$1960 0532                                   _strtof$1954 0526  
                                 _strtof$1955 0528                                   _strtof$1956 052A  
                                 _strtof$1957 052C                                   _strtof$1958 052E  
                                 _strtof$1959 0530                                  ___param_bank 000000  
                                       ??_pad 0578                __size_of_OSCILLATOR_Initialize 001C  
               __end_of_OSCILLATOR_Initialize 5448                                 ___fltol@sign1 054C  
                                       ?_atof 0540                                         _ADCAP 0003F0  
                                       _ADACT 0003F9                                         ?_main 0501  
                                       _ADCLK 0003FA                                         ?_nanf 0501  
                                       _ADCNT 0003E6                                         _ADPCH 0003EC  
                             __end_of___fldiv 3FE6                                         _ADREF 0003F8  
                             __end_of___flneg 52B2                                         STR_10 2616  
                                       _ADRPT 0003E7                               __end_of___flmul 3C4C  
                             __end_of___fltol 47B6                                         ?_utoa 057D  
                             __end_of___lodiv 49AC                                         _U1P1H 0002A6  
                                       _U1P2H 0002A8                                         _U1P1L 0002A5  
                                       _U1P3H 0002AA                                         _T2CON 000324  
                                       _U1P2L 0002A7                                         _U1P3L 0002A9  
                             __end_of___lomod 4A7E                                         _T2HLT 000325  
                                       _T2TMR 000322                                         _U1UIR 0002B1  
                                       _T2RST 000327                                         _U1RXB 0002A1  
                                       _U1TXB 0002A3                                         i2l313 530E  
                                       i2l322 54D6                                         i2l404 52E2  
                                       i2l316 54DE                                         i2l309 4C0E  
                                       i2l319 54DC                                         i2l380 4628  
                                       i2l372 45F8                                         i2l376 4610  
                                       i2l368 45E0                                         i2l386 4696  
                                       i2l637 5338                                         i2l902 4872  
                                       i2l911 52B0                                         i2l648 4FCE  
                                       i2l649 4FDE                                         i2l907 48B8  
                                       i2l934 47B4                                         i2l896 4D64  
                                       _OSCEN 0000B3                                  vfpfcnvrt@fmt 059F  
                                vfpfcnvrt@llu 05A7                                         _TRISA 0004C6  
                                       _TRISB 0004C7                                         _TRISC 0004C8  
                                       _TRISD 0004C9                                         _TRISE 0004CA  
                                       _TRISF 0004CB                           ___lmul@multiplicand 0505  
                                       _flags 05D7                         ?_ADCC_StartConversion 0501  
                                       _fputc 4E04                                         _fputs 514C  
                             __end_of_isdigit 527A                                         atof@s 0540  
                                       pad@fp 0572                                         _width 05D3  
                                       _putch 548C                                         nanf@s 0501  
                                       nanf@u 0505                               __end_of_islower 5242  
                             __end_of_isspace 514C                                         pclath 0004FA  
                                       tablat 0004F5                                         utoa@d 057F  
                                       utoa@i 059B                                         utoa@n 0593  
                                       utoa@p 058F                                         utoa@w 0591  
                                       status 0004D8           __end_of_UART1_SetRxInterruptHandler 54A8  
                 _UART1_SetRxInterruptHandler 549A                               __end_of_toupper 509E  
                            ___lodiv@dividend 0560           fp__UART1_DefaultFramingErrorHandler 0000  
    __end_of_UART1_DefaultFramingErrorHandler 54E0     __size_of_UART1_DefaultFramingErrorHandler 0002  
          ??_UART1_DefaultFramingErrorHandler 0501             ?_UART1_DefaultFramingErrorHandler 0501  
            _UART1_DefaultFramingErrorHandler 54DE                                  _toupper$2023 050D  
                             __initialization 51D2                                  __end_of_atof 5388  
                                __end_of_main 5040                                  __end_of_nanf 53F0  
                                __end_of_utoa 41EC                   ??_UART1_DefaultErrorHandler 0501  
                     __end_of_TMR2_Initialize 542C                   ?_INTERRUPT_InterruptManager 0501  
                                ?_UART1_Write 0501                                        ??_atof 0544  
                                      ??_main 05BD                                        ??_nanf 0505  
                                      ??_utoa 0587                                 __activetblptr 000003  
                            ___lodiv@quotient 0570                              _UART1_Initialize 4D66  
                                      _ADACCH 0003E4                                        _ADACCL 0003E3  
                                      _ADACCU 0003E5                                        _ADACQH 0003EF  
                                      _ADACQL 0003EE                                        _ADCON0 0003F3  
                                      _ADCON1 0003F4                                        _ADCON2 0003F5  
                                      _ADCON3 0003F6                                        _ADERRH 0003DE  
                                      _ADERRL 0003DD                                        ?_fputc 0562  
                                      _ADLTHH 0003DA                                        _ACTCON 0000AC  
                                      _ADLTHL 0003D9                                        ?_fputs 056B  
                                      _ADRESH 0003EB                                        _ADRESL 0003EA  
                                      _ADPREH 0003F2                                        _ADPREL 0003F1  
                                      _CCPR1H 000341                                        _CCPR1L 000340  
                                      _ADSTAT 0003F7                                        _ADUTHH 0003DC  
                                      _ADUTHL 0003DB                                        _ANSELA 000400  
                                      ?_putch 0501                                        _ANSELB 000408  
                                      _ANSELC 000410                                        _ANSELD 000418  
                                      _ANSELE 000420                                        _ANSELF 000428  
                                      _RB1I2C 000289                                        _RB2I2C 000288  
                                      _U1CON0 0002AB                                        _U1CON1 0002AC  
                                      _U1CON2 0002AD                                        _RC3I2C 000287  
                                      _RC4I2C 000286                                        _U1BRGH 0002AF  
                                      _U1FIFO 0002B0                                        _U1BRGL 0002AE  
                            ?_PWM1_Initialize 0501                                        _ODCONA 000402  
                                      _ODCONB 00040A                                        _ODCONC 000412  
                                      _RF0PPS 000229                                        _ODCOND 00041A  
                                      _ODCONE 000422                                        _ODCONF 00042A  
                                      i2l1221 3E44                                        i2l1230 3E8A  
                                      i2l1232 3F02                                        i2l1224 3E08  
                                      i2l1233 3EF0                                        i2l1306 4510  
                                      i2l1219 3FE4                                        i2l1251 38C2  
                                      i2l1260 3B54                                        i2l1261 3B42  
                                      i2l1255 3C4A                                        i2l4000 2D68  
                                      i2l1513 2F78                                        i2l1433 37BA  
                                      i2l1258 3ADC                                        i2l4002 2D84  
                                      i2l4010 2DD6                                        i2l1603 514A  
                                      i2l3300 3CCC                                        i2l1268 3C0C  
                                      i2l1292 441C                                        i2l4100 3176  
                                      i2l4020 2E28                                        i2l4012 2DF4  
                                      i2l4004 2DC2                                        i2l1524 314A  
                                      i2l1613 4F0A                                        i2l1533 325C  
                                      i2l3310 3D00                                        i2l3302 3CCE  
                                      i2l1534 3200                                        i2l4110 31D6  
                                      i2l4102 3180                                        i2l4030 2E76  
                                      i2l4022 2E46                                        i2l4014 2E12  
                                      i2l4006 2DC6                                        i2l1295 4578  
                                      i2l1535 326E                                        i2l3400 3FC4  
                                      i2l3320 3D46                                        i2l3304 3CDE  
                                      i2l3312 3D08                                        i2l1624 5094  
                                      i2l4200 35DE                                        i2l4120 3238  
                                      i2l4112 31D8                                        i2l4040 2EBA  
                                      i2l4032 2E7E                                        i2l4024 2E4C  
                                      i2l4008 2DC8                                        i2l3250 52E4  
                                      i2l3402 3FD2                                        i2l3330 3D6E  
                                      i2l3322 3D4A                                        i2l3314 3D18  
                                      i2l3306 3CEE                                        i2l4210 366A  
                                      i2l4202 3612                                        i2l4130 32BA  
                                      i2l4122 326A                                        i2l4114 31EC  
                                      i2l4106 31C0                                        i2l4050 2F42  
                                      i2l4042 2ED6                                        i2l4034 2E80  
                                      i2l4026 2E6A                                        i2l4018 2E26  
                                      i2l1299 44B4                                        i2l1619 53EE  
                                      i2l1635 5240                                        i2l3252 52F6  
                                      i2l3404 3FD8                                        i2l3340 3DBC  
                                      i2l3316 3D2E                                        i2l3308 3CFE  
                                      i2l3500 3ADA                                        i2l3420 381A  
                                      i2l3260 5310                                        i2l4204 3618  
                                      i2l4140 3308                                        i2l4132 32DC  
                                      i2l4116 31FA                                        i2l4124 3276  
                                      i2l4060 2F8E                                        i2l4052 2F54  
                                      i2l4044 2F00                                        i2l4036 2E9E  
                                      i2l4028 2E6E                                        i2l1629 509C  
                                      i2l3254 52F8                                        i2l4310 4B6A  
                                      i2l3406 3FDA                                        i2l3350 3E06  
                                      i2l3342 3DCC                                        i2l3334 3D82  
                                      i2l3318 3D3E                                        i2l3326 3D5E  
                                      i2l3510 3B3A                                        i2l3502 3AEC  
                                      i2l3430 3860                                        i2l3422 382A  
                                      i2l3414 37FE                                        i2l3270 4F94  
                                      i2l3262 5330                                        i2l3238 520A  
                                      i2l4230 373A                                        i2l4222 36B0  
                                      i2l4214 367E                                        i2l4206 362A  
                                      i2l4150 3392                                        i2l4142 3326  
                                      i2l4134 32E6                                        i2l4126 327E  
                                      i2l4118 3204                                        i2l4062 2F96  
                                      i2l4054 2F64                                        i2l4038 2EAA  
                                      i2l4046 2F02                                        i2l1479 37FC  
                                      i2l3256 5308                                        i2l4320 4BCE  
                                      i2l4312 4B7A                                        i2l3360 3E54  
                                      i2l3352 3E12                                        i2l3344 3DD4  
                                      i2l3336 3D9C                                        i2l3328 3D6E  
                                      i2l3280 3C66                                        i2l3520 3BA8  
                                      i2l3504 3AFA                                        i2l3440 388C  
                                      i2l3432 3866                                        i2l3424 383A  
                                      i2l3416 380A                                        i2l3272 4FA4  
                                      i2l4232 3740                                        i2l4224 36E4  
                                      i2l4208 365C                                        i2l4160 341C  
                                      i2l4152 3396                                        i2l4136 3304  
                                      i2l4128 329C                                        i2l4080 305A  
                                      i2l4072 2FF6                                        i2l4064 2FA8  
                                      i2l4330 52B2                                        i2l3258 530C  
                                      i2l4322 4BEC                                        i2l4314 4B94  
                                      i2l4306 4B48                                        i2l3362 3E6A  
                                      i2l3370 3E9A                                        i2l3354 3E30  
                                      i2l3346 3DE4                                        i2l3338 3DAC  
                                      i2l3290 3C9A                                        i2l3282 3C68  
                                      i2l3530 3C10                                        i2l3514 3B64  
                                      i2l3522 3BAC                                        i2l3506 3AFE  
                                      i2l3450 38E2                                        i2l3442 389C  
                                      i2l3434 386C                                        i2l3426 384A  
                                      i2l3418 3818                                        i2l3274 4FAE  
                                      i2l3266 4F76                                        i2l3610 449E  
                                      i2l3602 4456                                        i2l4242 37A6  
                                      i2l4234 3752                                        i2l4226 36EC  
                                      i2l4218 3692                                        i2l4162 3420  
                                      i2l4170 34A6                                        i2l4146 3366  
                                      i2l4090 30D0                                        i2l4082 3076  
                                      i2l4074 3028                                        i2l4066 2FCC  
                                      i2l4058 2F86                                        i2l1586 5386  
                                      i2l4410 45C8                                        i2l1595 5278  
                                      i2l4332 52BA                                        i2l4324 4C0A  
                                      i2l4316 4BA4                                        i2l4308 4B5A  
                                      i2l3372 3EA8                                        i2l3364 3E70  
                                      i2l3356 3E32                                        i2l3348 3DF8  
                                      i2l3284 3C78                                        i2l3292 3CA2  
                                      i2l3276 3C4C                                        i2l3540 3C3A  
                                      i2l3532 3C20                                        i2l3524 3BC6  
                                      i2l3516 3B70                                        i2l3508 3B0C  
                                      i2l3460 392A                                        i2l3444 38AC  
                                      i2l3436 387A                                        i2l3428 3850  
                                      i2l3268 4F86                                        i2l3620 451E  
                                      i2l3612 44AA                                        i2l3604 445E  
                                      i2l3700 4F00                                        i2l4236 3784  
                                      i2l4228 3706                                        i2l4180 34E4  
                                      i2l4172 34B4                                        i2l4156 33D6  
                                      i2l4148 3378                                        i2l4092 30E8  
                                      i2l4084 308E                                        i2l4076 303C  
                                      i2l4068 2FE2                                        i2l4420 462E  
                                      i2l4412 45CE                                        i2l4404 4592  
                                      i2l4334 52CA                                        i2l4318 4BB4  
                                      i2l4350 46DA                                        i2l3382 3F12  
                                      i2l3390 3F5A                                        i2l3374 3EAC  
                                      i2l3366 3E7A                                        i2l3358 3E42  
                                      i2l3294 3CB2                                        i2l3286 3C88  
                                      i2l3278 3C58                                        i2l3550 4D28  
                                      i2l3534 3C2E                                        i2l3526 3BDA  
                                      i2l3518 3B7E                                        i2l3470 3978  
                                      i2l3462 3936                                        i2l3454 38F6  
                                      i2l3446 38B2                                        i2l3438 387C  
                                      i2l3630 4566                                        i2l3622 4520  
                                      i2l3614 44E6                                        i2l3606 446A  
                                      i2l3702 4F04                                        i2l3710 5040  
                                      i2l4246 37C8                                        i2l4238 3792  
                                      i2l4190 3568                                        i2l4182 34FC  
                                      i2l4166 3460                                        i2l4158 33E8  
                                      i2l4174 34BC                                        i2l4094 30FC  
                                      i2l4086 30A4                                        i2l4078 304C  
                                      i2l4326 5362                                        i2l4430 4692  
                                      i2l4422 4640                                        i2l4414 45E6  
                                      i2l4406 45A0                                        i2l4336 52D8  
                                      i2l4360 4728                                        i2l4352 4704  
                                      i2l4344 46B0                                        i2l3392 3F74  
                                      i2l3384 3F1E                                        i2l3376 3EBA  
                                      i2l3368 3E88                                        i2l3296 3CB8  
                                      i2l3288 3C98                                        i2l3552 4D38  
                                      i2l3544 4CBC                                        i2l3560 47B6  
                                      i2l3536 3C30                                        i2l3528 3BF4  
                                      i2l3480 39D6                                        i2l3472 3988  
                                      i2l3464 3952                                        i2l3456 3906  
                                      i2l3448 38D2                                        i2l3632 4568  
                                      i2l3624 4524                                        i2l3616 44F2  
                                      i2l3608 449C                                        i2l4248 37EC  
                                      i2l4192 3576                                        i2l4184 3522  
                                      i2l4176 34C4                                        i2l4168 3472  
                                      i2l4096 310C                                        i2l4088 30B4  
                                      i2l4424 4668                                        i2l4416 45FE  
                                      i2l4408 45AE                                        i2l4338 52DC  
                                      i2l4370 4754                                        i2l4354 4706  
                                      i2l4346 46C6                                        i2l3394 3F8A  
                                      i2l3386 3F2C                                        i2l3378 3EE8  
                                      i2l3298 3CBE                                        i2l3554 4D5C  
                                      i2l3546 4CEA                                        i2l3570 4840  
                                      i2l3562 47E4                                        i2l3538 3C36  
                                      i2l3490 3A60                                        i2l3482 39E6  
                                      i2l3474 3998                                        i2l3466 395E  
                                      i2l3458 3910                                        i2l3626 4548  
                                      i2l3618 4500                                        i2l3706 5242  
                                      i2l3714 5076                                        i2l4194 3582  
                                      i2l4186 3554                                        i2l4178 34D6  
                                      i2l4098 3158                                        i2l4426 4674  
                                      i2l4418 4616                                        _RF7PPS 000230  
                                      i2l4380 4784                                        i2l4356 4716  
                                      i2l3396 3FA4                                        i2l3388 3F56  
                                      i2l3556 4D62                                        i2l3548 4CFA  
                                      i2l3572 4852                                        i2l3564 47F4  
                                      i2l3492 3A96                                        i2l3484 3A06  
                                      i2l3476 39A8                                        i2l3468 396A  
                                      i2l3628 4558                                        i2l3716 5088  
                                      i2l4196 35B6                                        i2l3900 2930  
                                      i2l4428 4680                                        i2l3814 54D2  
                                      i2l4382 4794                                        i2l4366 4740  
                                      i2l4358 471A                                        i2l3398 3FC0  
                                      i2l3574 4860                                        i2l3566 4822  
                                      i2l3494 3AA4                                        i2l3486 3A16  
                                      i2l3478 39B8                                        i2l3582 527A  
                                      i2l3590 43C8                                        i2l4198 35BE  
                                      i2l3902 2932                                        i2l3910 29A0  
                                      i2l3830 2656                                        i2l4384 47A4  
                                      i2l4376 4768                                        i2l4368 474A  
                                      i2l3576 48B0                                        i2l3568 4832  
                                      i2l3496 3AC2                                        i2l3488 3A36  
                                      i2l3584 5290                                        i2l3592 43D8  
                                      i2l3680 5112                                        i2l3920 2A14  
                                      i2l3904 294E                                        i2l3912 29BC  
                                      i2l3832 265A                                        i2l3824 2624  
                                      _INLVLA 000404                                        i2l4378 4774  
                                      i2l3578 48B6                                        i2l3498 3ACC  
                                      i2l3586 52A0                                        i2l3594 43E6  
                                      i2l3682 5140                                        i2l3690 53DE  
                                      i2l3930 2A70                                        i2l3922 2A32  
                                      i2l3914 29E4                                        i2l3906 296C  
                                      i2l3850 270E                                        i2l3842 26E0  
                                      i2l3834 2692                                        i2l3826 2636  
                                      _INLVLB 00040C                                        _INLVLC 000414  
                                      i2l3596 442C                                        i2l3684 5144  
                                      i2l3676 50FA                                        i2l3940 2AD2  
                                      i2l3932 2A8E                                        i2l3924 2A50  
                                      i2l3916 29E6                                        i2l3908 298A  
                                      i2l3860 2738                                        i2l3852 2716  
                                      i2l3844 26F2                                        i2l3836 26D6  
                                      i2l3828 2652                                        _INLVLD 00041C  
                                      _INLVLE 000424                                        i2l3598 4442  
                                      i2l3678 50FE                                        i2l3694 4E9C  
                                      i2l3950 2B28                                        i2l3942 2AF0  
                                      i2l3934 2A92                                        i2l3926 2A66  
                                      i2l3918 2A04                                        i2l3870 27E0  
                                      i2l3862 2754                                        i2l3846 26F6  
                                      i2l3838 26DA                                        _INLVLF 00042C  
                                      i2l3696 4EA0                                        i2l3688 53CE  
                                      i2l3960 2BB0                                        i2l3936 2AB0  
                                      i2l3928 2A6E                                        i2l3880 2838  
                                      i2l3872 27F2                                        i2l3864 278A  
                                      i2l3856 272E                                        i2l3848 270A  
                                      i2l3698 4ECE                                        i2l3962 2BCC  
                                      i2l3954 2B68                                        i2l3946 2AF8  
                                      i2l3890 28D4                                        i2l3882 283A  
                                      i2l3874 2804                                        i2l3866 27C0  
                                      i2l3858 2736                                        i2l3980 2C74  
                                      i2l3972 2C2E                                        i2l3964 2C0A  
                                      i2l3956 2B7A                                        i2l3948 2B24  
                                      i2l3892 28F0                                        i2l3884 2856  
                                      i2l3876 2808                                        i2l3868 27D0  
                                      i2l3990 2CE0                                        i2l3982 2C92  
                                      i2l3974 2C34                                        i2l3966 2C0E  
                                      i2l3958 2B90                                        i2l3894 2902  
                                      i2l3886 288C                                        i2l3878 2830  
                                      i2l3984 2CA4                                        i2l3976 2C52  
                                      i2l3968 2C1A                                        i2l3896 290A  
                                      i2l3888 28C2                                        i2l3994 2D20  
                                      i2l3986 2CB0                                        i2l3898 2928  
                                      i2l3996 2D32                                        i2l3988 2CDC  
                                      i2l3998 2D48                                        _OSCFRQ 0000B1  
                       _UART1_SetErrorHandler 54C4                              __end_of___xxtofl 457A  
                  ??_ADCC_GetConversionResult 0562                                  _CCPTMRS0bits 00034C  
                                vfprintf@cfmt 05B5                                        ___flge 47B6  
                                      ___fleq 4CBC                                        ___lmul 4F76  
                                      ___wmul 5310                                     ??___fldiv 0509  
                                   ??___flneg 0505                                     ??___flmul 0509  
                                   ??___fltol 0548                                     ??___lodiv 0570  
                                   ??___lomod 0570                                        clear_0 51D8  
                                      clear_1 51E4                                        clear_2 51F0  
                                      isa$std 000001                                        _printf 533A  
                                      pad@buf 0574                                        _strlen 5194  
                                      _strtof 2624                              __end_of_isxdigit 4F0C  
                             _ADCC_Initialize 509E                                        fputc@c 0562  
                              _PMD_Initialize 5388                                        fputs@c 056F  
                                      fputs@i 0570                                        fputs@s 056B  
                                   ??_isdigit 0503                                     ??_islower 0503  
                                __mediumconst 0000                                     ??_isspace 0503  
                                      tblptrh 0004F7                                        tblptrl 0004F6  
                                      tblptru 0004F8                        ??_ADCC_StartConversion 0560  
                            __end_of_vfprintf 4F76                                        utoa@fp 057D  
 UART1_SetRxInterruptHandler@InterruptHandler 0560          __end_of_UART1_SetOverrunErrorHandler 54B6  
       __size_of_UART1_SetOverrunErrorHandler 000E                  _UART1_SetOverrunErrorHandler 54A8  
                   _UART1_DefaultErrorHandler 54D2                                     ??_toupper 0509  
               __size_of_INTERRUPT_Initialize 0004                  __size_of_UART1_RxDataHandler 002C  
                                  ___flge@ff1 0501                                    ___flge@ff2 0505  
                                ___xxtofl@arg 050B                                  ___xxtofl@exp 050A  
                           _SYSTEM_Initialize 53AC                                  ___xxtofl@val 0501  
                                  ___fleq@ff1 0501                                    ___fleq@ff2 0505  
                                  __accesstop 0560                       __end_of__initialization 5204  
                                  ___flneg@f1 0501                            ?_SYSTEM_Initialize 0501  
                               ___rparam_used 000001                                    ___fltol@f1 0544  
                 PWM1_LoadDutyValue@dutyValue 0501                                __pcstackCOMRAM 0501  
                         ??_SYSTEM_Initialize 0563                                 __end_of_fputc 4E9C  
                               __end_of_fputs 5194                                 __end_of_putch 549A  
                          _PWM1_LoadDutyValue 52B2                              ?_TMR2_Initialize 0501  
                      __end_of_PMD_Initialize 53AC                           ?_PWM1_LoadDutyValue 0501  
                   _UART1_FramingErrorHandler 05E1                   ADCC_StartConversion@channel 0560  
                                     ??_fputc 0566                     __end_of_SYSTEM_Initialize 53CE  
                                     ??_fputs 056F                                       ??_putch 0561  
                                  __pbssBANK5 05C1                                    __pbssBANK6 0600  
               ?_UART1_SetOverrunErrorHandler 0560                        ?_UART1_SetErrorHandler 0560  
                                  __pnvCOMRAM 0559                                       IVTBASEH 00045E  
                                     IVTBASEL 00045D                                       IVTBASEU 00045F  
                        ??_PWM1_LoadDutyValue 0503                                       ?___flge 0501  
                                     ?___fleq 0501                                       ?___lmul 0501  
                                     ?___wmul 0501                       __end_of_ADCC_Initialize 50FA  
                                     _CCP1CON 000342                                       _ADFLTRH 0003E2  
                                     _ADFLTRL 0003E1                                ___lmul@product 0509  
                                     _ADPREVH 0003E9                                       _ADPREVL 0003E8  
                                     _ADSTPTH 0003E0                                       _ADSTPTL 0003DF  
                                     ?_printf 05B7                               ?_PMD_Initialize 0501  
                           _UART1_Receive_ISR 4B48                                       ?_strlen 0560  
                                     ?_strtof 051A                                       _U1ERRIE 0002B3  
                                     _U1ERRIR 0002B2                          __size_of_UART1_Write 001A  
                          ?_UART1_Receive_ISR 0501                                       _U1RXPPS 000272  
                                   ?___xxtofl 0501                                       _OSCCON1 0000AD  
                                     _OSCCON3 0000AF                            __size_of_vfpfcnvrt 01DA  
                                     _OSCTUNE 0000B0                                       _SLRCONA 000403  
                                     _SLRCONB 00040B                                       _SLRCONC 000413  
                                     _SLRCOND 00041B                                       _SLRCONE 000423  
                                     _SLRCONF 00042B                           ??_UART1_Receive_ISR 0501  
                            ___lomod@dividend 0560                                       __Hparam 0000  
                                   ?_isxdigit 0501                                       __Lparam 0000  
                    __end_of_UART1_Initialize 4E04                               __size_of___flge 0104  
                             __size_of___fleq 00AA                                       ___fldiv 3C4C  
                                     ___flneg 527A                               __size_of___lmul 006A  
                                     ___flmul 37FE                                       ___fltol 46B0  
                             __size_of___wmul 002A                                       ___lodiv 48BA  
                                     ___lomod 49AC                     __end_of_UART1_Receive_ISR 4C10  
                                   ?_vfprintf 05AF                                  __psmallconst 2600  
                                     __pcinit 51D2                                       _dato_Rx 0556  
                                     __ramtop 2600                                       __ptext0 4FE0  
                                     __ptext1 533A                                       __ptext2 4F0C  
                                     __ptext3 41EC                                       __ptext4 3FE6  
                                     __ptext5 4A7E                                       __ptext6 5194  
                                     __ptext7 514C                                       __ptext8 4E04  
                                     __ptext9 548C                               __size_of_printf 0028  
                             __size_of_strlen 003E                               __size_of_strtof 11DA  
                       _OSCILLATOR_Initialize 542C                                     _T2CONbits 000324  
                                __size_of_pad 00CA                                    _duty_cicle 0552  
                                     _isdigit 5242                                    ??___xxtofl 0505  
                                     _islower 520A                      ??_PIN_MANAGER_Initialize 0560  
                                     _isspace 50FA                                     _T2HLTbits 000325  
                  __size_of_SYSTEM_Initialize 0022                                       _toupper 5040  
                        end_of_initialization 5204                                     _T2RSTbits 000327  
                                     fputc@fp 0564                                       fputs@fp 056D  
              ??_UART1_SetOverrunErrorHandler 0563                                    ??_isxdigit 0503  
                           __end_of_vfpfcnvrt 43C6                                       postdec2 0004DD  
                                     postinc0 0004EE                                       postinc1 0004E6  
                                     postinc2 0004DE                              ?_ADCC_Initialize 0501  
                                  ??_vfprintf 05B5                             UART1_Write@txData 0560  
                         _UART1_RxDataHandler 52E4                                       strlen@a 0562  
                                     strlen@s 0560                                       strtof@i 053F  
                                     strtof@s 051A                                 ___xxtofl@sign 0509  
                                 ___fldiv@grs 0514                                   ___fldiv@rem 050D  
                        ?_UART1_RxDataHandler 0501                                   ___flmul@grs 050E  
                                 _CCP1CONbits 000342                      __size_of_PWM1_Initialize 0018  
                __end_of_INTERRUPT_Initialize 54DC                                __end_of___flge 48BA  
                              __end_of___fleq 4D66                    __size_of_UART1_Receive_ISR 00C8  
                              __end_of___lmul 4FE0                                   vfpfcnvrt@ap 05A1  
                                 vfpfcnvrt@fp 059D                                __end_of___wmul 533A  
                      ?_OSCILLATOR_Initialize 0501             __size_of_ADCC_GetConversionResult 0020  
                   ?_ADCC_GetConversionResult 0560                                __end_of_printf 5362  
                              __end_of_strlen 51D2                                __end_of_strtof 37FE  
                         start_initialization 51D2                               ___lodiv@divisor 0568  
                             ___lodiv@counter 0578               __size_of_PIN_MANAGER_Initialize 00AC  
                                 __end_of_pad 4B48                       ??_UART1_SetErrorHandler 0563  
                       ??_UART1_RxDataHandler 0501                 __size_of_ADCC_StartConversion 0012  
                                 putch@txData 0561                                    ivt0x8_base 0008  
                               _uart1RxBuffer 05C9                                   vfprintf@fmt 05B1  
                                    ??___flge 0509                                      ??___fleq 0509  
                            ??_PMD_Initialize 0560                                 _isxdigit$2000 0507  
                                    ??___lmul 0509                                      ??___wmul 0505  
                                    ??_printf 05BB                                      ??_strlen 0562  
                                    ??_strtof 051E                                     ___fldiv@a 0505  
                                   ___fldiv@b 0501                                     ___flmul@a 0505  
                                   ___flmul@b 0501                                   __pbssCOMRAM 0552  
                          _UART1_ErrorHandler 05DB                                 __pcstackBANK5 0560  
                    __size_of_TMR2_Initialize 001C                             __size_of___xxtofl 01B4  
                    _UART1_RxInterruptHandler 0559                  fp__UART1_DefaultErrorHandler 0000  
                ?_UART1_SetRxInterruptHandler 0560                                     __pnvBANK5 05DB  
                 __size_of_PWM1_LoadDutyValue 0032                        _PIN_MANAGER_Initialize 4C10  
                           ?_UART1_Initialize 0501          __end_of_UART1_SetFramingErrorHandler 54C4  
       __size_of_UART1_SetFramingErrorHandler 000E                  _UART1_SetFramingErrorHandler 54B6  
                           __size_of_isxdigit 0070                                      ?___fldiv 0501  
                                    ?___flneg 0501                                      ?___flmul 0501  
                                    ?___fltol 0544                                      ?___lodiv 0560  
                                    ?___lomod 0560                            ??_UART1_Initialize 0563  
                            _uart1RxLastError 05D9                                 ??_UART1_Write 0560  
                           ??_PWM1_Initialize 0560                                     _buffer_rx 0600  
                ??_INTERRUPT_InterruptManager 054E                             __size_of_vfprintf 006A  
                             ___lomod@divisor 0568                                   __smallconst 2600  
                             ___lomod@counter 0570           fp__UART1_DefaultOverrunErrorHandler 0000  
    __end_of_UART1_DefaultOverrunErrorHandler 54DE     __size_of_UART1_DefaultOverrunErrorHandler 0002  
          ??_UART1_DefaultOverrunErrorHandler 0501             ?_UART1_DefaultOverrunErrorHandler 0501  
            _UART1_DefaultOverrunErrorHandler 54DC                                      ?_isdigit 0501  
                                    ?_islower 0501                                      ?_isspace 0501  
                              __size_of_fputc 0098                                      _T2CLKCON 000326  
                              __size_of_fputs 0048                                      ?_toupper 0507  
                                 _U1ERRIRbits 0002B2                                __size_of_putch 000E  
                        _INTERRUPT_Initialize 54D8                                ___wmul@product 0505  
       UART1_SetErrorHandler@interruptHandler 0560                                      _LATFbits 0004C3  
                                    _PIE4bits 0004A2                 ??_UART1_SetRxInterruptHandler 0563  
                                    i2u300_40 38D2                                      i2u300_41 38CE  
                                    i2u301_40 38E2                                      i2u301_41 38DE  
                                    i2u310_40 3BC6                                      i2u302_40 3A80  
                                    i2u310_41 3BC2                                      i2u302_45 3A76  
                                    i2u311_40 3BF4                                      i2u303_40 3ADA  
                                    i2u311_41 3BF0                                      i2u303_41 3AD6  
         __size_of_INTERRUPT_InterruptManager 0136                                      i2u320_40 48B0  
                                    i2u312_40 3C2E                                      i2u304_40 3AFA  
                                    i2u400_40 2F3E                                      i2u320_41 48AC  
                                    i2u312_41 3C2A                                      i2u304_41 3AF6  
                                    i2u313_40 4CEA                                      i2u305_40 3B0C  
                                    i2u321_40 5290                                      i2u401_40 2F54  
                                    i2u313_41 4CE6                                      i2u305_41 3B08  
                                    i2u321_41 528C                                      i2u401_41 2F50  
                                    i2u314_40 4D28                                      i2u306_40 3B3A  
                                    i2u330_40 4558                                      i2u322_40 43D8  
                                    i2u410_40 30D0                                      i2u402_40 2F64  
                                    i2u314_41 4D24                                      i2u306_41 3B36  
                                    i2u330_41 4554                                      i2u322_41 43D4  
                                    i2u410_41 30CC                                      i2u402_41 2F60  
                                    i2u315_40 4D5C                                      i2u307_40 3B50  
                                    i2u331_40 4566                                      i2u323_40 43E6  
                                    i2u403_40 2F86                                      i2u315_41 4D58  
                                    i2u307_41 3B4C                                      i2u331_41 4562  
                                    i2u323_41 43E2                                      i2u403_41 2F82  
                                    i2u411_45 30EC                                      i2u316_40 47E4  
                                    i2u308_40 3B64                                      i2u324_40 4442  
                                    i2u340_40 5274                                      i2u420_40 326A  
                                    i2u404_40 2FA8                                      i2u316_41 47E0  
                                    i2u308_41 3B60                                      i2u324_41 443E  
                                    i2u420_41 3266                                      i2u404_41 2FA4  
                                    i2u412_45 3126                                      i2u317_40 4822  
                                    i2u309_40 3B7E                                      i2u325_40 4498  
                                    i2u341_40 5070                                      i2u421_40 329C  
                                    i2u413_40 3158                                      i2u405_40 2FE2  
                                    i2u317_41 481E                                      i2u309_41 3B7A  
                                    i2u325_41 4494                                      i2u341_41 506A  
                                    i2u421_41 3298                                      i2u413_41 3154  
                                    i2u405_41 2FDE                                      i2u318_40 4840  
                                    i2u270_40 4FCE                                      i2u326_40 44E2  
                                    i2u342_40 5072                                      i2u430_40 33D2  
                                    i2u422_40 32BA                                      i2u414_40 3176  
                                    i2u406_40 3028                                      i2u350_40 26F2  
                                    i2u318_41 483C                                      i2u270_41 4FCA  
                                    i2u326_41 44DE                                      i2u422_41 32B6  
                                    i2u414_41 3172                                      i2u406_41 3024  
                                    i2u350_41 26EE                                      i2u271_40 3C66  
                                    i2u319_40 4860                                      i2u327_40 4500  
                                    i2u335_40 5112                                      i2u343_40 5088  
                                    i2u431_40 33E8                                      i2u423_40 32DC  
                                    i2u415_40 31BA                                      i2u407_40 305A  
                                    i2u351_40 270A                                      i2u271_41 3C62  
                                    i2u319_41 485C                                      i2u327_41 44FC  
                                    i2u335_41 510E                                      i2u343_41 5084  
                                    i2u431_41 33E4                                      i2u423_41 32D8  
                                    i2u415_41 31B4                                      i2u407_41 3056  
                                    i2u351_41 2706                                      i2u280_40 3E06  
                                    i2u272_40 3C78                                      i2u328_40 4510  
                                    i2u336_40 5140                                      i2u440_40 35DA  
                                    i2u432_40 345A                                      i2u424_40 3304  
                                    i2u416_40 31BC                                      i2u408_40 3076  
                                    i2u360_40 288C                                      i2u352_40 272A  
                                    i2u280_41 3E02                                      i2u272_41 3C74  
                                    i2u328_41 450C                                      i2u336_41 513C  
                                    i2u440_41 35D6                                      i2u432_41 3454  
                                    i2u424_41 3300                                      i2u408_41 3072  
                                    i2u360_41 2888                                      i2u352_41 2726  
                                    i2u281_40 3E30                                      i2u273_40 3C88  
                                    i2u329_40 451E                                      i2u337_40 4ECE  
                                    i2u441_40 362A                                      i2u433_40 345C  
                                    i2u425_40 3326                                      i2u417_40 31D2  
                                    i2u409_40 30A4                                      i2u361_40 28C2  
                                    i2u353_40 2754                                      i2u345_40 2636  
                                    i2u281_41 3E2C                                      i2u273_41 3C84  
                                    i2u329_41 451A                                      i2u337_41 4ECA  
                                    i2u441_41 3626                                      i2u425_41 3322  
                                    i2u417_41 31CE                                      i2u409_41 30A0  
                                    i2u361_41 28BE                                      i2u353_41 2750  
                                    i2u345_41 2632                                      i2u290_40 3F2C  
                                    i2u282_40 3E54                                      i2u274_40 3CCC  
                                    i2u338_40 4F00                                      i2u266_40 523A  
                                    i2u442_40 365C                                      i2u434_40 3472  
                                    i2u426_40 3360                                      i2u418_40 31EC  
                                    i2u370_40 2A32                                      i2u362_40 28D4  
                                    i2u354_40 278A                                      i2u346_40 267A  
                                    i2u290_41 3F28                                      i2u282_41 3E50  
                                    i2u274_41 3CC8                                      i2u338_41 4EFC  
                                    i2u266_41 5234                                      i2u442_41 3658  
                                    i2u434_41 346E                                      i2u426_41 335A  
                                    i2u418_41 31E8                                      i2u370_41 2A2E  
                                    i2u362_41 28D0                                      i2u354_41 2786  
                                    i2u346_41 2674                                      i2u291_40 3F74  
                                    i2u283_40 3E6A                                      i2u275_40 3CDE  
                                    i2u339_40 5272                                      i2u267_40 523C  
                                    i2u443_40 366A                                      i2u435_40 34B4  
                                    i2u427_40 3362                                      i2u419_40 31FA  
                                    i2u371_40 2A50                                      i2u363_40 2902  
                                    i2u355_40 27C0                                      i2u347_40 267C  
                                    i2u291_41 3F70                                      i2u283_41 3E66  
                                    i2u275_41 3CDA                                      i2u339_41 526C  
                                    i2u443_41 3666                                      i2u435_41 34B0  
                                    i2u419_41 31F6                                      i2u371_41 2A4C  
                                    i2u363_41 28FE                                      i2u355_41 27BC  
                                    i2u268_40 5308                                      i2u452_40 4B6A  
                                    i2u460_40 46C6                                      i2u292_40 3FA4  
                                    i2u284_40 3E88                                      i2u276_40 3CEE  
                                    i2u444_40 36AC                                      i2u436_40 34D6  
                                    i2u428_40 3378                                      i2u380_40 2BCC  
                                    i2u372_40 2A8E                                      i2u364_40 2928  
                                    i2u356_40 27D0                                      i2u348_40 2692  
                                    i2u268_41 5304                                      i2u452_41 4B66  
                                    i2u460_41 46C2                                      i2u292_41 3FA0  
                                    i2u284_41 3E84                                      i2u276_41 3CEA  
                                    i2u444_41 36A8                                      i2u436_41 34D2  
                                    i2u428_41 3374                                      i2u380_41 2BC8  
                                    i2u372_41 2A8A                                      i2u364_41 2924  
                                    i2u356_41 27CC                                      i2u348_41 268E  
                                    i2u461_40 46FA                                      i2u293_40 3FD2  
                                    i2u285_40 3EA8                                      i2u277_40 3D2E  
                                    i2u269_40 4F94                                      i2u445_40 3702  
                                    i2u437_40 34E4                                      i2u429_40 33D0  
                                    i2u381_40 2BF4                                      i2u373_40 2AB0  
                                    i2u365_40 294E                                      i2u357_40 27F2  
                                    i2u349_40 26D6                                      i2u293_41 3FCE  
                                    i2u285_41 3EA4                                      i2u277_41 3D2A  
                                    i2u269_41 4F90                                      i2u445_41 36FE  
                                    i2u437_41 34E0                                      i2u429_41 33CA  
                                    i2u373_41 2AAC                                      i2u365_41 294A  
                                    i2u357_41 27EE                                      i2u349_41 26D2  
                                    _PIR3bits 0004B1                                      i2u461_45 46F0  
                                    i2u381_45 2BEA                                      i2u454_40 4BA4  
                                    i2u453_48 4B80                                      i2u462_40 4728  
                                    i2u286_40 3EBA                                      i2u278_40 3D6E  
                                    i2u294_40 3818                                      i2u446_40 3752  
                                    i2u438_40 3554                                      i2u390_40 2D84  
                                    i2u382_40 2C52                                      i2u374_40 2ACE  
                                    i2u366_40 296C                                      i2u358_40 2804  
                                    i2u454_41 4BA0                                      i2u453_49 4B94  
                                    i2u462_41 4724                                      i2u286_41 3EB6  
                                    i2u278_41 3D6A                                      i2u294_41 3814  
                                    i2u446_41 374E                                      i2u438_41 3550  
                                    i2u390_41 2D80                                      i2u382_41 2C4E  
                                    i2u374_41 2ACA                                      i2u366_41 2968  
                                    i2u358_41 2800                                      i2u463_40 473C  
                                    i2u287_40 3EE8                                      i2u279_40 3DE4  
                                    i2u295_40 382A                                      i2u447_40 3784  
                                    i2u439_40 3576                                      i2u391_40 2DAC  
                                    i2u383_40 2C70                                      i2u375_40 2AF0  
                                    i2u367_40 298A                                      i2u359_40 2856  
                                    i2u471_40 45E0                                      i2u470_48 45B4  
                                    i2u463_41 4738                                      i2u287_41 3EE4  
                                    i2u279_41 3DE0                                      i2u295_41 3826  
                                    i2u447_41 3780                                      i2u439_41 3572  
                                    i2u383_41 2C6C                                      i2u375_41 2AEC  
                                    i2u367_41 2986                                      i2u359_41 2852  
                                    i2u471_41 45DC                                      i2u470_49 45C8  
                                    _PIR4bits 0004B2                                      i2u391_45 2DA2  
                                    i2u456_40 4BEC                                      i2u455_48 4BBA  
                                    i2u464_40 4764                                      i2u288_40 3EFE  
                                    i2u296_40 383A                                      i2u448_40 3792  
                                    i2u392_40 2DD6                                      i2u384_40 2C92  
                                    i2u376_40 2B24                                      i2u368_40 2A04  
                                    i2u472_40 45F8                                      i2u456_41 4BE8  
                                    i2u455_49 4BCE                                      i2u464_41 4760  
                                    i2u288_41 3EFA                                      i2u296_41 3836  
                                    i2u448_41 378E                                      i2u392_41 2DD2  
                                    i2u384_41 2C8E                                      i2u376_41 2B20  
                                    i2u368_41 2A00                                      i2u472_41 45F4  
                                    i2u465_40 4784                                      i2u289_40 3F12  
                                    i2u297_40 387A                                      i2u449_40 37C8  
                                    i2u393_40 2DF4                                      i2u385_40 2CA4  
                                    i2u377_40 2B62                                      i2u369_40 2A14  
                                    i2u473_40 4610                                      i2u465_41 4780  
                                    i2u289_41 3F0E                                      i2u297_41 3876  
                                    i2u449_41 37C4                                      i2u393_41 2DF0  
                                    i2u385_41 2CA0                                      i2u377_41 2B5C  
                                    i2u369_41 2A10                                      i2u473_41 460C  
                                    i2u458_40 52CA                                      i2u457_48 4BF2  
                                    i2u466_40 4794                                      i2u298_40 388C  
                                    i2u394_40 2E12                                      i2u386_40 2CDC  
                                    i2u378_40 2B64                                      i2u474_40 4628  
                                    i2u458_41 52C6                                      i2u457_49 4C06  
                                    i2u466_41 4790                                      i2u298_41 3888  
                                    i2u394_41 2E0E                                      i2u386_41 2CD8  
                                    i2u474_41 4624                                      i2u299_40 389C  
                                    i2u395_40 2E46                                      i2u387_40 2D1A  
                                    i2u379_40 2B7A                                      i2u475_40 4640  
                                    i2u299_41 3898                                      i2u395_41 2E42  
                                    i2u387_41 2D14                                      i2u379_41 2B76  
                                    i2u475_41 463C                                      i2u459_45 52CC  
                                    i2u396_40 2E6A                                      i2u388_40 2D1C  
                                    i2u468_40 45A0                                      i2u396_41 2E66  
                                    i2u468_41 459C                                      i2u397_40 2E9E  
                                    i2u389_40 2D32                                      i2u469_40 45AE  
                                    i2u397_41 2E9A                                      i2u389_41 2D2E  
                                    i2u469_41 45AA                                      i2u398_40 2EBA  
                                    i2u398_41 2EB6                                      i2u399_40 2F3C  
                                    i2u399_41 2F36                                   strtof@digit 0535  
               ?_UART1_SetFramingErrorHandler 0560                                   strtof@flags 0536  
                                 strtof@expon 0537                                     _vfpfcnvrt 41EC  
                                  _ADCON0bits 0003F3                                    _ADCON1bits 0003F4  
                                  _ADCON2bits 0003F5                                    _ADCON3bits 0003F6  
                           ___wmul@multiplier 0501                           __end_of_UART1_Write 5462  
                                _isspace$1989 0507                                   _INTCON0bits 0004D6  
                           ___lmul@multiplier 0501                         ?_INTERRUPT_Initialize 0501  
                        fp__UART1_Receive_ISR 0000                             ??_TMR2_Initialize 0560  
                                _uart1RxCount 0557                                    _ADSTATbits 0003F7  
                                    __Hrparam 0000              __end_of_ADCC_GetConversionResult 5410  
                                  vfprintf@ap 05B3                                      __Lrparam 0000  
                                  vfprintf@fp 05AF                       ??_OSCILLATOR_Initialize 0560  
                            __size_of___fldiv 039A                              __size_of___flneg 0038  
                            __size_of___flmul 044E                              __size_of___fltol 0106  
                            __size_of___lodiv 00F2                              __size_of___lomod 00D2  
                                  ?_vfpfcnvrt 059D          __size_of_UART1_SetRxInterruptHandler 000E  
                                    ___xxtofl 43C6                      __size_of_ADCC_Initialize 005C  
                            __size_of_isdigit 0038                                      __pivt0x8 0008  
                            __size_of_islower 0038                              __size_of_isspace 0052  
                                    __ptext10 5448                                      __ptext11 49AC  
                                    __ptext20 5462                                      __ptext12 48BA  
                                    __ptext21 5388                                      __ptext13 53AC  
                                    __ptext30 2624                                      __ptext22 4C10  
                                    __ptext14 4D66                                      __ptext31 5040  
                                    __ptext23 542C                                      __ptext15 549A  
                                    __ptext40 527A                                      __ptext32 520A  
                                    __ptext24 54D8                                      __ptext16 54A8  
                                    __ptext41 37FE                                      __ptext33 53CE  
                                    __ptext25 509E                                      __ptext17 54B6  
                                    __ptext50 52E4                                      __ptext42 47B6  
                                    __ptext34 4E9C                                      __ptext26 547A  
                                    __ptext18 54C4                                      __ptext51 52B2  
                                    __ptext43 4CBC                                      __ptext35 50FA  
                                    __ptext27 53F0                                      __ptext19 5410  
                                    __ptext52 0000                                      __ptext44 3C4C  
                                    __ptext36 5242                                      __ptext28 457A  
                                    __ptext45 46B0                                      __ptext37 43C6  
                                    __ptext29 5362                                      __ptext46 4B48  
                                    __ptext38 5310                                      __ptext47 54DC  
                                    __ptext39 4F76                                      __ptext48 54DE  
                                    __ptext49 54D2                                    _U1CON0bits 0002AB  
              __size_of_UART1_SetErrorHandler 000E                 __end_of_UART1_SetErrorHandler 54D2  
                                   isxdigit@c 0501                              __size_of_toupper 005E  
                               __size_of_atof 0026                                 __size_of_main 0060  
                               __size_of_nanf 0022                                 __size_of_utoa 0206  
                                    _isxdigit 4E9C                     _UART1_OverrunErrorHandler 05DE  
UART1_SetOverrunErrorHandler@interruptHandler 0560                                      isa$xinst 000000  
          __size_of_UART1_DefaultErrorHandler 0006                  __end_of_ADCC_StartConversion 548C  
                                  strtof@eexp 0539                    ?_UART1_DefaultErrorHandler 0501  
                                    _vfprintf 4F0C            __end_of_INTERRUPT_InterruptManager 46B0  
                  _INTERRUPT_InterruptManager 457A                                     printf@fmt 05B7  
                                    main@dato 05BF                                   _UART1_Write 5448  
              ??_UART1_SetFramingErrorHandler 0563                   __end_of_UART1_RxDataHandler 5310  
                                 _uart1RxHead 05DA                                   _uart1RxTail 0558  
                                    isdigit@c 0501                        ??_INTERRUPT_Initialize 0560  
                                    intlevel2 0000                                      islower@c 0501  
                                    isspace@c 0501                       ?_PIN_MANAGER_Initialize 0501  
                             _PWM1_Initialize 5462                           _uart1RxStatusBuffer 05C1  
                                   strtof@res 051C                                      printf@ap 05BB  
UART1_SetFramingErrorHandler@interruptHandler 0560                      _ADCC_GetConversionResult 53F0  
           __end_of_UART1_DefaultErrorHandler 54D8                                   ??_vfpfcnvrt 05A3  
                                    toupper@c 0507                     __size_of_UART1_Initialize 009E  
                                    strtof@_u 053B                __end_of_PIN_MANAGER_Initialize 4CBC  
                           ??_ADCC_Initialize 0560                    __end_of_PWM1_LoadDutyValue 52E4  
